---
triple:          'arm64-apple-darwin'
binary-path:     '/Users/yza.vyas/mox/slick/target/debug/deps/libslickit_py.dylib'
relocations:
  - { offsetInCU: 0x1E, offset: 0x1E, size: 0x8, addend: 0x0, symName: '__ZN103_$LT$pyo3..instance..Bound$LT$pyo3..types..any..PyAny$GT$$u20$as$u20$pyo3..types..any..PyAnyMethods$GT$7is_none17h2c9a0e718c0046cdE', symObjAddr: 0x0, symBinAddr: 0xAE4, symSize: 0x4C }
  - { offsetInCU: 0x1B84, offset: 0x1B84, size: 0x8, addend: 0x0, symName: '__ZN103_$LT$pyo3..instance..Bound$LT$pyo3..types..any..PyAny$GT$$u20$as$u20$pyo3..types..any..PyAnyMethods$GT$7is_none17h2c9a0e718c0046cdE', symObjAddr: 0x0, symBinAddr: 0xAE4, symSize: 0x4C }
  - { offsetInCU: 0x1BF9, offset: 0x1BF9, size: 0x8, addend: 0x0, symName: '__ZN119_$LT$pyo3..instance..Bound$LT$pyo3..types..typeobject..PyType$GT$$u20$as$u20$pyo3..types..typeobject..PyTypeMethods$GT$11as_type_ptr17h7b00cb94f30cede2E', symObjAddr: 0x4C, symBinAddr: 0xB30, symSize: 0x24 }
  - { offsetInCU: 0x1C46, offset: 0x1C46, size: 0x8, addend: 0x0, symName: '__ZN123_$LT$pyo3..instance..Bound$LT$pyo3..types..sequence..PySequence$GT$$u20$as$u20$pyo3..types..sequence..PySequenceMethods$GT$3len17h45720926ff68d63aE', symObjAddr: 0x70, symBinAddr: 0xB54, symSize: 0xBC }
  - { offsetInCU: 0x1CCE, offset: 0x1CCE, size: 0x8, addend: 0x0, symName: '__ZN4pyo35types8iterator131_$LT$impl$u20$core..iter..traits..iterator..Iterator$u20$for$u20$pyo3..instance..Bound$LT$pyo3..types..iterator..PyIterator$GT$$GT$4next17hd00e7b8f7418c8eeE', symObjAddr: 0x12C, symBinAddr: 0xC10, symSize: 0x30 }
  - { offsetInCU: 0x2113, offset: 0x2113, size: 0x8, addend: 0x0, symName: '__ZN4pyo38instance36Bound$LT$pyo3..types..any..PyAny$GT$14from_owned_ptr17hed26ea92837acd21E', symObjAddr: 0x15C, symBinAddr: 0xC40, symSize: 0x2C }
  - { offsetInCU: 0x215B, offset: 0x215B, size: 0x8, addend: 0x0, symName: '__ZN4pyo38instance39Borrowed$LT$pyo3..types..any..PyAny$GT$15from_ptr_or_opt17h75a083ad1d5335b6E', symObjAddr: 0x188, symBinAddr: 0xC6C, symSize: 0x2C }
  - { offsetInCU: 0x2199, offset: 0x2199, size: 0x8, addend: 0x0, symName: '__ZN4pyo38instance39Borrowed$LT$pyo3..types..any..PyAny$GT$18from_ptr_unchecked17ha8a36bc5d6f2dea4E', symObjAddr: 0x1B4, symBinAddr: 0xC98, symSize: 0x2C }
  - { offsetInCU: 0x21D7, offset: 0x21D7, size: 0x8, addend: 0x0, symName: '__ZN4pyo38instance39Borrowed$LT$pyo3..types..any..PyAny$GT$8from_ptr17h2832c0b0147571c4E', symObjAddr: 0x1E0, symBinAddr: 0xCC4, symSize: 0x34 }
  - { offsetInCU: 0x1E, offset: 0x2455, size: 0x8, addend: 0x0, symName: __ZN4pyo35impl_9pymethods11tp_new_impl17h073e3f3b8bcbec23E, symObjAddr: 0x0, symBinAddr: 0xCF8, symSize: 0x3C }
  - { offsetInCU: 0x14CF, offset: 0x3906, size: 0x8, addend: 0x0, symName: '__ZN50_$LT$T$u20$as$u20$core..convert..Into$LT$U$GT$$GT$4into17hba042259f0b4ec83E', symObjAddr: 0xC0, symBinAddr: 0xDB8, symSize: 0x24 }
  - { offsetInCU: 0x16A2, offset: 0x3AD9, size: 0x8, addend: 0x0, symName: __ZN4pyo35impl_9pymethods11tp_new_impl17h073e3f3b8bcbec23E, symObjAddr: 0x0, symBinAddr: 0xCF8, symSize: 0x3C }
  - { offsetInCU: 0x1704, offset: 0x3B3B, size: 0x8, addend: 0x0, symName: __ZN4pyo35impl_9pymethods11tp_new_impl17h780f073a7d339b68E, symObjAddr: 0x3C, symBinAddr: 0xD34, symSize: 0x3C }
  - { offsetInCU: 0x1803, offset: 0x3C3A, size: 0x8, addend: 0x0, symName: '__ZN85_$LT$pyo3..impl_..pymethods..BoundRef$LT$T$GT$$u20$as$u20$core..ops..deref..Deref$GT$5deref17h4a49111351f46038E', symObjAddr: 0xE4, symBinAddr: 0xDDC, symSize: 0x18 }
  - { offsetInCU: 0x183A, offset: 0x3C71, size: 0x8, addend: 0x0, symName: '__ZN85_$LT$pyo3..impl_..pymethods..BoundRef$LT$T$GT$$u20$as$u20$core..ops..deref..Deref$GT$5deref17haac6bbecd6f6e02dE', symObjAddr: 0xFC, symBinAddr: 0xDF4, symSize: 0x18 }
  - { offsetInCU: 0x2312, offset: 0x4749, size: 0x8, addend: 0x0, symName: '__ZN4pyo35impl_9pymethods39BoundRef$LT$pyo3..types..any..PyAny$GT$18downcast_unchecked17h70e3820af5c7fcfeE', symObjAddr: 0x78, symBinAddr: 0xD70, symSize: 0x24 }
  - { offsetInCU: 0x234B, offset: 0x4782, size: 0x8, addend: 0x0, symName: '__ZN4pyo35impl_9pymethods39BoundRef$LT$pyo3..types..any..PyAny$GT$18downcast_unchecked17hb745d3a891f5470cE', symObjAddr: 0x9C, symBinAddr: 0xD94, symSize: 0x24 }
  - { offsetInCU: 0x1E, offset: 0x49E1, size: 0x8, addend: 0x0, symName: '__ZN10serde_core2de5impls79_$LT$impl$u20$serde_core..de..Deserialize$u20$for$u20$alloc..string..String$GT$11deserialize17h1a8f9cdef03a3ee1E', symObjAddr: 0x0, symBinAddr: 0xE0C, symSize: 0x24 }
  - { offsetInCU: 0xC01, offset: 0x55C4, size: 0x8, addend: 0x0, symName: '__ZN4core5slice4iter87_$LT$impl$u20$core..iter..traits..collect..IntoIterator$u20$for$u20$$RF$$u5b$T$u5d$$GT$9into_iter17hb82f1b636172b4f5E', symObjAddr: 0x138, symBinAddr: 0xF44, symSize: 0x58 }
  - { offsetInCU: 0x2232, offset: 0x6BF5, size: 0x8, addend: 0x0, symName: '__ZN10serde_core2de5impls79_$LT$impl$u20$serde_core..de..Deserialize$u20$for$u20$alloc..string..String$GT$11deserialize17h1a8f9cdef03a3ee1E', symObjAddr: 0x0, symBinAddr: 0xE0C, symSize: 0x24 }
  - { offsetInCU: 0x2269, offset: 0x6C2C, size: 0x8, addend: 0x0, symName: '__ZN10serde_core2de5impls79_$LT$impl$u20$serde_core..de..Deserialize$u20$for$u20$alloc..string..String$GT$11deserialize17h3f69343f10ffb649E', symObjAddr: 0x24, symBinAddr: 0xE30, symSize: 0x28 }
  - { offsetInCU: 0x22B2, offset: 0x6C75, size: 0x8, addend: 0x0, symName: '__ZN10serde_core3ser5impls62_$LT$impl$u20$serde_core..ser..Serialize$u20$for$u20$$RF$T$GT$9serialize17h67fdd23e8b352ebeE', symObjAddr: 0x4C, symBinAddr: 0xE58, symSize: 0x30 }
  - { offsetInCU: 0x2307, offset: 0x6CCA, size: 0x8, addend: 0x0, symName: '__ZN10serde_core3ser5impls78_$LT$impl$u20$serde_core..ser..Serialize$u20$for$u20$alloc..string..String$GT$9serialize17h4c8b5ddea9734538E', symObjAddr: 0x7C, symBinAddr: 0xE88, symSize: 0x90 }
  - { offsetInCU: 0x2362, offset: 0x6D25, size: 0x8, addend: 0x0, symName: '__ZN111_$LT$T$u20$as$u20$pyo3..impl_..callback..IntoPyCallbackOutput$LT$$BP$mut$u20$pyo3_ffi..object..PyObject$GT$$GT$7convert17h178fa6beace7d944E', symObjAddr: 0x10C, symBinAddr: 0xF18, symSize: 0x2C }
  - { offsetInCU: 0x23BD, offset: 0x6D80, size: 0x8, addend: 0x0, symName: '__ZN80_$LT$T$u20$as$u20$pyo3..impl_..extract_argument..PyFunctionArgument$LT$_$GT$$GT$7extract17h567a5b435ce5104eE', symObjAddr: 0x2B8, symBinAddr: 0x10C4, symSize: 0x28 }
  - { offsetInCU: 0x2424, offset: 0x6DE7, size: 0x8, addend: 0x0, symName: __ZN4pyo310conversion12IntoPyObject31borrowed_sequence_into_pyobject17hda397593648310eaE, symObjAddr: 0x190, symBinAddr: 0xF9C, symSize: 0x7C }
  - { offsetInCU: 0x24D6, offset: 0x6E99, size: 0x8, addend: 0x0, symName: __ZN4pyo310conversion15IntoPyObjectExt17into_bound_py_any17h4cbc04f215ee8b7cE, symObjAddr: 0x20C, symBinAddr: 0x1018, symSize: 0x50 }
  - { offsetInCU: 0x2547, offset: 0x6F0A, size: 0x8, addend: 0x0, symName: '__ZN57_$LT$T$u20$as$u20$pyo3..conversion..FromPyObjectBound$GT$20from_py_object_bound17h30c14d29f452ff4aE', symObjAddr: 0x284, symBinAddr: 0x1090, symSize: 0x34 }
  - { offsetInCU: 0x25A2, offset: 0x6F65, size: 0x8, addend: 0x0, symName: '__ZN4pyo311conversions3std5slice76_$LT$impl$u20$pyo3..conversion..IntoPyObject$u20$for$u20$$RF$$u5b$T$u5d$$GT$13into_pyobject17hf91ecb866cce2f02E', symObjAddr: 0x25C, symBinAddr: 0x1068, symSize: 0x28 }
  - { offsetInCU: 0x2BE6, offset: 0x75A9, size: 0x8, addend: 0x0, symName: '__ZN87_$LT$T$u20$as$u20$alloc..slice..$LT$impl$u20$$u5b$T$u5d$$GT$..to_vec_in..ConvertVec$GT$6to_vec17h640628071f819c09E', symObjAddr: 0x2E0, symBinAddr: 0x10EC, symSize: 0x37C }
  - { offsetInCU: 0x1E, offset: 0x8999, size: 0x8, addend: 0x0, symName: __ZN4core3ptr19copy_nonoverlapping18precondition_check17ha9c025ff31412c38E, symObjAddr: 0x0, symBinAddr: 0x1468, symSize: 0x36C }
  - { offsetInCU: 0x33C, offset: 0x8CB7, size: 0x8, addend: 0x0, symName: __ZN4core3ptr19copy_nonoverlapping18precondition_check17ha9c025ff31412c38E, symObjAddr: 0x0, symBinAddr: 0x1468, symSize: 0x36C }
  - { offsetInCU: 0x1E, offset: 0x92BF, size: 0x8, addend: 0x0, symName: __ZN4core3fmt2rt8Argument11new_display17h7f7e24f7d1014e68E, symObjAddr: 0x0, symBinAddr: 0x17D4, symSize: 0x2C }
  - { offsetInCU: 0x5C8, offset: 0x9869, size: 0x8, addend: 0x0, symName: __ZN4core3fmt2rt8Argument11new_display17h7f7e24f7d1014e68E, symObjAddr: 0x0, symBinAddr: 0x17D4, symSize: 0x2C }
  - { offsetInCU: 0x938, offset: 0x9BD9, size: 0x8, addend: 0x0, symName: __ZN4core3fmt2rt8Argument11new_display17ha8111dac5d134130E, symObjAddr: 0x2C, symBinAddr: 0x1800, symSize: 0x2C }
  - { offsetInCU: 0x1E, offset: 0x9C22, size: 0x8, addend: 0x0, symName: __ZN3std4sync6poison4once4Once15call_once_force17h033ae87898e76d86E, symObjAddr: 0x0, symBinAddr: 0x182C, symSize: 0x10C }
  - { offsetInCU: 0x57, offset: 0x9C5B, size: 0x8, addend: 0x0, symName: '__ZN3std4sync6poison4once4Once15call_once_force28_$u7b$$u7b$closure$u7d$$u7d$17h7d4bed5365032f28E', symObjAddr: 0x10C, symBinAddr: 0x1938, symSize: 0x90 }
  - { offsetInCU: 0x67B, offset: 0xA27F, size: 0x8, addend: 0x0, symName: __ZN3std4sync6poison4once4Once15call_once_force17h033ae87898e76d86E, symObjAddr: 0x0, symBinAddr: 0x182C, symSize: 0x10C }
  - { offsetInCU: 0x1E, offset: 0xA3AD, size: 0x8, addend: 0x0, symName: __ZN3std4hash6random13DefaultHasher3new17h296b577f1964674dE, symObjAddr: 0x0, symBinAddr: 0x19C8, symSize: 0xB4 }
  - { offsetInCU: 0x20B, offset: 0xA59A, size: 0x8, addend: 0x0, symName: '__ZN71_$LT$std..hash..random..DefaultHasher$u20$as$u20$core..hash..Hasher$GT$6finish17hd1171715fe4bd1a0E', symObjAddr: 0xB4, symBinAddr: 0x1A7C, symSize: 0x2C }
  - { offsetInCU: 0x258, offset: 0xA5E7, size: 0x8, addend: 0x0, symName: __ZN3std4hash6random13DefaultHasher3new17h296b577f1964674dE, symObjAddr: 0x0, symBinAddr: 0x19C8, symSize: 0xB4 }
  - { offsetInCU: 0x1E, offset: 0xA694, size: 0x8, addend: 0x0, symName: '__ZN103_$LT$slickit_py..ComponentKind$u20$as$u20$core..convert..From$LT$slick..manifest..ComponentKind$GT$$GT$4from17h1246a55db4120171E', symObjAddr: 0x0, symBinAddr: 0x1AA8, symSize: 0x78 }
  - { offsetInCU: 0x47, offset: 0xA6BD, size: 0x8, addend: 0x0, symName: '__ZN79_$LT$slickit_py..ComponentKind$u20$as$u20$pyo3..impl_..pyclass..PyClassImpl$GT$10items_iter15INTRINSIC_ITEMS17h66c8d8759b030ad3E', symObjAddr: 0x3B48, symBinAddr: 0xF8370, symSize: 0x0 }
  - { offsetInCU: 0x59, offset: 0xA6CF, size: 0x8, addend: 0x0, symName: '__ZN79_$LT$slickit_py..ComponentKind$u20$as$u20$pyo3..impl_..pyclass..PyClassImpl$GT$10items_iter15INTRINSIC_ITEMS10trampoline17hc2ab747453a89ae9E', symObjAddr: 0x330, symBinAddr: 0x1DD8, symSize: 0x3C }
  - { offsetInCU: 0x85, offset: 0xA6FB, size: 0x8, addend: 0x0, symName: '__ZN79_$LT$slickit_py..ComponentKind$u20$as$u20$pyo3..impl_..pyclass..PyClassImpl$GT$10items_iter15INTRINSIC_ITEMS10trampoline17h0e5290152e5da22fE', symObjAddr: 0x36C, symBinAddr: 0x1E14, symSize: 0x3C }
  - { offsetInCU: 0xB1, offset: 0xA727, size: 0x8, addend: 0x0, symName: '__ZN79_$LT$slickit_py..ComponentKind$u20$as$u20$pyo3..impl_..pyclass..PyClassImpl$GT$10items_iter15INTRINSIC_ITEMS10trampoline17hf631af4ae38e4bb5E', symObjAddr: 0x3A8, symBinAddr: 0x1E50, symSize: 0x48 }
  - { offsetInCU: 0xF9, offset: 0xA76F, size: 0x8, addend: 0x0, symName: '__ZN79_$LT$slickit_py..ComponentKind$u20$as$u20$pyo3..impl_..pyclass..PyClassImpl$GT$10items_iter15INTRINSIC_ITEMS10trampoline17h62180c05b9009294E', symObjAddr: 0x3F0, symBinAddr: 0x1E98, symSize: 0x3C }
  - { offsetInCU: 0x139, offset: 0xA7AF, size: 0x8, addend: 0x0, symName: '__ZN79_$LT$slickit_py..ComponentKind$u20$as$u20$pyo3..impl_..pyclass..PyClassImpl$GT$3doc3DOC17h4819690d504d6b6aE', symObjAddr: 0x1A0E0, symBinAddr: 0x1050A0, symSize: 0x0 }
  - { offsetInCU: 0x159, offset: 0xA7CF, size: 0x8, addend: 0x0, symName: '__ZN79_$LT$slickit_py..ComponentKind$u20$as$u20$pyo3..impl_..pyclass..PyClassImpl$GT$16lazy_type_object11TYPE_OBJECT17h3057882b6766c47fE', symObjAddr: 0x4260, symBinAddr: 0x104390, symSize: 0x0 }
  - { offsetInCU: 0x167, offset: 0xA7DD, size: 0x8, addend: 0x0, symName: '__ZN79_$LT$slickit_py..ComponentKind$u20$as$u20$pyo3..impl_..pyclass..PyClassImpl$GT$10items_iter17hc9dca6f668d8fd0cE', symObjAddr: 0x2F8, symBinAddr: 0x1DA0, symSize: 0x38 }
  - { offsetInCU: 0x1A2, offset: 0xA818, size: 0x8, addend: 0x0, symName: '__ZN79_$LT$slickit_py..ComponentKind$u20$as$u20$pyo3..impl_..pyclass..PyClassImpl$GT$3doc17ha2b7aa63006f0299E', symObjAddr: 0x42C, symBinAddr: 0x1ED4, symSize: 0x3C }
  - { offsetInCU: 0x1D9, offset: 0xA84F, size: 0x8, addend: 0x0, symName: '__ZN79_$LT$slickit_py..ComponentKind$u20$as$u20$pyo3..impl_..pyclass..PyClassImpl$GT$16lazy_type_object17h27ce42614c1cf6a8E', symObjAddr: 0x468, symBinAddr: 0x1F10, symSize: 0xC }
  - { offsetInCU: 0x3B9, offset: 0xAA2F, size: 0x8, addend: 0x0, symName: '__ZN10slickit_py170_$LT$impl$u20$pyo3..impl_..pyclass..PyMethods$LT$slickit_py..ComponentKind$GT$$u20$for$u20$pyo3..impl_..pyclass..PyClassImplCollector$LT$slickit_py..ComponentKind$GT$$GT$10py_methods5ITEMS17h6b92c59271da5b57E', symObjAddr: 0x3BB8, symBinAddr: 0xF83E0, symSize: 0x0 }
  - { offsetInCU: 0x3CB, offset: 0xAA41, size: 0x8, addend: 0x0, symName: '__ZN10slickit_py170_$LT$impl$u20$pyo3..impl_..pyclass..PyMethods$LT$slickit_py..ComponentKind$GT$$u20$for$u20$pyo3..impl_..pyclass..PyClassImplCollector$LT$slickit_py..ComponentKind$GT$$GT$10py_methods5ITEMS10trampoline17h7f3d0c0801a4b8d5E', symObjAddr: 0x103C, symBinAddr: 0x2AE4, symSize: 0x3C }
  - { offsetInCU: 0x3F7, offset: 0xAA6D, size: 0x8, addend: 0x0, symName: '__ZN10slickit_py170_$LT$impl$u20$pyo3..impl_..pyclass..PyMethods$LT$slickit_py..ComponentKind$GT$$u20$for$u20$pyo3..impl_..pyclass..PyClassImplCollector$LT$slickit_py..ComponentKind$GT$$GT$10py_methods5ITEMS10trampoline17h8d5fb48d44e89694E', symObjAddr: 0x1078, symBinAddr: 0x2B20, symSize: 0x3C }
  - { offsetInCU: 0x43D, offset: 0xAAB3, size: 0x8, addend: 0x0, symName: '__ZN83_$LT$slickit_py..ComponentManifest$u20$as$u20$pyo3..impl_..pyclass..PyClassImpl$GT$10items_iter15INTRINSIC_ITEMS17ha4c71a594c0264edE', symObjAddr: 0x3D30, symBinAddr: 0xF8558, symSize: 0x0 }
  - { offsetInCU: 0x454, offset: 0xAACA, size: 0x8, addend: 0x0, symName: '__ZN243_$LT$$LT$slickit_py..ComponentManifest$u20$as$u20$pyo3..impl_..pyclass..PyClassImpl$GT$..items_iter..INTRINSIC_ITEMS..Offset$u20$as$u20$pyo3..impl_..pyclass..OffsetCalculator$LT$slickit_py..ComponentManifest$C$slickit_py..ComponentKind$GT$$GT$6offset17h172df8e977017627E', symObjAddr: 0x1384, symBinAddr: 0x2E2C, symSize: 0x40 }
  - { offsetInCU: 0x477, offset: 0xAAED, size: 0x8, addend: 0x0, symName: '__ZN239_$LT$$LT$slickit_py..ComponentManifest$u20$as$u20$pyo3..impl_..pyclass..PyClassImpl$GT$..items_iter..INTRINSIC_ITEMS..Offset$u20$as$u20$pyo3..impl_..pyclass..OffsetCalculator$LT$slickit_py..ComponentManifest$C$alloc..string..String$GT$$GT$6offset17h98058d453a40643eE', symObjAddr: 0x13C4, symBinAddr: 0x2E6C, symSize: 0x40 }
  - { offsetInCU: 0x49A, offset: 0xAB10, size: 0x8, addend: 0x0, symName: '__ZN239_$LT$$LT$slickit_py..ComponentManifest$u20$as$u20$pyo3..impl_..pyclass..PyClassImpl$GT$..items_iter..INTRINSIC_ITEMS..Offset$u20$as$u20$pyo3..impl_..pyclass..OffsetCalculator$LT$slickit_py..ComponentManifest$C$alloc..string..String$GT$$GT$6offset17ha810baed223feff7E', symObjAddr: 0x1404, symBinAddr: 0x2EAC, symSize: 0x40 }
  - { offsetInCU: 0x4BD, offset: 0xAB33, size: 0x8, addend: 0x0, symName: '__ZN262_$LT$$LT$slickit_py..ComponentManifest$u20$as$u20$pyo3..impl_..pyclass..PyClassImpl$GT$..items_iter..INTRINSIC_ITEMS..Offset$u20$as$u20$pyo3..impl_..pyclass..OffsetCalculator$LT$slickit_py..ComponentManifest$C$alloc..vec..Vec$LT$alloc..string..String$GT$$GT$$GT$6offset17h77e25363700ff38eE', symObjAddr: 0x1444, symBinAddr: 0x2EEC, symSize: 0x40 }
  - { offsetInCU: 0x4E0, offset: 0xAB56, size: 0x8, addend: 0x0, symName: '__ZN267_$LT$$LT$slickit_py..ComponentManifest$u20$as$u20$pyo3..impl_..pyclass..PyClassImpl$GT$..items_iter..INTRINSIC_ITEMS..Offset$u20$as$u20$pyo3..impl_..pyclass..OffsetCalculator$LT$slickit_py..ComponentManifest$C$core..option..Option$LT$alloc..string..String$GT$$GT$$GT$6offset17h40cc1807df298584E', symObjAddr: 0x1484, symBinAddr: 0x2F2C, symSize: 0x40 }
  - { offsetInCU: 0x512, offset: 0xAB88, size: 0x8, addend: 0x0, symName: '__ZN83_$LT$slickit_py..ComponentManifest$u20$as$u20$pyo3..impl_..pyclass..PyClassImpl$GT$3doc3DOC17h1b71451d3171ed8bE', symObjAddr: 0x1A100, symBinAddr: 0x1050C0, symSize: 0x0 }
  - { offsetInCU: 0x532, offset: 0xABA8, size: 0x8, addend: 0x0, symName: '__ZN83_$LT$slickit_py..ComponentManifest$u20$as$u20$pyo3..impl_..pyclass..PyClassImpl$GT$16lazy_type_object11TYPE_OBJECT17h45bf9884d91e6330E', symObjAddr: 0x42C0, symBinAddr: 0x1043F0, symSize: 0x0 }
  - { offsetInCU: 0x540, offset: 0xABB6, size: 0x8, addend: 0x0, symName: '__ZN83_$LT$slickit_py..ComponentManifest$u20$as$u20$pyo3..impl_..pyclass..PyClassImpl$GT$10items_iter17h93da70d3fa646eafE', symObjAddr: 0x134C, symBinAddr: 0x2DF4, symSize: 0x38 }
  - { offsetInCU: 0x57B, offset: 0xABF1, size: 0x8, addend: 0x0, symName: '__ZN83_$LT$slickit_py..ComponentManifest$u20$as$u20$pyo3..impl_..pyclass..PyClassImpl$GT$3doc17h47cdc1c84f1155aaE', symObjAddr: 0x14C4, symBinAddr: 0x2F6C, symSize: 0x3C }
  - { offsetInCU: 0x5B2, offset: 0xAC28, size: 0x8, addend: 0x0, symName: '__ZN83_$LT$slickit_py..ComponentManifest$u20$as$u20$pyo3..impl_..pyclass..PyClassImpl$GT$16lazy_type_object17hc2f23658672e8e65E', symObjAddr: 0x1500, symBinAddr: 0x2FA8, symSize: 0xC }
  - { offsetInCU: 0x715, offset: 0xAD8B, size: 0x8, addend: 0x0, symName: '__ZN10slickit_py178_$LT$impl$u20$pyo3..impl_..pyclass..PyMethods$LT$slickit_py..ComponentManifest$GT$$u20$for$u20$pyo3..impl_..pyclass..PyClassImplCollector$LT$slickit_py..ComponentManifest$GT$$GT$10py_methods5ITEMS17h30987be2b483368aE', symObjAddr: 0x3E50, symBinAddr: 0xF8678, symSize: 0x0 }
  - { offsetInCU: 0x727, offset: 0xAD9D, size: 0x8, addend: 0x0, symName: '__ZN10slickit_py178_$LT$impl$u20$pyo3..impl_..pyclass..PyMethods$LT$slickit_py..ComponentManifest$GT$$u20$for$u20$pyo3..impl_..pyclass..PyClassImplCollector$LT$slickit_py..ComponentManifest$GT$$GT$10py_methods5ITEMS10trampoline17h957a541e6c8c1f0fE', symObjAddr: 0x1890, symBinAddr: 0x3338, symSize: 0x44 }
  - { offsetInCU: 0x761, offset: 0xADD7, size: 0x8, addend: 0x0, symName: '__ZN10slickit_py178_$LT$impl$u20$pyo3..impl_..pyclass..PyMethods$LT$slickit_py..ComponentManifest$GT$$u20$for$u20$pyo3..impl_..pyclass..PyClassImplCollector$LT$slickit_py..ComponentManifest$GT$$GT$10py_methods5ITEMS10trampoline17hd895883a6d4a3e8fE', symObjAddr: 0x18D4, symBinAddr: 0x337C, symSize: 0x50 }
  - { offsetInCU: 0x7B7, offset: 0xAE2D, size: 0x8, addend: 0x0, symName: '__ZN10slickit_py178_$LT$impl$u20$pyo3..impl_..pyclass..PyMethods$LT$slickit_py..ComponentManifest$GT$$u20$for$u20$pyo3..impl_..pyclass..PyClassImplCollector$LT$slickit_py..ComponentManifest$GT$$GT$10py_methods5ITEMS10trampoline17hb5bd9d13d1599121E', symObjAddr: 0x1924, symBinAddr: 0x33CC, symSize: 0x4C }
  - { offsetInCU: 0x7FF, offset: 0xAE75, size: 0x8, addend: 0x0, symName: '__ZN10slickit_py178_$LT$impl$u20$pyo3..impl_..pyclass..PyMethods$LT$slickit_py..ComponentManifest$GT$$u20$for$u20$pyo3..impl_..pyclass..PyClassImplCollector$LT$slickit_py..ComponentManifest$GT$$GT$10py_methods5ITEMS10trampoline17h9f43f235b84e4bafE', symObjAddr: 0x1970, symBinAddr: 0x3418, symSize: 0x3C }
  - { offsetInCU: 0x845, offset: 0xAEBB, size: 0x8, addend: 0x0, symName: '__ZN77_$LT$slickit_py..TypedConfig$u20$as$u20$pyo3..impl_..pyclass..PyClassImpl$GT$10items_iter15INTRINSIC_ITEMS17h22ccaf397c89ce4eE', symObjAddr: 0x4098, symBinAddr: 0xF88C0, symSize: 0x0 }
  - { offsetInCU: 0x85C, offset: 0xAED2, size: 0x8, addend: 0x0, symName: '__ZN227_$LT$$LT$slickit_py..TypedConfig$u20$as$u20$pyo3..impl_..pyclass..PyClassImpl$GT$..items_iter..INTRINSIC_ITEMS..Offset$u20$as$u20$pyo3..impl_..pyclass..OffsetCalculator$LT$slickit_py..TypedConfig$C$alloc..string..String$GT$$GT$6offset17hbce78d4303d145e3E', symObjAddr: 0x288C, symBinAddr: 0x4334, symSize: 0x40 }
  - { offsetInCU: 0x87F, offset: 0xAEF5, size: 0x8, addend: 0x0, symName: '__ZN227_$LT$$LT$slickit_py..TypedConfig$u20$as$u20$pyo3..impl_..pyclass..PyClassImpl$GT$..items_iter..INTRINSIC_ITEMS..Offset$u20$as$u20$pyo3..impl_..pyclass..OffsetCalculator$LT$slickit_py..TypedConfig$C$alloc..string..String$GT$$GT$6offset17h67978213b04c3e4cE', symObjAddr: 0x28CC, symBinAddr: 0x4374, symSize: 0x40 }
  - { offsetInCU: 0x8B1, offset: 0xAF27, size: 0x8, addend: 0x0, symName: '__ZN77_$LT$slickit_py..TypedConfig$u20$as$u20$pyo3..impl_..pyclass..PyClassImpl$GT$3doc3DOC17h9c37c589c8aa7c65E', symObjAddr: 0x1A120, symBinAddr: 0x1050E0, symSize: 0x0 }
  - { offsetInCU: 0x8D1, offset: 0xAF47, size: 0x8, addend: 0x0, symName: '__ZN77_$LT$slickit_py..TypedConfig$u20$as$u20$pyo3..impl_..pyclass..PyClassImpl$GT$16lazy_type_object11TYPE_OBJECT17ha2d7e8bcd87ab9f6E', symObjAddr: 0x4320, symBinAddr: 0x104450, symSize: 0x0 }
  - { offsetInCU: 0x8DF, offset: 0xAF55, size: 0x8, addend: 0x0, symName: '__ZN77_$LT$slickit_py..TypedConfig$u20$as$u20$pyo3..impl_..pyclass..PyClassImpl$GT$10items_iter17h571edbc41c980b56E', symObjAddr: 0x2854, symBinAddr: 0x42FC, symSize: 0x38 }
  - { offsetInCU: 0x91A, offset: 0xAF90, size: 0x8, addend: 0x0, symName: '__ZN77_$LT$slickit_py..TypedConfig$u20$as$u20$pyo3..impl_..pyclass..PyClassImpl$GT$3doc17h884ccb0a3deb8a64E', symObjAddr: 0x290C, symBinAddr: 0x43B4, symSize: 0x3C }
  - { offsetInCU: 0x951, offset: 0xAFC7, size: 0x8, addend: 0x0, symName: '__ZN77_$LT$slickit_py..TypedConfig$u20$as$u20$pyo3..impl_..pyclass..PyClassImpl$GT$16lazy_type_object17h074d4f9ebde6cf9aE', symObjAddr: 0x2948, symBinAddr: 0x43F0, symSize: 0xC }
  - { offsetInCU: 0xA14, offset: 0xB08A, size: 0x8, addend: 0x0, symName: '__ZN10slickit_py166_$LT$impl$u20$pyo3..impl_..pyclass..PyMethods$LT$slickit_py..TypedConfig$GT$$u20$for$u20$pyo3..impl_..pyclass..PyClassImplCollector$LT$slickit_py..TypedConfig$GT$$GT$10py_methods5ITEMS17he71fee1573355a76E', symObjAddr: 0x4128, symBinAddr: 0xF8950, symSize: 0x0 }
  - { offsetInCU: 0xA26, offset: 0xB09C, size: 0x8, addend: 0x0, symName: '__ZN10slickit_py166_$LT$impl$u20$pyo3..impl_..pyclass..PyMethods$LT$slickit_py..TypedConfig$GT$$u20$for$u20$pyo3..impl_..pyclass..PyClassImplCollector$LT$slickit_py..TypedConfig$GT$$GT$10py_methods5ITEMS10trampoline17h9a8c349ae76f4e49E', symObjAddr: 0x2B6C, symBinAddr: 0x4614, symSize: 0x4C }
  - { offsetInCU: 0xA6E, offset: 0xB0E4, size: 0x8, addend: 0x0, symName: '__ZN10slickit_py166_$LT$impl$u20$pyo3..impl_..pyclass..PyMethods$LT$slickit_py..TypedConfig$GT$$u20$for$u20$pyo3..impl_..pyclass..PyClassImplCollector$LT$slickit_py..TypedConfig$GT$$GT$10py_methods5ITEMS10trampoline17hf36eea28ae5cd7f9E', symObjAddr: 0x2BB8, symBinAddr: 0x4660, symSize: 0x3C }
  - { offsetInCU: 0xAA2, offset: 0xB118, size: 0x8, addend: 0x0, symName: '__ZN103_$LT$slickit_py..ComponentKind$u20$as$u20$core..convert..From$LT$slick..manifest..ComponentKind$GT$$GT$4from17h1246a55db4120171E', symObjAddr: 0x0, symBinAddr: 0x1AA8, symSize: 0x78 }
  - { offsetInCU: 0xACF, offset: 0xB145, size: 0x8, addend: 0x0, symName: __ZN10slickit_py17to_inner_manifest17h1aa5739ed5625726E, symObjAddr: 0x78, symBinAddr: 0x1B20, symSize: 0x14C }
  - { offsetInCU: 0xAFB, offset: 0xB171, size: 0x8, addend: 0x0, symName: __ZN10slickit_py19from_inner_manifest17hcf5e9015b2991637E, symObjAddr: 0x1C4, symBinAddr: 0x1C6C, symSize: 0xF0 }
  - { offsetInCU: 0xB2D, offset: 0xB1A3, size: 0x8, addend: 0x0, symName: '__ZN75_$LT$slickit_py..ComponentKind$u20$as$u20$pyo3..type_object..PyTypeInfo$GT$15type_object_raw17h40695793dc2d4954E', symObjAddr: 0x2B4, symBinAddr: 0x1D5C, symSize: 0x24 }
  - { offsetInCU: 0xB6A, offset: 0xB1E0, size: 0x8, addend: 0x0, symName: '__ZN76_$LT$slickit_py..ComponentKind$u20$as$u20$pyo3..conversion..IntoPyObject$GT$13into_pyobject17h6e18c3451125d8caE', symObjAddr: 0x2D8, symBinAddr: 0x1D80, symSize: 0x20 }
  - { offsetInCU: 0xBB5, offset: 0xB22B, size: 0x8, addend: 0x0, symName: '__ZN64_$LT$slickit_py..ComponentKind$u20$as$u20$core..clone..Clone$GT$5clone17h31a485ecb873f7aaE', symObjAddr: 0xE90, symBinAddr: 0x2938, symSize: 0x18 }
  - { offsetInCU: 0xBE7, offset: 0xB25D, size: 0x8, addend: 0x0, symName: '__ZN66_$LT$slickit_py..ComponentKind$u20$as$u20$core..cmp..PartialEq$GT$2eq17he45957eb26f4e7ceE', symObjAddr: 0xEA8, symBinAddr: 0x2950, symSize: 0x34 }
  - { offsetInCU: 0xC61, offset: 0xB2D7, size: 0x8, addend: 0x0, symName: '__ZN79_$LT$slickit_py..ComponentManifest$u20$as$u20$pyo3..type_object..PyTypeInfo$GT$15type_object_raw17hfe4ed72f60fea15dE', symObjAddr: 0x130C, symBinAddr: 0x2DB4, symSize: 0x24 }
  - { offsetInCU: 0xC9E, offset: 0xB314, size: 0x8, addend: 0x0, symName: '__ZN80_$LT$slickit_py..ComponentManifest$u20$as$u20$pyo3..conversion..IntoPyObject$GT$13into_pyobject17h6dbbe5aeb734f9c9E', symObjAddr: 0x1330, symBinAddr: 0x2DD8, symSize: 0x1C }
  - { offsetInCU: 0xCEA, offset: 0xB360, size: 0x8, addend: 0x0, symName: '__ZN73_$LT$slickit_py..TypedConfig$u20$as$u20$pyo3..type_object..PyTypeInfo$GT$15type_object_raw17h0f6e00dba599c8ffE', symObjAddr: 0x2830, symBinAddr: 0x42D8, symSize: 0x24 }
  - { offsetInCU: 0xD22, offset: 0xB398, size: 0x8, addend: 0x0, symName: __ZN10slickit_py7_native17h8e905ab98cbbbc5bE, symObjAddr: 0x31A0, symBinAddr: 0x4C48, symSize: 0x14C }
  - { offsetInCU: 0xDB2, offset: 0xB428, size: 0x8, addend: 0x0, symName: '__ZN10slickit_py46_$LT$impl$u20$slickit_py.._native..MakeDef$GT$8make_def15__pyo3_pymodule17hec4fc8c8fa01ac1aE', symObjAddr: 0x32EC, symBinAddr: 0x4D94, symSize: 0x38 }
  - { offsetInCU: 0x4B21, offset: 0xF197, size: 0x8, addend: 0x0, symName: __ZN10slickit_py13ComponentKind18__pymethod_Agent__17h96913f7cee411d59E, symObjAddr: 0x474, symBinAddr: 0x1F1C, symSize: 0x24 }
  - { offsetInCU: 0x4B4E, offset: 0xF1C4, size: 0x8, addend: 0x0, symName: __ZN10slickit_py13ComponentKind23__pymethod_Capability__17hcbea18f2f83a6f07E, symObjAddr: 0x498, symBinAddr: 0x1F40, symSize: 0x28 }
  - { offsetInCU: 0x4B7B, offset: 0xF1F1, size: 0x8, addend: 0x0, symName: __ZN10slickit_py13ComponentKind18__pymethod_Skill__17hd081bd3dce9b2916E, symObjAddr: 0x4C0, symBinAddr: 0x1F68, symSize: 0x28 }
  - { offsetInCU: 0x4BA8, offset: 0xF21E, size: 0x8, addend: 0x0, symName: __ZN10slickit_py13ComponentKind17__pymethod_Flow__17h638bf9562c927c38E, symObjAddr: 0x4E8, symBinAddr: 0x1F90, symSize: 0x28 }
  - { offsetInCU: 0x4BD5, offset: 0xF24B, size: 0x8, addend: 0x0, symName: __ZN10slickit_py13ComponentKind39__pymethod___default___pyo3__repr______17h017ad916cb64aac9E, symObjAddr: 0x510, symBinAddr: 0x1FB8, symSize: 0x12C }
  - { offsetInCU: 0x4C8C, offset: 0xF302, size: 0x8, addend: 0x0, symName: __ZN10slickit_py13ComponentKind38__pymethod___default___pyo3__int______17hd5416e47d4b02127E, symObjAddr: 0x63C, symBinAddr: 0x20E4, symSize: 0x11C }
  - { offsetInCU: 0x4D42, offset: 0xF3B8, size: 0x8, addend: 0x0, symName: __ZN10slickit_py13ComponentKind24__pymethod___richcmp____17hd79930952c3e6f90E, symObjAddr: 0x758, symBinAddr: 0x2200, symSize: 0x2FC }
  - { offsetInCU: 0x4E10, offset: 0xF486, size: 0x8, addend: 0x0, symName: __ZN10slickit_py13ComponentKind21__pymethod___hash____17ha681c76e8bd7cd33E, symObjAddr: 0xA54, symBinAddr: 0x24FC, symSize: 0x180 }
  - { offsetInCU: 0x4EF1, offset: 0xF567, size: 0x8, addend: 0x0, symName: __ZN10slickit_py13ComponentKind14__pyo3__repr__17ha4ff1c79602857cdE, symObjAddr: 0xBD4, symBinAddr: 0x267C, symSize: 0xB0 }
  - { offsetInCU: 0x4F13, offset: 0xF589, size: 0x8, addend: 0x0, symName: __ZN10slickit_py13ComponentKind13__pyo3__int__17hc037749ac8291960E, symObjAddr: 0xC84, symBinAddr: 0x272C, symSize: 0x1C }
  - { offsetInCU: 0x4F42, offset: 0xF5B8, size: 0x8, addend: 0x0, symName: __ZN10slickit_py13ComponentKind30__pyo3__generated____richcmp__17h773cc5542630e8e1E, symObjAddr: 0xCA0, symBinAddr: 0x2748, symSize: 0x1B0 }
  - { offsetInCU: 0x4FDA, offset: 0xF650, size: 0x8, addend: 0x0, symName: __ZN10slickit_py13ComponentKind27__pyo3__generated____hash__17h7a08bf34c0ef8810E, symObjAddr: 0xE50, symBinAddr: 0x28F8, symSize: 0x40 }
  - { offsetInCU: 0x5019, offset: 0xF68F, size: 0x8, addend: 0x0, symName: __ZN10slickit_py13ComponentKind8__repr__17h0e7ef5c06cc9e100E, symObjAddr: 0xEDC, symBinAddr: 0x2984, symSize: 0xB0 }
  - { offsetInCU: 0x503B, offset: 0xF6B1, size: 0x8, addend: 0x0, symName: __ZN10slickit_py13ComponentKind7__str__17h73837db01de70543E, symObjAddr: 0xF8C, symBinAddr: 0x2A34, symSize: 0xB0 }
  - { offsetInCU: 0x505D, offset: 0xF6D3, size: 0x8, addend: 0x0, symName: __ZN10slickit_py13ComponentKind21__pymethod___repr____17h0cf806f59e737ee0E, symObjAddr: 0x10B4, symBinAddr: 0x2B5C, symSize: 0x12C }
  - { offsetInCU: 0x5114, offset: 0xF78A, size: 0x8, addend: 0x0, symName: __ZN10slickit_py13ComponentKind20__pymethod___str____17ha312d0e43e368daeE, symObjAddr: 0x11E0, symBinAddr: 0x2C88, symSize: 0x12C }
  - { offsetInCU: 0x51CB, offset: 0xF841, size: 0x8, addend: 0x0, symName: __ZN10slickit_py17ComponentManifest3new17h0a4bf0b3a585b1b8E, symObjAddr: 0x150C, symBinAddr: 0x2FB4, symSize: 0xFC }
  - { offsetInCU: 0x5236, offset: 0xF8AC, size: 0x8, addend: 0x0, symName: __ZN10slickit_py17ComponentManifest7to_json17h99eda5eb087a33b0E, symObjAddr: 0x1608, symBinAddr: 0x30B0, symSize: 0x80 }
  - { offsetInCU: 0x526D, offset: 0xF8E3, size: 0x8, addend: 0x0, symName: __ZN10slickit_py17ComponentManifest9from_json17h59be9ad00f9b2e6cE, symObjAddr: 0x1688, symBinAddr: 0x3130, symSize: 0x160 }
  - { offsetInCU: 0x52E1, offset: 0xF957, size: 0x8, addend: 0x0, symName: __ZN10slickit_py17ComponentManifest8__repr__17hc75319df2ac4ec71E, symObjAddr: 0x17E8, symBinAddr: 0x3290, symSize: 0xA8 }
  - { offsetInCU: 0x535C, offset: 0xF9D2, size: 0x8, addend: 0x0, symName: __ZN10slickit_py17ComponentManifest20__pymethod___new____17h461dd1d54a861b86E, symObjAddr: 0x19AC, symBinAddr: 0x3454, symSize: 0x7A0 }
  - { offsetInCU: 0x55EB, offset: 0xFC61, size: 0x8, addend: 0x0, symName: __ZN10slickit_py17ComponentManifest20__pymethod_to_json__17hf8cc1881f6fe9c09E, symObjAddr: 0x214C, symBinAddr: 0x3BF4, symSize: 0x290 }
  - { offsetInCU: 0x56D0, offset: 0xFD46, size: 0x8, addend: 0x0, symName: __ZN10slickit_py17ComponentManifest22__pymethod_from_json__17h0e155edbafa2805eE, symObjAddr: 0x23DC, symBinAddr: 0x3E84, symSize: 0x2EC }
  - { offsetInCU: 0x5839, offset: 0xFEAF, size: 0x8, addend: 0x0, symName: __ZN10slickit_py17ComponentManifest21__pymethod___repr____17h274d95470c7c1424E, symObjAddr: 0x26C8, symBinAddr: 0x4170, symSize: 0x168 }
  - { offsetInCU: 0x58EE, offset: 0xFF64, size: 0x8, addend: 0x0, symName: __ZN10slickit_py11TypedConfig3new17h5623dcf9519b8735E, symObjAddr: 0x2954, symBinAddr: 0x43FC, symSize: 0x1AC }
  - { offsetInCU: 0x5969, offset: 0xFFDF, size: 0x8, addend: 0x0, symName: __ZN10slickit_py11TypedConfig8__repr__17he4a20fe6638a505eE, symObjAddr: 0x2B00, symBinAddr: 0x45A8, symSize: 0x6C }
  - { offsetInCU: 0x59C5, offset: 0x1003B, size: 0x8, addend: 0x0, symName: __ZN10slickit_py11TypedConfig20__pymethod___new____17hf0c712e4e6870ecfE, symObjAddr: 0x2BF4, symBinAddr: 0x469C, symSize: 0x444 }
  - { offsetInCU: 0x5B7E, offset: 0x101F4, size: 0x8, addend: 0x0, symName: __ZN10slickit_py11TypedConfig21__pymethod___repr____17ha00d1dfde716e744E, symObjAddr: 0x3038, symBinAddr: 0x4AE0, symSize: 0x168 }
  - { offsetInCU: 0x1E, offset: 0x10785, size: 0x8, addend: 0x0, symName: __ZN8pyo3_ffi7cpython10listobject15PyList_SET_ITEM17h8e1e3ef78b63ddedE, symObjAddr: 0x0, symBinAddr: 0x4DCC, symSize: 0x110 }
  - { offsetInCU: 0x600, offset: 0x10D67, size: 0x8, addend: 0x0, symName: __ZN8pyo3_ffi7cpython10listobject15PyList_SET_ITEM17h8e1e3ef78b63ddedE, symObjAddr: 0x0, symBinAddr: 0x4DCC, symSize: 0x110 }
  - { offsetInCU: 0x1E, offset: 0x11D3F, size: 0x8, addend: 0x0, symName: __ZN10serde_core2de10EnumAccess7variant17h7da932a1f16cacccE, symObjAddr: 0x0, symBinAddr: 0x4EDC, symSize: 0x24 }
  - { offsetInCU: 0xB3, offset: 0x11DD4, size: 0x8, addend: 0x0, symName: __ZN10serde_core2de10EnumAccess7variant17h7da932a1f16cacccE, symObjAddr: 0x0, symBinAddr: 0x4EDC, symSize: 0x24 }
  - { offsetInCU: 0xF3, offset: 0x11E14, size: 0x8, addend: 0x0, symName: __ZN10serde_core2de10EnumAccess7variant17hf7b0e380f24a4017E, symObjAddr: 0x24, symBinAddr: 0x4F00, symSize: 0x24 }
  - { offsetInCU: 0x139, offset: 0x11E5A, size: 0x8, addend: 0x0, symName: __ZN10serde_core2de9MapAccess10next_value17h15d57baa0803987bE, symObjAddr: 0x48, symBinAddr: 0x4F24, symSize: 0x24 }
  - { offsetInCU: 0x179, offset: 0x11E9A, size: 0x8, addend: 0x0, symName: __ZN10serde_core2de9MapAccess10next_value17h444ec40ba051ac13E, symObjAddr: 0x6C, symBinAddr: 0x4F48, symSize: 0x24 }
  - { offsetInCU: 0x1B9, offset: 0x11EDA, size: 0x8, addend: 0x0, symName: __ZN10serde_core2de9MapAccess10next_value17hdbfb7471988d34cdE, symObjAddr: 0x90, symBinAddr: 0x4F6C, symSize: 0x24 }
  - { offsetInCU: 0x1F9, offset: 0x11F1A, size: 0x8, addend: 0x0, symName: __ZN10serde_core2de9MapAccess10next_value17he14b7e6fcf3a0be4E, symObjAddr: 0xB4, symBinAddr: 0x4F90, symSize: 0x24 }
  - { offsetInCU: 0x239, offset: 0x11F5A, size: 0x8, addend: 0x0, symName: __ZN10serde_core2de9MapAccess10next_value17hf6781e4d544b642dE, symObjAddr: 0xD8, symBinAddr: 0x4FB4, symSize: 0x24 }
  - { offsetInCU: 0x279, offset: 0x11F9A, size: 0x8, addend: 0x0, symName: __ZN10serde_core2de9MapAccess8next_key17ha153dcedeba1ce32E, symObjAddr: 0xFC, symBinAddr: 0x4FD8, symSize: 0x24 }
  - { offsetInCU: 0x2BF, offset: 0x11FE0, size: 0x8, addend: 0x0, symName: __ZN10serde_core2de9SeqAccess12next_element17h3c8ff63597164446E, symObjAddr: 0x120, symBinAddr: 0x4FFC, symSize: 0x24 }
  - { offsetInCU: 0x2FF, offset: 0x12020, size: 0x8, addend: 0x0, symName: __ZN10serde_core2de9SeqAccess12next_element17h5172ea94383b711bE, symObjAddr: 0x144, symBinAddr: 0x5020, symSize: 0x24 }
  - { offsetInCU: 0x33F, offset: 0x12060, size: 0x8, addend: 0x0, symName: __ZN10serde_core2de9SeqAccess12next_element17hbd4a8af10dfece38E, symObjAddr: 0x168, symBinAddr: 0x5044, symSize: 0x24 }
  - { offsetInCU: 0x37F, offset: 0x120A0, size: 0x8, addend: 0x0, symName: __ZN10serde_core2de9SeqAccess12next_element17hd9e127f429fc3f07E, symObjAddr: 0x18C, symBinAddr: 0x5068, symSize: 0x24 }
  - { offsetInCU: 0x3BF, offset: 0x120E0, size: 0x8, addend: 0x0, symName: __ZN10serde_core2de9SeqAccess9size_hint17hf87c080aa8edb1acE, symObjAddr: 0x1B0, symBinAddr: 0x508C, symSize: 0x1C }
  - { offsetInCU: 0x1556, offset: 0x13277, size: 0x8, addend: 0x0, symName: __ZN10serde_json2de10from_trait17h3fbe278935c52d5aE, symObjAddr: 0x1CC, symBinAddr: 0x50A8, symSize: 0x17C }
  - { offsetInCU: 0x1769, offset: 0x1348A, size: 0x8, addend: 0x0, symName: __ZN10serde_json2de8from_str17haa6d4b13b582271cE, symObjAddr: 0x101C, symBinAddr: 0x5EF8, symSize: 0x40 }
  - { offsetInCU: 0x17A5, offset: 0x134C6, size: 0x8, addend: 0x0, symName: '__ZN80_$LT$serde_json..de..MapAccess$LT$R$GT$$u20$as$u20$serde_core..de..MapAccess$GT$13next_key_seed17h531d31f4dd8f54efE', symObjAddr: 0x105C, symBinAddr: 0x5F38, symSize: 0x144 }
  - { offsetInCU: 0x1830, offset: 0x13551, size: 0x8, addend: 0x0, symName: '__ZN80_$LT$serde_json..de..MapAccess$LT$R$GT$$u20$as$u20$serde_core..de..MapAccess$GT$15next_value_seed17h230b621114d33600E', symObjAddr: 0x11A0, symBinAddr: 0x607C, symSize: 0xC0 }
  - { offsetInCU: 0x189D, offset: 0x135BE, size: 0x8, addend: 0x0, symName: '__ZN80_$LT$serde_json..de..MapAccess$LT$R$GT$$u20$as$u20$serde_core..de..MapAccess$GT$15next_value_seed17h57af2d455fc30307E', symObjAddr: 0x1260, symBinAddr: 0x613C, symSize: 0xC0 }
  - { offsetInCU: 0x190A, offset: 0x1362B, size: 0x8, addend: 0x0, symName: '__ZN80_$LT$serde_json..de..MapAccess$LT$R$GT$$u20$as$u20$serde_core..de..MapAccess$GT$15next_value_seed17h80362aa1776d02a5E', symObjAddr: 0x1320, symBinAddr: 0x61FC, symSize: 0xBC }
  - { offsetInCU: 0x1977, offset: 0x13698, size: 0x8, addend: 0x0, symName: '__ZN80_$LT$serde_json..de..MapAccess$LT$R$GT$$u20$as$u20$serde_core..de..MapAccess$GT$15next_value_seed17hcdb597fa778dd2d3E', symObjAddr: 0x13DC, symBinAddr: 0x62B8, symSize: 0xC0 }
  - { offsetInCU: 0x19E4, offset: 0x13705, size: 0x8, addend: 0x0, symName: '__ZN80_$LT$serde_json..de..MapAccess$LT$R$GT$$u20$as$u20$serde_core..de..MapAccess$GT$15next_value_seed17heeb254b5e799e7e1E', symObjAddr: 0x149C, symBinAddr: 0x6378, symSize: 0xC0 }
  - { offsetInCU: 0x1A57, offset: 0x13778, size: 0x8, addend: 0x0, symName: '__ZN80_$LT$serde_json..de..MapKey$LT$R$GT$$u20$as$u20$serde_core..de..Deserializer$GT$15deserialize_any17he38fea0af0d2e7a7E', symObjAddr: 0x155C, symBinAddr: 0x6438, symSize: 0x11C }
  - { offsetInCU: 0x1AF8, offset: 0x13819, size: 0x8, addend: 0x0, symName: '__ZN80_$LT$serde_json..de..MapKey$LT$R$GT$$u20$as$u20$serde_core..de..Deserializer$GT$22deserialize_identifier17hf5fdd680fcca2348E', symObjAddr: 0x1678, symBinAddr: 0x6554, symSize: 0x24 }
  - { offsetInCU: 0x1B4A, offset: 0x1386B, size: 0x8, addend: 0x0, symName: '__ZN80_$LT$serde_json..de..SeqAccess$LT$R$GT$$u20$as$u20$serde_core..de..SeqAccess$GT$17next_element_seed17h25a4c097cacebb19E', symObjAddr: 0x169C, symBinAddr: 0x6578, symSize: 0x170 }
  - { offsetInCU: 0x1BD5, offset: 0x138F6, size: 0x8, addend: 0x0, symName: '__ZN80_$LT$serde_json..de..SeqAccess$LT$R$GT$$u20$as$u20$serde_core..de..SeqAccess$GT$17next_element_seed17h7b0566ee1eb4f350E', symObjAddr: 0x180C, symBinAddr: 0x66E8, symSize: 0x144 }
  - { offsetInCU: 0x1C60, offset: 0x13981, size: 0x8, addend: 0x0, symName: '__ZN80_$LT$serde_json..de..SeqAccess$LT$R$GT$$u20$as$u20$serde_core..de..SeqAccess$GT$17next_element_seed17had8e4d9a86fd1198E', symObjAddr: 0x1950, symBinAddr: 0x682C, symSize: 0x170 }
  - { offsetInCU: 0x1CEB, offset: 0x13A0C, size: 0x8, addend: 0x0, symName: '__ZN80_$LT$serde_json..de..SeqAccess$LT$R$GT$$u20$as$u20$serde_core..de..SeqAccess$GT$17next_element_seed17hb032948088c4daebE', symObjAddr: 0x1AC0, symBinAddr: 0x699C, symSize: 0x178 }
  - { offsetInCU: 0x1D7C, offset: 0x13A9D, size: 0x8, addend: 0x0, symName: '__ZN85_$LT$serde_json..de..VariantAccess$LT$R$GT$$u20$as$u20$serde_core..de..EnumAccess$GT$12variant_seed17hb5944d08c7210d8bE', symObjAddr: 0x1C38, symBinAddr: 0x6B14, symSize: 0xDC }
  - { offsetInCU: 0x1E41, offset: 0x13B62, size: 0x8, addend: 0x0, symName: '__ZN88_$LT$serde_json..de..VariantAccess$LT$R$GT$$u20$as$u20$serde_core..de..VariantAccess$GT$12unit_variant17h816c6754730eb434E', symObjAddr: 0x1D14, symBinAddr: 0x6BF0, symSize: 0x24 }
  - { offsetInCU: 0x1E7E, offset: 0x13B9F, size: 0x8, addend: 0x0, symName: '__ZN89_$LT$serde_json..de..UnitVariantAccess$LT$R$GT$$u20$as$u20$serde_core..de..EnumAccess$GT$12variant_seed17h17c255fbc245dadaE', symObjAddr: 0x1D38, symBinAddr: 0x6C14, symSize: 0x70 }
  - { offsetInCU: 0x1F0F, offset: 0x13C30, size: 0x8, addend: 0x0, symName: '__ZN92_$LT$serde_json..de..UnitVariantAccess$LT$R$GT$$u20$as$u20$serde_core..de..VariantAccess$GT$12unit_variant17h7a5866e0c332d11aE', symObjAddr: 0x1DA8, symBinAddr: 0x6C84, symSize: 0x18 }
  - { offsetInCU: 0x1F4C, offset: 0x13C6D, size: 0x8, addend: 0x0, symName: '__ZN98_$LT$$RF$mut$u20$serde_json..de..Deserializer$LT$R$GT$$u20$as$u20$serde_core..de..Deserializer$GT$15deserialize_seq17h2db9a83cd48d969dE', symObjAddr: 0x1DC0, symBinAddr: 0x6C9C, symSize: 0x564 }
  - { offsetInCU: 0x2071, offset: 0x13D92, size: 0x8, addend: 0x0, symName: '__ZN98_$LT$$RF$mut$u20$serde_json..de..Deserializer$LT$R$GT$$u20$as$u20$serde_core..de..Deserializer$GT$15deserialize_str17h2a978498ac861b3eE', symObjAddr: 0x2324, symBinAddr: 0x7200, symSize: 0x2B0 }
  - { offsetInCU: 0x2195, offset: 0x13EB6, size: 0x8, addend: 0x0, symName: '__ZN98_$LT$$RF$mut$u20$serde_json..de..Deserializer$LT$R$GT$$u20$as$u20$serde_core..de..Deserializer$GT$15deserialize_str17h80074dca2829eb5dE', symObjAddr: 0x25D4, symBinAddr: 0x74B0, symSize: 0x284 }
  - { offsetInCU: 0x22B8, offset: 0x13FD9, size: 0x8, addend: 0x0, symName: '__ZN98_$LT$$RF$mut$u20$serde_json..de..Deserializer$LT$R$GT$$u20$as$u20$serde_core..de..Deserializer$GT$16deserialize_enum17hc3858b8bfcf499bbE', symObjAddr: 0x2858, symBinAddr: 0x7734, symSize: 0x4F8 }
  - { offsetInCU: 0x23CE, offset: 0x140EF, size: 0x8, addend: 0x0, symName: '__ZN98_$LT$$RF$mut$u20$serde_json..de..Deserializer$LT$R$GT$$u20$as$u20$serde_core..de..Deserializer$GT$16deserialize_unit17hc4ed4b3fac4eec73E', symObjAddr: 0x2D50, symBinAddr: 0x7C2C, symSize: 0x1E4 }
  - { offsetInCU: 0x24BA, offset: 0x141DB, size: 0x8, addend: 0x0, symName: '__ZN98_$LT$$RF$mut$u20$serde_json..de..Deserializer$LT$R$GT$$u20$as$u20$serde_core..de..Deserializer$GT$18deserialize_option17h2b848f952f064048E', symObjAddr: 0x2F34, symBinAddr: 0x7E10, symSize: 0x158 }
  - { offsetInCU: 0x2545, offset: 0x14266, size: 0x8, addend: 0x0, symName: '__ZN98_$LT$$RF$mut$u20$serde_json..de..Deserializer$LT$R$GT$$u20$as$u20$serde_core..de..Deserializer$GT$18deserialize_string17h6482e6be4bcc051eE', symObjAddr: 0x308C, symBinAddr: 0x7F68, symSize: 0x24 }
  - { offsetInCU: 0x2594, offset: 0x142B5, size: 0x8, addend: 0x0, symName: '__ZN98_$LT$$RF$mut$u20$serde_json..de..Deserializer$LT$R$GT$$u20$as$u20$serde_core..de..Deserializer$GT$18deserialize_struct17h3529e98e4d047b17E', symObjAddr: 0x30B0, symBinAddr: 0x7F8C, symSize: 0x940 }
  - { offsetInCU: 0x272F, offset: 0x14450, size: 0x8, addend: 0x0, symName: '__ZN98_$LT$$RF$mut$u20$serde_json..de..Deserializer$LT$R$GT$$u20$as$u20$serde_core..de..Deserializer$GT$22deserialize_identifier17h6d6decc5cdedd8d8E', symObjAddr: 0x39F0, symBinAddr: 0x88CC, symSize: 0x24 }
  - { offsetInCU: 0x277E, offset: 0x1449F, size: 0x8, addend: 0x0, symName: '__ZN98_$LT$$RF$mut$u20$serde_json..de..Deserializer$LT$R$GT$$u20$as$u20$serde_core..de..Deserializer$GT$23deserialize_ignored_any17h9d488ac11c584bceE', symObjAddr: 0x3A14, symBinAddr: 0x88F0, symSize: 0xAC }
  - { offsetInCU: 0x2C27, offset: 0x14948, size: 0x8, addend: 0x0, symName: '__ZN10serde_json2de21Deserializer$LT$R$GT$12ignore_value17h7ce7b527ee27b321E', symObjAddr: 0x348, symBinAddr: 0x5224, symSize: 0x790 }
  - { offsetInCU: 0x2E8B, offset: 0x14BAC, size: 0x8, addend: 0x0, symName: '__ZN10serde_json2de21Deserializer$LT$R$GT$14ignore_decimal17h323f53bee2a67ad4E', symObjAddr: 0xAD8, symBinAddr: 0x59B4, symSize: 0x12C }
  - { offsetInCU: 0x2F09, offset: 0x14C2A, size: 0x8, addend: 0x0, symName: '__ZN10serde_json2de21Deserializer$LT$R$GT$14ignore_integer17h3c853465a487c8b7E', symObjAddr: 0xC04, symBinAddr: 0x5AE0, symSize: 0x204 }
  - { offsetInCU: 0x2FAD, offset: 0x14CCE, size: 0x8, addend: 0x0, symName: '__ZN10serde_json2de21Deserializer$LT$R$GT$15ignore_exponent17hc9deda4f1e5f66d0E', symObjAddr: 0xE08, symBinAddr: 0x5CE4, symSize: 0x164 }
  - { offsetInCU: 0x3033, offset: 0x14D54, size: 0x8, addend: 0x0, symName: '__ZN10serde_json2de21Deserializer$LT$R$GT$17next_char_or_null17he175186cc78e5676E', symObjAddr: 0xF6C, symBinAddr: 0x5E48, symSize: 0x88 }
  - { offsetInCU: 0x307C, offset: 0x14D9D, size: 0x8, addend: 0x0, symName: '__ZN10serde_json2de22VariantAccess$LT$R$GT$3new17h4548f7a302ec728bE', symObjAddr: 0xFF4, symBinAddr: 0x5ED0, symSize: 0x14 }
  - { offsetInCU: 0x30A8, offset: 0x14DC9, size: 0x8, addend: 0x0, symName: '__ZN10serde_json2de26UnitVariantAccess$LT$R$GT$3new17hcd2a1bd6c50835e0E', symObjAddr: 0x1008, symBinAddr: 0x5EE4, symSize: 0x14 }
  - { offsetInCU: 0x1E, offset: 0x14EA4, size: 0x8, addend: 0x0, symName: '__ZN10serde_core2de5impls87_$LT$impl$u20$serde_core..de..Deserialize$u20$for$u20$core..option..Option$LT$T$GT$$GT$11deserialize17h3f6db649b1af8a75E', symObjAddr: 0x0, symBinAddr: 0x899C, symSize: 0x28 }
  - { offsetInCU: 0xBDF, offset: 0x15A65, size: 0x8, addend: 0x0, symName: '__ZN4core3ptr9const_ptr33_$LT$impl$u20$$BP$const$u20$T$GT$7is_null17ha3026f7b4af5f399E', symObjAddr: 0xC0, symBinAddr: 0x8A5C, symSize: 0x18 }
  - { offsetInCU: 0xDA5, offset: 0x15C2B, size: 0x8, addend: 0x0, symName: __ZN4core4iter6traits8iterator8Iterator4fold17h835593e0e2e70bdfE, symObjAddr: 0xD8, symBinAddr: 0x8A74, symSize: 0xE4 }
  - { offsetInCU: 0xE84, offset: 0x15D0A, size: 0x8, addend: 0x0, symName: __ZN4core4iter6traits8iterator8Iterator8for_each17hb6c8da307a330f62E, symObjAddr: 0x1BC, symBinAddr: 0x8B58, symSize: 0x3C }
  - { offsetInCU: 0xF4B, offset: 0x15DD1, size: 0x8, addend: 0x0, symName: '__ZN4core5slice29_$LT$impl$u20$$u5b$T$u5d$$GT$15copy_from_slice17h2c8ea551715c67b7E', symObjAddr: 0x1F8, symBinAddr: 0x8B94, symSize: 0xAC }
  - { offsetInCU: 0x1016, offset: 0x15E9C, size: 0x8, addend: 0x0, symName: '__ZN4core5slice29_$LT$impl$u20$$u5b$T$u5d$$GT$18split_at_unchecked17hbe7a66b14b4ca018E', symObjAddr: 0x2A4, symBinAddr: 0x8C40, symSize: 0xEC }
  - { offsetInCU: 0x11A2, offset: 0x16028, size: 0x8, addend: 0x0, symName: '__ZN4core5slice29_$LT$impl$u20$$u5b$T$u5d$$GT$8split_at17h05ea1d7541bbdc92E', symObjAddr: 0x390, symBinAddr: 0x8D2C, symSize: 0xD8 }
  - { offsetInCU: 0x28EA, offset: 0x17770, size: 0x8, addend: 0x0, symName: __ZN4core6option6Option4Some17h21fe2cf3439940ecE, symObjAddr: 0xBF8, symBinAddr: 0x9594, symSize: 0x18 }
  - { offsetInCU: 0x291D, offset: 0x177A3, size: 0x8, addend: 0x0, symName: __ZN4core6option6Option4Some17h9fd13e03651ec43dE, symObjAddr: 0xC10, symBinAddr: 0x95AC, symSize: 0x18 }
  - { offsetInCU: 0x2957, offset: 0x177DD, size: 0x8, addend: 0x0, symName: '__ZN68_$LT$core..option..Option$LT$T$GT$$u20$as$u20$core..clone..Clone$GT$5clone17h934cd6a1ab8a2f13E', symObjAddr: 0xC7C, symBinAddr: 0x9618, symSize: 0x84 }
  - { offsetInCU: 0x29EE, offset: 0x17874, size: 0x8, addend: 0x0, symName: '__ZN90_$LT$core..option..IntoIter$LT$A$GT$$u20$as$u20$core..iter..traits..iterator..Iterator$GT$4next17h9a941f91fccd2b77E', symObjAddr: 0xD30, symBinAddr: 0x96CC, symSize: 0x3C }
  - { offsetInCU: 0x2A66, offset: 0x178EC, size: 0x8, addend: 0x0, symName: '__ZN90_$LT$core..option..IntoIter$LT$A$GT$$u20$as$u20$core..iter..traits..iterator..Iterator$GT$9size_hint17h901c2c2c27058460E', symObjAddr: 0xD6C, symBinAddr: 0x9708, symSize: 0x40 }
  - { offsetInCU: 0x2B57, offset: 0x179DD, size: 0x8, addend: 0x0, symName: '__ZN91_$LT$core..option..Option$LT$T$GT$$u20$as$u20$core..iter..traits..collect..IntoIterator$GT$9into_iter17hbc9775252f3e6fb5E', symObjAddr: 0xDAC, symBinAddr: 0x9748, symSize: 0x14 }
  - { offsetInCU: 0x385D, offset: 0x186E3, size: 0x8, addend: 0x0, symName: '__ZN86_$LT$core..option..Option$LT$T$GT$$u20$as$u20$pyo3..impl_..wrap..SomeWrap$LT$T$GT$$GT$4wrap17h3ea1622abf85237dE', symObjAddr: 0xD00, symBinAddr: 0x969C, symSize: 0x18 }
  - { offsetInCU: 0x3892, offset: 0x18718, size: 0x8, addend: 0x0, symName: '__ZN86_$LT$core..option..Option$LT$T$GT$$u20$as$u20$pyo3..impl_..wrap..SomeWrap$LT$T$GT$$GT$4wrap17h8587891fac83605cE', symObjAddr: 0xD18, symBinAddr: 0x96B4, symSize: 0x18 }
  - { offsetInCU: 0x39E3, offset: 0x18869, size: 0x8, addend: 0x0, symName: '__ZN4pyo311conversions3std6option90_$LT$impl$u20$pyo3..conversion..IntoPyObject$u20$for$u20$core..option..Option$LT$T$GT$$GT$13into_pyobject17h8fe1f909efe44540E', symObjAddr: 0xC28, symBinAddr: 0x95C4, symSize: 0x2C }
  - { offsetInCU: 0x3A37, offset: 0x188BD, size: 0x8, addend: 0x0, symName: '__ZN4pyo311conversions3std6option94_$LT$impl$u20$pyo3..conversion..IntoPyObject$u20$for$u20$$RF$core..option..Option$LT$T$GT$$GT$13into_pyobject17he119eaeac15d43c5E', symObjAddr: 0xC54, symBinAddr: 0x95F0, symSize: 0x28 }
  - { offsetInCU: 0x3BD1, offset: 0x18A57, size: 0x8, addend: 0x0, symName: '__ZN10serde_core2de5impls87_$LT$impl$u20$serde_core..de..Deserialize$u20$for$u20$core..option..Option$LT$T$GT$$GT$11deserialize17h3f6db649b1af8a75E', symObjAddr: 0x0, symBinAddr: 0x899C, symSize: 0x28 }
  - { offsetInCU: 0x3C11, offset: 0x18A97, size: 0x8, addend: 0x0, symName: '__ZN10serde_core2de5impls87_$LT$impl$u20$serde_core..de..Deserialize$u20$for$u20$core..option..Option$LT$T$GT$$GT$11deserialize17h7574c8018765888fE', symObjAddr: 0x28, symBinAddr: 0x89C4, symSize: 0x24 }
  - { offsetInCU: 0x3C63, offset: 0x18AE9, size: 0x8, addend: 0x0, symName: '__ZN10serde_core3ser5impls86_$LT$impl$u20$serde_core..ser..Serialize$u20$for$u20$core..option..Option$LT$T$GT$$GT$9serialize17h616f6f3686261b88E', symObjAddr: 0x4C, symBinAddr: 0x89E8, symSize: 0x74 }
  - { offsetInCU: 0x4664, offset: 0x194EA, size: 0x8, addend: 0x0, symName: '__ZN4core6option15Option$LT$T$GT$10ok_or_else17hf8f78a2bdd6338a9E', symObjAddr: 0x468, symBinAddr: 0x8E04, symSize: 0x80 }
  - { offsetInCU: 0x46F6, offset: 0x1957C, size: 0x8, addend: 0x0, symName: '__ZN4core6option15Option$LT$T$GT$11map_or_else17h8578c39ac148ec36E', symObjAddr: 0x4E8, symBinAddr: 0x8E84, symSize: 0xDC }
  - { offsetInCU: 0x4771, offset: 0x195F7, size: 0x8, addend: 0x0, symName: '__ZN4core6option15Option$LT$T$GT$17unwrap_or_default17h97076f6bd322a5f7E', symObjAddr: 0x5C4, symBinAddr: 0x8F60, symSize: 0x70 }
  - { offsetInCU: 0x47C9, offset: 0x1964F, size: 0x8, addend: 0x0, symName: '__ZN4core6option15Option$LT$T$GT$3map17h3ea6066af4ef6b23E', symObjAddr: 0x634, symBinAddr: 0x8FD0, symSize: 0x50 }
  - { offsetInCU: 0x4841, offset: 0x196C7, size: 0x8, addend: 0x0, symName: '__ZN4core6option15Option$LT$T$GT$3map17h769bdc6b954ea909E', symObjAddr: 0x684, symBinAddr: 0x9020, symSize: 0x50 }
  - { offsetInCU: 0x48AC, offset: 0x19732, size: 0x8, addend: 0x0, symName: '__ZN4core6option15Option$LT$T$GT$3map17h7c9aba7a2613cbceE', symObjAddr: 0x6D4, symBinAddr: 0x9070, symSize: 0x5C }
  - { offsetInCU: 0x4969, offset: 0x197EF, size: 0x8, addend: 0x0, symName: '__ZN4core6option15Option$LT$T$GT$4take17h38a0e976af42a1f5E', symObjAddr: 0x730, symBinAddr: 0x90CC, symSize: 0x40 }
  - { offsetInCU: 0x49C0, offset: 0x19846, size: 0x8, addend: 0x0, symName: '__ZN4core6option15Option$LT$T$GT$4take17h732e13977a185ea7E', symObjAddr: 0x770, symBinAddr: 0x910C, symSize: 0x3C }
  - { offsetInCU: 0x4A17, offset: 0x1989D, size: 0x8, addend: 0x0, symName: '__ZN4core6option15Option$LT$T$GT$6as_ref17hded8aa050cdd5631E', symObjAddr: 0x7AC, symBinAddr: 0x9148, symSize: 0x50 }
  - { offsetInCU: 0x4A8C, offset: 0x19912, size: 0x8, addend: 0x0, symName: '__ZN4core6option15Option$LT$T$GT$6expect17h00b49536256753dcE', symObjAddr: 0x7FC, symBinAddr: 0x9198, symSize: 0x5C }
  - { offsetInCU: 0x4B37, offset: 0x199BD, size: 0x8, addend: 0x0, symName: '__ZN4core6option15Option$LT$T$GT$6insert17h122316efa457a124E', symObjAddr: 0x858, symBinAddr: 0x91F4, symSize: 0xAC }
  - { offsetInCU: 0x4C39, offset: 0x19ABF, size: 0x8, addend: 0x0, symName: '__ZN4core6option15Option$LT$T$GT$6insert17h2285a38d959c936fE', symObjAddr: 0x904, symBinAddr: 0x92A0, symSize: 0xAC }
  - { offsetInCU: 0x4D3B, offset: 0x19BC1, size: 0x8, addend: 0x0, symName: '__ZN4core6option15Option$LT$T$GT$6insert17hf11593df68a1cb2dE', symObjAddr: 0x9B0, symBinAddr: 0x934C, symSize: 0xAC }
  - { offsetInCU: 0x4DE9, offset: 0x19C6F, size: 0x8, addend: 0x0, symName: '__ZN4core6option15Option$LT$T$GT$7is_none17hb896ceb9d1448e23E', symObjAddr: 0xA5C, symBinAddr: 0x93F8, symSize: 0x2C }
  - { offsetInCU: 0x4E40, offset: 0x19CC6, size: 0x8, addend: 0x0, symName: '__ZN4core6option15Option$LT$T$GT$7is_some17h18149f7ec0e28981E', symObjAddr: 0xA88, symBinAddr: 0x9424, symSize: 0x28 }
  - { offsetInCU: 0x4E79, offset: 0x19CFF, size: 0x8, addend: 0x0, symName: '__ZN4core6option15Option$LT$T$GT$7is_some17h1cda8ed1c323c755E', symObjAddr: 0xAB0, symBinAddr: 0x944C, symSize: 0x28 }
  - { offsetInCU: 0x4EA5, offset: 0x19D2B, size: 0x8, addend: 0x0, symName: '__ZN4core6option15Option$LT$T$GT$7is_some17h29e1e4832e240db3E', symObjAddr: 0xAD8, symBinAddr: 0x9474, symSize: 0x2C }
  - { offsetInCU: 0x4EDE, offset: 0x19D64, size: 0x8, addend: 0x0, symName: '__ZN4core6option15Option$LT$T$GT$7is_some17ha0d2c5fa0afd9bbaE', symObjAddr: 0xB04, symBinAddr: 0x94A0, symSize: 0x2C }
  - { offsetInCU: 0x4F17, offset: 0x19D9D, size: 0x8, addend: 0x0, symName: '__ZN4core6option15Option$LT$T$GT$7is_some17hba7451eeac9524b9E', symObjAddr: 0xB30, symBinAddr: 0x94CC, symSize: 0x2C }
  - { offsetInCU: 0x4F50, offset: 0x19DD6, size: 0x8, addend: 0x0, symName: '__ZN4core6option15Option$LT$T$GT$7replace17ha2ea0c8a934c3d72E', symObjAddr: 0xB5C, symBinAddr: 0x94F8, symSize: 0x30 }
  - { offsetInCU: 0x5038, offset: 0x19EBE, size: 0x8, addend: 0x0, symName: '__ZN4core6option15Option$LT$T$GT$8as_deref17habc311657e8c6f10E', symObjAddr: 0xB8C, symBinAddr: 0x9528, symSize: 0x6C }
  - { offsetInCU: 0x1E, offset: 0x1A463, size: 0x8, addend: 0x0, symName: '__ZN71_$LT$alloc..borrow..Cow$LT$B$GT$$u20$as$u20$core..ops..deref..Deref$GT$5deref17h0cfdf9a08c0bdb80E', symObjAddr: 0x0, symBinAddr: 0x975C, symSize: 0x78 }
  - { offsetInCU: 0x3A, offset: 0x1A47F, size: 0x8, addend: 0x0, symName: '__ZN71_$LT$alloc..borrow..Cow$LT$B$GT$$u20$as$u20$core..ops..deref..Deref$GT$5deref17h0cfdf9a08c0bdb80E', symObjAddr: 0x0, symBinAddr: 0x975C, symSize: 0x78 }
  - { offsetInCU: 0x1E, offset: 0x1A64D, size: 0x8, addend: 0x0, symName: '__ZN118_$LT$pyo3..impl_..pyclass..SendablePyClass$LT$T$GT$$u20$as$u20$pyo3..impl_..pyclass..PyClassThreadChecker$LT$T$GT$$GT$3new17h17f4025a9915e896E', symObjAddr: 0x0, symBinAddr: 0x97D4, symSize: 0x4 }
  - { offsetInCU: 0x1AD6, offset: 0x1C105, size: 0x8, addend: 0x0, symName: '__ZN118_$LT$pyo3..impl_..pyclass..SendablePyClass$LT$T$GT$$u20$as$u20$pyo3..impl_..pyclass..PyClassThreadChecker$LT$T$GT$$GT$3new17h17f4025a9915e896E', symObjAddr: 0x0, symBinAddr: 0x97D4, symSize: 0x4 }
  - { offsetInCU: 0x1AFA, offset: 0x1C129, size: 0x8, addend: 0x0, symName: '__ZN118_$LT$pyo3..impl_..pyclass..SendablePyClass$LT$T$GT$$u20$as$u20$pyo3..impl_..pyclass..PyClassThreadChecker$LT$T$GT$$GT$3new17hb0a293ba7eded6b9E', symObjAddr: 0x4, symBinAddr: 0x97D8, symSize: 0x4 }
  - { offsetInCU: 0x1B1E, offset: 0x1C14D, size: 0x8, addend: 0x0, symName: '__ZN118_$LT$pyo3..impl_..pyclass..SendablePyClass$LT$T$GT$$u20$as$u20$pyo3..impl_..pyclass..PyClassThreadChecker$LT$T$GT$$GT$3new17hfa1f34bec951dfd2E', symObjAddr: 0x8, symBinAddr: 0x97DC, symSize: 0x4 }
  - { offsetInCU: 0x1B42, offset: 0x1C171, size: 0x8, addend: 0x0, symName: '__ZN118_$LT$pyo3..impl_..pyclass..SendablePyClass$LT$T$GT$$u20$as$u20$pyo3..impl_..pyclass..PyClassThreadChecker$LT$T$GT$$GT$6ensure17h0ca6bfe1c1e14192E', symObjAddr: 0xC, symBinAddr: 0x97E0, symSize: 0x10 }
  - { offsetInCU: 0x1B75, offset: 0x1C1A4, size: 0x8, addend: 0x0, symName: '__ZN118_$LT$pyo3..impl_..pyclass..SendablePyClass$LT$T$GT$$u20$as$u20$pyo3..impl_..pyclass..PyClassThreadChecker$LT$T$GT$$GT$6ensure17h117d35e8b7eadebcE', symObjAddr: 0x1C, symBinAddr: 0x97F0, symSize: 0x10 }
  - { offsetInCU: 0x1BA8, offset: 0x1C1D7, size: 0x8, addend: 0x0, symName: '__ZN118_$LT$pyo3..impl_..pyclass..SendablePyClass$LT$T$GT$$u20$as$u20$pyo3..impl_..pyclass..PyClassThreadChecker$LT$T$GT$$GT$6ensure17hf62028cc9ae191b2E', symObjAddr: 0x2C, symBinAddr: 0x9800, symSize: 0x10 }
  - { offsetInCU: 0x1BDB, offset: 0x1C20A, size: 0x8, addend: 0x0, symName: '__ZN118_$LT$pyo3..impl_..pyclass..SendablePyClass$LT$T$GT$$u20$as$u20$pyo3..impl_..pyclass..PyClassThreadChecker$LT$T$GT$$GT$8can_drop17h0dd2a70ee1ee79ecE', symObjAddr: 0x3C, symBinAddr: 0x9810, symSize: 0x18 }
  - { offsetInCU: 0x1C2D, offset: 0x1C25C, size: 0x8, addend: 0x0, symName: '__ZN118_$LT$pyo3..impl_..pyclass..SendablePyClass$LT$T$GT$$u20$as$u20$pyo3..impl_..pyclass..PyClassThreadChecker$LT$T$GT$$GT$8can_drop17h597fedd065431e1bE', symObjAddr: 0x54, symBinAddr: 0x9828, symSize: 0x18 }
  - { offsetInCU: 0x1C7F, offset: 0x1C2AE, size: 0x8, addend: 0x0, symName: '__ZN118_$LT$pyo3..impl_..pyclass..SendablePyClass$LT$T$GT$$u20$as$u20$pyo3..impl_..pyclass..PyClassThreadChecker$LT$T$GT$$GT$8can_drop17hccbf8b97e96c3847E', symObjAddr: 0x6C, symBinAddr: 0x9840, symSize: 0x18 }
  - { offsetInCU: 0x1CD7, offset: 0x1C306, size: 0x8, addend: 0x0, symName: '__ZN130_$LT$$RF$pyo3..impl_..pyclass..PyClassImplCollector$LT$T$GT$$u20$as$u20$pyo3..impl_..pyclass..PyClassNewTextSignature$LT$T$GT$$GT$18new_text_signature17h7e45ec04e5d9aecdE', symObjAddr: 0x84, symBinAddr: 0x9858, symSize: 0x1C }
  - { offsetInCU: 0x1D0F, offset: 0x1C33E, size: 0x8, addend: 0x0, symName: __ZN4pyo35impl_7pyclass10tp_dealloc17h3e689ee775c3daedE, symObjAddr: 0xA0, symBinAddr: 0x9874, symSize: 0x34 }
  - { offsetInCU: 0x1D42, offset: 0x1C371, size: 0x8, addend: 0x0, symName: __ZN4pyo35impl_7pyclass10tp_dealloc17h4ef3c334a435226bE, symObjAddr: 0xD4, symBinAddr: 0x98A8, symSize: 0x34 }
  - { offsetInCU: 0x1D75, offset: 0x1C3A4, size: 0x8, addend: 0x0, symName: __ZN4pyo35impl_7pyclass10tp_dealloc17h663a7f5cb4bdbeeeE, symObjAddr: 0x108, symBinAddr: 0x98DC, symSize: 0x34 }
  - { offsetInCU: 0x1DAD, offset: 0x1C3DC, size: 0x8, addend: 0x0, symName: __ZN4pyo35impl_7pyclass11PyClassDict10clear_dict17h79350919a3dc3d60E, symObjAddr: 0x13C, symBinAddr: 0x9910, symSize: 0x10 }
  - { offsetInCU: 0x1DF8, offset: 0x1C427, size: 0x8, addend: 0x0, symName: __ZN4pyo35impl_7pyclass12class_offset17h358be39b98702690E, symObjAddr: 0x14C, symBinAddr: 0x9920, symSize: 0xC }
  - { offsetInCU: 0x1E20, offset: 0x1C44F, size: 0x8, addend: 0x0, symName: __ZN4pyo35impl_7pyclass12class_offset17h4b1226ce0e8c4001E, symObjAddr: 0x158, symBinAddr: 0x992C, symSize: 0xC }
  - { offsetInCU: 0x1E4D, offset: 0x1C47C, size: 0x8, addend: 0x0, symName: __ZN4pyo35impl_7pyclass14PyClassWeakRef14clear_weakrefs17h0d98ba6da13d9938E, symObjAddr: 0x164, symBinAddr: 0x9938, symSize: 0x14 }
  - { offsetInCU: 0x1EA6, offset: 0x1C4D5, size: 0x8, addend: 0x0, symName: __ZN4pyo35impl_7pyclass17field_from_object17h10844eba643f8d17E, symObjAddr: 0x178, symBinAddr: 0x994C, symSize: 0x40 }
  - { offsetInCU: 0x1F15, offset: 0x1C544, size: 0x8, addend: 0x0, symName: __ZN4pyo35impl_7pyclass17field_from_object17h19865ae1f1adaa03E, symObjAddr: 0x1B8, symBinAddr: 0x998C, symSize: 0x40 }
  - { offsetInCU: 0x1F84, offset: 0x1C5B3, size: 0x8, addend: 0x0, symName: __ZN4pyo35impl_7pyclass17field_from_object17h47987d1c3619fa87E, symObjAddr: 0x1F8, symBinAddr: 0x99CC, symSize: 0x40 }
  - { offsetInCU: 0x1FF3, offset: 0x1C622, size: 0x8, addend: 0x0, symName: __ZN4pyo35impl_7pyclass17field_from_object17h78127b9179e33619E, symObjAddr: 0x238, symBinAddr: 0x9A0C, symSize: 0x40 }
  - { offsetInCU: 0x2062, offset: 0x1C691, size: 0x8, addend: 0x0, symName: __ZN4pyo35impl_7pyclass17field_from_object17hb6afa849d8777649E, symObjAddr: 0x278, symBinAddr: 0x9A4C, symSize: 0x40 }
  - { offsetInCU: 0x20D1, offset: 0x1C700, size: 0x8, addend: 0x0, symName: __ZN4pyo35impl_7pyclass17field_from_object17hd6f37847494742c1E, symObjAddr: 0x2B8, symBinAddr: 0x9A8C, symSize: 0x40 }
  - { offsetInCU: 0x2140, offset: 0x1C76F, size: 0x8, addend: 0x0, symName: __ZN4pyo35impl_7pyclass17field_from_object17hd72f859394aa5651E, symObjAddr: 0x2F8, symBinAddr: 0x9ACC, symSize: 0x40 }
  - { offsetInCU: 0x21AF, offset: 0x1C7DE, size: 0x8, addend: 0x0, symName: __ZN4pyo35impl_7pyclass18tp_dealloc_with_gc17h28389aa15fb3370aE, symObjAddr: 0x338, symBinAddr: 0x9B0C, symSize: 0x4C }
  - { offsetInCU: 0x2200, offset: 0x1C82F, size: 0x8, addend: 0x0, symName: __ZN4pyo35impl_7pyclass18tp_dealloc_with_gc17h51a041dd0863ef44E, symObjAddr: 0x384, symBinAddr: 0x9B58, symSize: 0x4C }
  - { offsetInCU: 0x2251, offset: 0x1C880, size: 0x8, addend: 0x0, symName: __ZN4pyo35impl_7pyclass18tp_dealloc_with_gc17h64bdfe54537c64d6E, symObjAddr: 0x3D0, symBinAddr: 0x9BA4, symSize: 0x4C }
  - { offsetInCU: 0x22A2, offset: 0x1C8D1, size: 0x8, addend: 0x0, symName: __ZN4pyo35impl_7pyclass23ensure_no_mutable_alias17h3cf7927e69460d5dE, symObjAddr: 0x41C, symBinAddr: 0x9BF0, symSize: 0x3C }
  - { offsetInCU: 0x22F4, offset: 0x1C923, size: 0x8, addend: 0x0, symName: __ZN4pyo35impl_7pyclass23ensure_no_mutable_alias17hd146207f30f37c1cE, symObjAddr: 0x458, symBinAddr: 0x9C2C, symSize: 0x3C }
  - { offsetInCU: 0x2346, offset: 0x1C975, size: 0x8, addend: 0x0, symName: __ZN4pyo35impl_7pyclass28pyo3_get_value_into_pyobject17h02ea411ca5cc8a7dE, symObjAddr: 0x494, symBinAddr: 0x9C68, symSize: 0x1D4 }
  - { offsetInCU: 0x24CA, offset: 0x1CAF9, size: 0x8, addend: 0x0, symName: __ZN4pyo35impl_7pyclass32pyo3_get_value_into_pyobject_ref17h46014aa097c1e2c8E, symObjAddr: 0x674, symBinAddr: 0x9E48, symSize: 0x1C0 }
  - { offsetInCU: 0x25B5, offset: 0x1CBE4, size: 0x8, addend: 0x0, symName: __ZN4pyo35impl_7pyclass32pyo3_get_value_into_pyobject_ref17h4808e9ffe7f46f66E, symObjAddr: 0x834, symBinAddr: 0xA008, symSize: 0x1C0 }
  - { offsetInCU: 0x26A0, offset: 0x1CCCF, size: 0x8, addend: 0x0, symName: __ZN4pyo35impl_7pyclass32pyo3_get_value_into_pyobject_ref17h6fadf90242805612E, symObjAddr: 0x9F4, symBinAddr: 0xA1C8, symSize: 0x1C0 }
  - { offsetInCU: 0x278B, offset: 0x1CDBA, size: 0x8, addend: 0x0, symName: __ZN4pyo35impl_7pyclass32pyo3_get_value_into_pyobject_ref17h83d9e080c7e8367dE, symObjAddr: 0xBB4, symBinAddr: 0xA388, symSize: 0x1C0 }
  - { offsetInCU: 0x2876, offset: 0x1CEA5, size: 0x8, addend: 0x0, symName: __ZN4pyo35impl_7pyclass32pyo3_get_value_into_pyobject_ref17hb296da694bce614aE, symObjAddr: 0xD74, symBinAddr: 0xA548, symSize: 0x1C0 }
  - { offsetInCU: 0x2961, offset: 0x1CF90, size: 0x8, addend: 0x0, symName: __ZN4pyo35impl_7pyclass32pyo3_get_value_into_pyobject_ref17hca8a8a16c9394b43E, symObjAddr: 0xF34, symBinAddr: 0xA708, symSize: 0x1C0 }
  - { offsetInCU: 0x3867, offset: 0x1DE96, size: 0x8, addend: 0x0, symName: '__ZN4pyo35impl_7pyclass29PyClassImplCollector$LT$T$GT$3new17h54a78b7796834341E', symObjAddr: 0x668, symBinAddr: 0x9E3C, symSize: 0x4 }
  - { offsetInCU: 0x3884, offset: 0x1DEB3, size: 0x8, addend: 0x0, symName: '__ZN4pyo35impl_7pyclass29PyClassImplCollector$LT$T$GT$3new17h9faea5f52e9bfed2E', symObjAddr: 0x66C, symBinAddr: 0x9E40, symSize: 0x4 }
  - { offsetInCU: 0x38A1, offset: 0x1DED0, size: 0x8, addend: 0x0, symName: '__ZN4pyo35impl_7pyclass29PyClassImplCollector$LT$T$GT$3new17hf9b7b6720b73dc29E', symObjAddr: 0x670, symBinAddr: 0x9E44, symSize: 0x4 }
  - { offsetInCU: 0x3BA5, offset: 0x1E1D4, size: 0x8, addend: 0x0, symName: '__ZN4pyo35impl_7pyclass66PyClassGetterGenerator$LT$ClassT$C$FieldT$C$Offset$C$_$C$_$C$_$GT$8generate17h0872788f8c3373ebE', symObjAddr: 0x10F4, symBinAddr: 0xA8C8, symSize: 0x78 }
  - { offsetInCU: 0x3C37, offset: 0x1E266, size: 0x8, addend: 0x0, symName: '__ZN4pyo35impl_7pyclass66PyClassGetterGenerator$LT$ClassT$C$FieldT$C$Offset$C$_$C$_$C$_$GT$8generate17h0bffa7ec30885ae4E', symObjAddr: 0x116C, symBinAddr: 0xA940, symSize: 0x78 }
  - { offsetInCU: 0x3CC9, offset: 0x1E2F8, size: 0x8, addend: 0x0, symName: '__ZN4pyo35impl_7pyclass66PyClassGetterGenerator$LT$ClassT$C$FieldT$C$Offset$C$_$C$_$C$_$GT$8generate17h2d147adbfe0025d5E', symObjAddr: 0x11E4, symBinAddr: 0xA9B8, symSize: 0x78 }
  - { offsetInCU: 0x3D5B, offset: 0x1E38A, size: 0x8, addend: 0x0, symName: '__ZN4pyo35impl_7pyclass66PyClassGetterGenerator$LT$ClassT$C$FieldT$C$Offset$C$_$C$_$C$_$GT$8generate17h4336352cf3cff090E', symObjAddr: 0x125C, symBinAddr: 0xAA30, symSize: 0x78 }
  - { offsetInCU: 0x3DED, offset: 0x1E41C, size: 0x8, addend: 0x0, symName: '__ZN4pyo35impl_7pyclass66PyClassGetterGenerator$LT$ClassT$C$FieldT$C$Offset$C$_$C$_$C$_$GT$8generate17h5a764ff9d6d507a1E', symObjAddr: 0x12D4, symBinAddr: 0xAAA8, symSize: 0x78 }
  - { offsetInCU: 0x3E7F, offset: 0x1E4AE, size: 0x8, addend: 0x0, symName: '__ZN4pyo35impl_7pyclass66PyClassGetterGenerator$LT$ClassT$C$FieldT$C$Offset$C$_$C$_$C$_$GT$8generate17hb8082bb2c4352d29E', symObjAddr: 0x134C, symBinAddr: 0xAB20, symSize: 0x78 }
  - { offsetInCU: 0x3F11, offset: 0x1E540, size: 0x8, addend: 0x0, symName: '__ZN4pyo35impl_7pyclass66PyClassGetterGenerator$LT$ClassT$C$FieldT$C$Offset$C$_$C$_$C$_$GT$8generate17hf5ef1c6488c7aa98E', symObjAddr: 0x13C4, symBinAddr: 0xAB98, symSize: 0x78 }
  - { offsetInCU: 0x1E, offset: 0x1E66A, size: 0x8, addend: 0x0, symName: __ZN4pyo33gil8GILGuard6python17h252b07c524065676E, symObjAddr: 0x0, symBinAddr: 0xAC10, symSize: 0x20 }
  - { offsetInCU: 0xCE, offset: 0x1E71A, size: 0x8, addend: 0x0, symName: __ZN4pyo33gil8GILGuard6python17h252b07c524065676E, symObjAddr: 0x0, symBinAddr: 0xAC10, symSize: 0x20 }
  - { offsetInCU: 0x1E, offset: 0x1E75A, size: 0x8, addend: 0x0, symName: __ZN4pyo35types4list17try_new_from_iter17h8bdc53bdc8071acdE, symObjAddr: 0x0, symBinAddr: 0xAC30, symSize: 0x2A8 }
  - { offsetInCU: 0x174A, offset: 0x1FE86, size: 0x8, addend: 0x0, symName: __ZN4pyo35types4list17try_new_from_iter17h8bdc53bdc8071acdE, symObjAddr: 0x0, symBinAddr: 0xAC30, symSize: 0x2A8 }
  - { offsetInCU: 0x186B, offset: 0x1FFA7, size: 0x8, addend: 0x0, symName: '__ZN4pyo35types4list17try_new_from_iter28_$u7b$$u7b$closure$u7d$$u7d$17hac97570184b0e83bE', symObjAddr: 0x2A8, symBinAddr: 0xAED8, symSize: 0xDC }
  - { offsetInCU: 0x1E, offset: 0x20A7B, size: 0x8, addend: 0x0, symName: '__ZN102_$LT$core..iter..adapters..map..Map$LT$I$C$F$GT$$u20$as$u20$core..iter..traits..iterator..Iterator$GT$4next17hb4eca279f43b3502E', symObjAddr: 0x0, symBinAddr: 0xAFB4, symSize: 0x98 }
  - { offsetInCU: 0x173A, offset: 0x22197, size: 0x8, addend: 0x0, symName: '__ZN102_$LT$core..iter..adapters..map..Map$LT$I$C$F$GT$$u20$as$u20$core..iter..traits..iterator..Iterator$GT$4next17hb4eca279f43b3502E', symObjAddr: 0x0, symBinAddr: 0xAFB4, symSize: 0x98 }
  - { offsetInCU: 0x17D2, offset: 0x2222F, size: 0x8, addend: 0x0, symName: '__ZN102_$LT$core..iter..adapters..map..Map$LT$I$C$F$GT$$u20$as$u20$core..iter..traits..iterator..Iterator$GT$8try_fold17h7657907c56795cc0E', symObjAddr: 0x98, symBinAddr: 0xB04C, symSize: 0x58 }
  - { offsetInCU: 0x18F6, offset: 0x22353, size: 0x8, addend: 0x0, symName: '__ZN4core4iter8adapters3map12map_try_fold28_$u7b$$u7b$closure$u7d$$u7d$17hbe02daf5fd489fb4E', symObjAddr: 0x14C, symBinAddr: 0xB100, symSize: 0xC4 }
  - { offsetInCU: 0x198E, offset: 0x223EB, size: 0x8, addend: 0x0, symName: '__ZN113_$LT$core..iter..adapters..map..Map$LT$I$C$F$GT$$u20$as$u20$core..iter..traits..exact_size..ExactSizeIterator$GT$3len17h72dd20ccb8f0479eE', symObjAddr: 0xF0, symBinAddr: 0xB0A4, symSize: 0x44 }
  - { offsetInCU: 0x1AAD, offset: 0x2250A, size: 0x8, addend: 0x0, symName: __ZN4core4iter6traits8iterator8Iterator4take17heb1339d423c37768E, symObjAddr: 0x134, symBinAddr: 0xB0E8, symSize: 0x18 }
  - { offsetInCU: 0x1AF9, offset: 0x22556, size: 0x8, addend: 0x0, symName: '__ZN72_$LT$$RF$mut$u20$I$u20$as$u20$core..iter..traits..iterator..Iterator$GT$4next17h68445c62003bec3bE', symObjAddr: 0x210, symBinAddr: 0xB1C4, symSize: 0x28 }
  - { offsetInCU: 0x1B30, offset: 0x2258D, size: 0x8, addend: 0x0, symName: '__ZN72_$LT$$RF$mut$u20$I$u20$as$u20$core..iter..traits..iterator..Iterator$GT$8try_fold17h65e5f0113f781752E', symObjAddr: 0x238, symBinAddr: 0xB1EC, symSize: 0x38 }
  - { offsetInCU: 0x1BA0, offset: 0x225FD, size: 0x8, addend: 0x0, symName: '__ZN72_$LT$$RF$mut$u20$I$u20$as$u20$core..iter..traits..iterator..Iterator$GT$8try_fold17he3d35a77385a3e6cE', symObjAddr: 0x270, symBinAddr: 0xB224, symSize: 0x38 }
  - { offsetInCU: 0x1C16, offset: 0x22673, size: 0x8, addend: 0x0, symName: '__ZN79_$LT$$RF$mut$u20$I$u20$as$u20$core..iter..traits..iterator..IteratorRefSpec$GT$13spec_try_fold17h3adc7a8a9e62c5d4E', symObjAddr: 0x2A8, symBinAddr: 0xB25C, symSize: 0x3C }
  - { offsetInCU: 0x1C86, offset: 0x226E3, size: 0x8, addend: 0x0, symName: '__ZN79_$LT$$RF$mut$u20$I$u20$as$u20$core..iter..traits..iterator..IteratorRefSpec$GT$13spec_try_fold17h59705afddb76b257E', symObjAddr: 0x2E4, symBinAddr: 0xB298, symSize: 0x3C }
  - { offsetInCU: 0x1D02, offset: 0x2275F, size: 0x8, addend: 0x0, symName: '__ZN83_$LT$$RF$mut$u20$I$u20$as$u20$core..iter..traits..exact_size..ExactSizeIterator$GT$3len17h759a6f7893496e30E', symObjAddr: 0x320, symBinAddr: 0xB2D4, symSize: 0x28 }
  - { offsetInCU: 0x1E, offset: 0x232FF, size: 0x8, addend: 0x0, symName: '__ZN4pyo312pyclass_init27PyClassInitializer$LT$T$GT$19create_class_object17h8cbe4138d33e8a30E', symObjAddr: 0x0, symBinAddr: 0xB2FC, symSize: 0x8C }
  - { offsetInCU: 0x1EBB, offset: 0x2519C, size: 0x8, addend: 0x0, symName: '__ZN96_$LT$pyo3..pyclass_init..PyClassInitializer$LT$T$GT$$u20$as$u20$core..convert..From$LT$T$GT$$GT$4from17h45e567661e83b4ffE', symObjAddr: 0xB90, symBinAddr: 0xBE8C, symSize: 0x1C }
  - { offsetInCU: 0x1EF1, offset: 0x251D2, size: 0x8, addend: 0x0, symName: '__ZN96_$LT$pyo3..pyclass_init..PyClassInitializer$LT$T$GT$$u20$as$u20$core..convert..From$LT$T$GT$$GT$4from17h494c15655651b84dE', symObjAddr: 0xBAC, symBinAddr: 0xBEA8, symSize: 0x28 }
  - { offsetInCU: 0x1F26, offset: 0x25207, size: 0x8, addend: 0x0, symName: '__ZN96_$LT$pyo3..pyclass_init..PyClassInitializer$LT$T$GT$$u20$as$u20$core..convert..From$LT$T$GT$$GT$4from17hf65de50ab8b70e46E', symObjAddr: 0xBD4, symBinAddr: 0xBED0, symSize: 0x1C }
  - { offsetInCU: 0x2A4E, offset: 0x25D2F, size: 0x8, addend: 0x0, symName: '__ZN4pyo312pyclass_init27PyClassInitializer$LT$T$GT$19create_class_object17h8cbe4138d33e8a30E', symObjAddr: 0x0, symBinAddr: 0xB2FC, symSize: 0x8C }
  - { offsetInCU: 0x2BDD, offset: 0x25EBE, size: 0x8, addend: 0x0, symName: '__ZN4pyo312pyclass_init27PyClassInitializer$LT$T$GT$19create_class_object17h8e06f842451f6c05E', symObjAddr: 0x8C, symBinAddr: 0xB388, symSize: 0x98 }
  - { offsetInCU: 0x2C9C, offset: 0x25F7D, size: 0x8, addend: 0x0, symName: '__ZN4pyo312pyclass_init27PyClassInitializer$LT$T$GT$27create_class_object_of_type17h42c4f0cc71986d55E', symObjAddr: 0x124, symBinAddr: 0xB420, symSize: 0x250 }
  - { offsetInCU: 0x2E7D, offset: 0x2615E, size: 0x8, addend: 0x0, symName: '__ZN4pyo312pyclass_init27PyClassInitializer$LT$T$GT$27create_class_object_of_type17h4e90d9c57da71eb6E', symObjAddr: 0x374, symBinAddr: 0xB670, symSize: 0x2DC }
  - { offsetInCU: 0x308D, offset: 0x2636E, size: 0x8, addend: 0x0, symName: '__ZN4pyo312pyclass_init27PyClassInitializer$LT$T$GT$27create_class_object_of_type17h530da80074cf3bb0E', symObjAddr: 0x650, symBinAddr: 0xB94C, symSize: 0x2D8 }
  - { offsetInCU: 0x3257, offset: 0x26538, size: 0x8, addend: 0x0, symName: '__ZN4pyo312pyclass_init27PyClassInitializer$LT$T$GT$3new17h27ff0607c8c60174E', symObjAddr: 0x928, symBinAddr: 0xBC24, symSize: 0xE8 }
  - { offsetInCU: 0x3291, offset: 0x26572, size: 0x8, addend: 0x0, symName: '__ZN4pyo312pyclass_init27PyClassInitializer$LT$T$GT$3new17h46d9df1c7d454383E', symObjAddr: 0xA10, symBinAddr: 0xBD0C, symSize: 0xE0 }
  - { offsetInCU: 0x32CB, offset: 0x265AC, size: 0x8, addend: 0x0, symName: '__ZN4pyo312pyclass_init27PyClassInitializer$LT$T$GT$3new17h9f8408a0a1baedb3E', symObjAddr: 0xAF0, symBinAddr: 0xBDEC, symSize: 0xA0 }
  - { offsetInCU: 0x1E, offset: 0x26603, size: 0x8, addend: 0x0, symName: __ZN3std9panicking12catch_unwind7do_call17h28d642d3611f8b6cE, symObjAddr: 0x0, symBinAddr: 0xBEEC, symSize: 0x74 }
  - { offsetInCU: 0x23EA, offset: 0x289CF, size: 0x8, addend: 0x0, symName: __ZN3std9panicking12catch_unwind7do_call17h28d642d3611f8b6cE, symObjAddr: 0x0, symBinAddr: 0xBEEC, symSize: 0x74 }
  - { offsetInCU: 0x24D1, offset: 0x28AB6, size: 0x8, addend: 0x0, symName: __ZN3std9panicking12catch_unwind7do_call17h29f381d88c634b6aE, symObjAddr: 0x74, symBinAddr: 0xBF60, symSize: 0x84 }
  - { offsetInCU: 0x25B8, offset: 0x28B9D, size: 0x8, addend: 0x0, symName: __ZN3std9panicking12catch_unwind7do_call17h3c50c9ce2164e7d4E, symObjAddr: 0xF8, symBinAddr: 0xBFE4, symSize: 0x80 }
  - { offsetInCU: 0x269F, offset: 0x28C84, size: 0x8, addend: 0x0, symName: __ZN3std9panicking12catch_unwind7do_call17h61402eb3864853fcE, symObjAddr: 0x178, symBinAddr: 0xC064, symSize: 0x90 }
  - { offsetInCU: 0x2786, offset: 0x28D6B, size: 0x8, addend: 0x0, symName: __ZN3std9panicking12catch_unwind7do_call17h90363ca327b789dbE, symObjAddr: 0x208, symBinAddr: 0xC0F4, symSize: 0x84 }
  - { offsetInCU: 0x286D, offset: 0x28E52, size: 0x8, addend: 0x0, symName: __ZN3std9panicking12catch_unwind7do_call17ha8b0fc113f628852E, symObjAddr: 0x28C, symBinAddr: 0xC178, symSize: 0x80 }
  - { offsetInCU: 0x2954, offset: 0x28F39, size: 0x8, addend: 0x0, symName: __ZN3std9panicking12catch_unwind7do_call17hd16cad4cab08d16dE, symObjAddr: 0x30C, symBinAddr: 0xC1F8, symSize: 0x80 }
  - { offsetInCU: 0x2A3B, offset: 0x29020, size: 0x8, addend: 0x0, symName: __ZN3std9panicking12catch_unwind7do_call17hd8ed8174cd18b753E, symObjAddr: 0x38C, symBinAddr: 0xC278, symSize: 0x80 }
  - { offsetInCU: 0x2B22, offset: 0x29107, size: 0x8, addend: 0x0, symName: __ZN3std9panicking12catch_unwind7do_call17hf358797702e4885fE, symObjAddr: 0x40C, symBinAddr: 0xC2F8, symSize: 0x80 }
  - { offsetInCU: 0x2C09, offset: 0x291EE, size: 0x8, addend: 0x0, symName: __ZN3std9panicking12catch_unwind8do_catch17h0651ee17423026d6E, symObjAddr: 0x48C, symBinAddr: 0xC378, symSize: 0x70 }
  - { offsetInCU: 0x2C9E, offset: 0x29283, size: 0x8, addend: 0x0, symName: __ZN3std9panicking12catch_unwind8do_catch17h1abc282adf668681E, symObjAddr: 0x4FC, symBinAddr: 0xC3E8, symSize: 0x70 }
  - { offsetInCU: 0x2D33, offset: 0x29318, size: 0x8, addend: 0x0, symName: __ZN3std9panicking12catch_unwind8do_catch17h1d04e3817cd245e0E, symObjAddr: 0x56C, symBinAddr: 0xC458, symSize: 0x70 }
  - { offsetInCU: 0x2DC8, offset: 0x293AD, size: 0x8, addend: 0x0, symName: __ZN3std9panicking12catch_unwind8do_catch17h2d74815ed8f2362dE, symObjAddr: 0x5DC, symBinAddr: 0xC4C8, symSize: 0x70 }
  - { offsetInCU: 0x2E5D, offset: 0x29442, size: 0x8, addend: 0x0, symName: __ZN3std9panicking12catch_unwind8do_catch17h3f3566e0c1da8172E, symObjAddr: 0x64C, symBinAddr: 0xC538, symSize: 0x70 }
  - { offsetInCU: 0x2EF2, offset: 0x294D7, size: 0x8, addend: 0x0, symName: __ZN3std9panicking12catch_unwind8do_catch17h4ce48d246fb4cf2dE, symObjAddr: 0x6BC, symBinAddr: 0xC5A8, symSize: 0x70 }
  - { offsetInCU: 0x2F87, offset: 0x2956C, size: 0x8, addend: 0x0, symName: __ZN3std9panicking12catch_unwind8do_catch17h7df63666131df818E, symObjAddr: 0x72C, symBinAddr: 0xC618, symSize: 0x70 }
  - { offsetInCU: 0x301C, offset: 0x29601, size: 0x8, addend: 0x0, symName: __ZN3std9panicking12catch_unwind8do_catch17hd83762a78002f496E, symObjAddr: 0x79C, symBinAddr: 0xC688, symSize: 0x70 }
  - { offsetInCU: 0x30B1, offset: 0x29696, size: 0x8, addend: 0x0, symName: __ZN3std9panicking12catch_unwind8do_catch17hec94f6dff0be22d3E, symObjAddr: 0x80C, symBinAddr: 0xC6F8, symSize: 0x70 }
  - { offsetInCU: 0x1E, offset: 0x29EB4, size: 0x8, addend: 0x0, symName: '__ZN92_$LT$pyo3..pycell..impl_..EmptySlot$u20$as$u20$pyo3..pycell..impl_..PyClassBorrowChecker$GT$10try_borrow17hae977978adc0de3fE', symObjAddr: 0x0, symBinAddr: 0xC768, symSize: 0x1C }
  - { offsetInCU: 0x3F, offset: 0x29ED5, size: 0x8, addend: 0x0, symName: '__ZN92_$LT$pyo3..pycell..impl_..EmptySlot$u20$as$u20$pyo3..pycell..impl_..PyClassBorrowChecker$GT$10try_borrow17hae977978adc0de3fE', symObjAddr: 0x0, symBinAddr: 0xC768, symSize: 0x1C }
  - { offsetInCU: 0x6B, offset: 0x29F01, size: 0x8, addend: 0x0, symName: '__ZN92_$LT$pyo3..pycell..impl_..EmptySlot$u20$as$u20$pyo3..pycell..impl_..PyClassBorrowChecker$GT$14release_borrow17h8c3d3b032cce4488E', symObjAddr: 0x1C, symBinAddr: 0xC784, symSize: 0x10 }
  - { offsetInCU: 0x93, offset: 0x29F29, size: 0x8, addend: 0x0, symName: '__ZN92_$LT$pyo3..pycell..impl_..EmptySlot$u20$as$u20$pyo3..pycell..impl_..PyClassBorrowChecker$GT$3new17h378eb77ae158745aE', symObjAddr: 0x2C, symBinAddr: 0xC794, symSize: 0x4 }
  - { offsetInCU: 0x1E, offset: 0x2A035, size: 0x8, addend: 0x0, symName: '__ZN5alloc7raw_vec19RawVec$LT$T$C$A$GT$8grow_one17h2969e9bf9fabbfe8E', symObjAddr: 0x0, symBinAddr: 0xC798, symSize: 0x90 }
  - { offsetInCU: 0x602, offset: 0x2A619, size: 0x8, addend: 0x0, symName: '__ZN5alloc7raw_vec19RawVec$LT$T$C$A$GT$8grow_one17h2969e9bf9fabbfe8E', symObjAddr: 0x0, symBinAddr: 0xC798, symSize: 0x90 }
  - { offsetInCU: 0x1E, offset: 0x2A6A0, size: 0x8, addend: 0x0, symName: '__ZN4core3str21_$LT$impl$u20$str$GT$8is_empty17h5fe81ad72b4fe6a3E', symObjAddr: 0x0, symBinAddr: 0xC828, symSize: 0x1C }
  - { offsetInCU: 0x3A, offset: 0x2A6BC, size: 0x8, addend: 0x0, symName: '__ZN4core3str21_$LT$impl$u20$str$GT$8is_empty17h5fe81ad72b4fe6a3E', symObjAddr: 0x0, symBinAddr: 0xC828, symSize: 0x1C }
  - { offsetInCU: 0x1E, offset: 0x2A745, size: 0x8, addend: 0x0, symName: __ZN4pyo35impl_16extract_argument16extract_argument17h1c2067e0e7e281bfE, symObjAddr: 0x0, symBinAddr: 0xC844, symSize: 0x138 }
  - { offsetInCU: 0x22AC, offset: 0x2C9D3, size: 0x8, addend: 0x0, symName: __ZN4pyo35impl_16extract_argument16extract_argument17h1c2067e0e7e281bfE, symObjAddr: 0x0, symBinAddr: 0xC844, symSize: 0x138 }
  - { offsetInCU: 0x2331, offset: 0x2CA58, size: 0x8, addend: 0x0, symName: __ZN4pyo35impl_16extract_argument16extract_argument17h2e1cb10048ff2a31E, symObjAddr: 0x138, symBinAddr: 0xC97C, symSize: 0x144 }
  - { offsetInCU: 0x23B7, offset: 0x2CADE, size: 0x8, addend: 0x0, symName: __ZN4pyo35impl_16extract_argument16extract_argument17hac2366bbfa77ae18E, symObjAddr: 0x27C, symBinAddr: 0xCAC0, symSize: 0x150 }
  - { offsetInCU: 0x243C, offset: 0x2CB63, size: 0x8, addend: 0x0, symName: __ZN4pyo35impl_16extract_argument16extract_argument17hd9cec0ce9c23fb72E, symObjAddr: 0x3CC, symBinAddr: 0xCC10, symSize: 0x150 }
  - { offsetInCU: 0x24C1, offset: 0x2CBE8, size: 0x8, addend: 0x0, symName: __ZN4pyo35impl_16extract_argument16extract_argument17hff7a49aa7c7bf332E, symObjAddr: 0x51C, symBinAddr: 0xCD60, symSize: 0x138 }
  - { offsetInCU: 0x26C7, offset: 0x2CDEE, size: 0x8, addend: 0x0, symName: '__ZN4pyo35impl_16extract_argument19FunctionDescription26extract_arguments_fastcall28_$u7b$$u7b$closure$u7d$$u7d$17hce27d64946832e96E', symObjAddr: 0x1A20, symBinAddr: 0xE264, symSize: 0x24 }
  - { offsetInCU: 0x271F, offset: 0x2CE46, size: 0x8, addend: 0x0, symName: '__ZN4pyo35impl_16extract_argument19FunctionDescription28extract_arguments_tuple_dict28_$u7b$$u7b$closure$u7d$$u7d$17h5c71b32a6e6094cdE', symObjAddr: 0x1EC4, symBinAddr: 0xE708, symSize: 0x24 }
  - { offsetInCU: 0x2777, offset: 0x2CE9E, size: 0x8, addend: 0x0, symName: '__ZN4pyo35impl_16extract_argument19FunctionDescription36find_keyword_parameter_in_positional28_$u7b$$u7b$closure$u7d$$u7d$17h1667f596abbc7353E', symObjAddr: 0x1EE8, symBinAddr: 0xE72C, symSize: 0x48 }
  - { offsetInCU: 0x27D7, offset: 0x2CEFE, size: 0x8, addend: 0x0, symName: '__ZN4pyo35impl_16extract_argument19FunctionDescription38find_keyword_parameter_in_keyword_only28_$u7b$$u7b$closure$u7d$$u7d$17h4da8ea18b6499054E', symObjAddr: 0x1F30, symBinAddr: 0xE774, symSize: 0x38 }
  - { offsetInCU: 0x2819, offset: 0x2CF40, size: 0x8, addend: 0x0, symName: __ZN4pyo35impl_16extract_argument19extract_pyclass_ref17h045a4a0c2eb39788E, symObjAddr: 0x1F68, symBinAddr: 0xE7AC, symSize: 0xB0 }
  - { offsetInCU: 0x287A, offset: 0x2CFA1, size: 0x8, addend: 0x0, symName: __ZN4pyo35impl_16extract_argument19extract_pyclass_ref17he4e1268c2de9b7c1E, symObjAddr: 0x2018, symBinAddr: 0xE85C, symSize: 0xB0 }
  - { offsetInCU: 0x28DB, offset: 0x2D002, size: 0x8, addend: 0x0, symName: __ZN4pyo35impl_16extract_argument19extract_pyclass_ref17he7e11dae1ddaa0bbE, symObjAddr: 0x20C8, symBinAddr: 0xE90C, symSize: 0xB0 }
  - { offsetInCU: 0x293C, offset: 0x2D063, size: 0x8, addend: 0x0, symName: __ZN4pyo35impl_16extract_argument25extract_optional_argument17h3a2760255682ed7aE, symObjAddr: 0x2178, symBinAddr: 0xE9BC, symSize: 0xE4 }
  - { offsetInCU: 0x29B1, offset: 0x2D0D8, size: 0x8, addend: 0x0, symName: __ZN4pyo35impl_16extract_argument25extract_optional_argument17hb44f7745a057cbaaE, symObjAddr: 0x225C, symBinAddr: 0xEAA0, symSize: 0xE4 }
  - { offsetInCU: 0x2A2B, offset: 0x2D152, size: 0x8, addend: 0x0, symName: '__ZN80_$LT$T$u20$as$u20$pyo3..impl_..extract_argument..PyFunctionArgument$LT$_$GT$$GT$7extract17hb7ee58a20fe4b6c3E', symObjAddr: 0x2340, symBinAddr: 0xEB84, symSize: 0x28 }
  - { offsetInCU: 0x36B9, offset: 0x2DDE0, size: 0x8, addend: 0x0, symName: __ZN4pyo35impl_16extract_argument19FunctionDescription13handle_kwargs17h51fcda497584a24cE, symObjAddr: 0x654, symBinAddr: 0xCE98, symSize: 0x6F8 }
  - { offsetInCU: 0x38CE, offset: 0x2DFF5, size: 0x8, addend: 0x0, symName: __ZN4pyo35impl_16extract_argument19FunctionDescription13handle_kwargs17hc087447095dcdb36E, symObjAddr: 0xD4C, symBinAddr: 0xD590, symSize: 0x6FC }
  - { offsetInCU: 0x3AE7, offset: 0x2E20E, size: 0x8, addend: 0x0, symName: __ZN4pyo35impl_16extract_argument19FunctionDescription26extract_arguments_fastcall17h290ee1ed3ebb729eE, symObjAddr: 0x1448, symBinAddr: 0xDC8C, symSize: 0x5D8 }
  - { offsetInCU: 0x3E19, offset: 0x2E540, size: 0x8, addend: 0x0, symName: __ZN4pyo35impl_16extract_argument19FunctionDescription28extract_arguments_tuple_dict17h3fe9d27e19432105E, symObjAddr: 0x1A44, symBinAddr: 0xE288, symSize: 0x480 }
  - { offsetInCU: 0x1E, offset: 0x2EA09, size: 0x8, addend: 0x0, symName: '__ZN4pyo35impl_4wrap62IntoPyObjectConverter$LT$core..result..Result$LT$T$C$E$GT$$GT$12map_into_ptr17h3fad85ddc96b528fE', symObjAddr: 0x0, symBinAddr: 0xEBAC, symSize: 0x44 }
  - { offsetInCU: 0x1903, offset: 0x302EE, size: 0x8, addend: 0x0, symName: '__ZN4pyo35impl_4wrap62IntoPyObjectConverter$LT$core..result..Result$LT$T$C$E$GT$$GT$12map_into_ptr28_$u7b$$u7b$closure$u7d$$u7d$17h02782dfaeb773c5bE', symObjAddr: 0x88, symBinAddr: 0xEC34, symSize: 0x28 }
  - { offsetInCU: 0x195B, offset: 0x30346, size: 0x8, addend: 0x0, symName: '__ZN4pyo35impl_4wrap62IntoPyObjectConverter$LT$core..result..Result$LT$T$C$E$GT$$GT$12map_into_ptr28_$u7b$$u7b$closure$u7d$$u7d$17h343a18b2e12d331cE', symObjAddr: 0xB0, symBinAddr: 0xEC5C, symSize: 0x28 }
  - { offsetInCU: 0x19DB, offset: 0x303C6, size: 0x8, addend: 0x0, symName: __ZN4pyo35impl_4wrap9converter17h67375c78e7089ae2E, symObjAddr: 0x140, symBinAddr: 0xECEC, symSize: 0x10 }
  - { offsetInCU: 0x1A08, offset: 0x303F3, size: 0x8, addend: 0x0, symName: __ZN4pyo35impl_4wrap9converter17hd992aee6eda0aa36E, symObjAddr: 0x150, symBinAddr: 0xECFC, symSize: 0x10 }
  - { offsetInCU: 0x1A3A, offset: 0x30425, size: 0x8, addend: 0x0, symName: '__ZN81_$LT$pyo3..impl_..wrap..Converter$LT$T$GT$$u20$as$u20$core..ops..deref..Deref$GT$5deref17h6504ea36b6b45736E', symObjAddr: 0x160, symBinAddr: 0xED0C, symSize: 0x14 }
  - { offsetInCU: 0x1A6F, offset: 0x3045A, size: 0x8, addend: 0x0, symName: '__ZN81_$LT$pyo3..impl_..wrap..Converter$LT$T$GT$$u20$as$u20$core..ops..deref..Deref$GT$5deref17hd36140af583005e2E', symObjAddr: 0x174, symBinAddr: 0xED20, symSize: 0x14 }
  - { offsetInCU: 0x1AAA, offset: 0x30495, size: 0x8, addend: 0x0, symName: '__ZN91_$LT$pyo3..impl_..wrap..EmptyTupleConverter$LT$T$GT$$u20$as$u20$core..ops..deref..Deref$GT$5deref17h2e9a2e0b84426c7eE', symObjAddr: 0x188, symBinAddr: 0xED34, symSize: 0x14 }
  - { offsetInCU: 0x1ADF, offset: 0x304CA, size: 0x8, addend: 0x0, symName: '__ZN91_$LT$pyo3..impl_..wrap..EmptyTupleConverter$LT$T$GT$$u20$as$u20$core..ops..deref..Deref$GT$5deref17hb7059f7c024d6e02E', symObjAddr: 0x19C, symBinAddr: 0xED48, symSize: 0x14 }
  - { offsetInCU: 0x2573, offset: 0x30F5E, size: 0x8, addend: 0x0, symName: '__ZN4pyo35impl_4wrap62IntoPyObjectConverter$LT$core..result..Result$LT$T$C$E$GT$$GT$12map_into_ptr17h3fad85ddc96b528fE', symObjAddr: 0x0, symBinAddr: 0xEBAC, symSize: 0x44 }
  - { offsetInCU: 0x25DC, offset: 0x30FC7, size: 0x8, addend: 0x0, symName: '__ZN4pyo35impl_4wrap62IntoPyObjectConverter$LT$core..result..Result$LT$T$C$E$GT$$GT$12map_into_ptr17hdbef62ac11295d9eE', symObjAddr: 0x44, symBinAddr: 0xEBF0, symSize: 0x44 }
  - { offsetInCU: 0x2638, offset: 0x31023, size: 0x8, addend: 0x0, symName: '__ZN4pyo35impl_4wrap62IntoPyObjectConverter$LT$core..result..Result$LT$T$C$E$GT$$GT$4wrap17h573898db73624c2dE', symObjAddr: 0xD8, symBinAddr: 0xEC84, symSize: 0x34 }
  - { offsetInCU: 0x267B, offset: 0x31066, size: 0x8, addend: 0x0, symName: '__ZN4pyo35impl_4wrap62IntoPyObjectConverter$LT$core..result..Result$LT$T$C$E$GT$$GT$4wrap17hce9395c9597f067fE', symObjAddr: 0x10C, symBinAddr: 0xECB8, symSize: 0x34 }
  - { offsetInCU: 0x1E, offset: 0x31122, size: 0x8, addend: 0x0, symName: __ZN4pyo35types14notimplemented16PyNotImplemented3get17h20b97e3f1ed099e2E, symObjAddr: 0x0, symBinAddr: 0xED5C, symSize: 0x2C }
  - { offsetInCU: 0x175F, offset: 0x32863, size: 0x8, addend: 0x0, symName: __ZN4pyo35types14notimplemented16PyNotImplemented3get17h20b97e3f1ed099e2E, symObjAddr: 0x0, symBinAddr: 0xED5C, symSize: 0x2C }
  - { offsetInCU: 0x1E, offset: 0x328AE, size: 0x8, addend: 0x0, symName: '__ZN103_$LT$pyo3..instance..Bound$LT$pyo3..types..any..PyAny$GT$$u20$as$u20$pyo3..types..any..PyAnyMethods$GT$14is_instance_of17hd8897c16550cbf06E', symObjAddr: 0x0, symBinAddr: 0xED88, symSize: 0x24 }
  - { offsetInCU: 0x852, offset: 0x330E2, size: 0x8, addend: 0x0, symName: '__ZN4core5slice29_$LT$impl$u20$$u5b$T$u5d$$GT$4iter17h01cab5db2423eb82E', symObjAddr: 0xA58, symBinAddr: 0xF7E0, symSize: 0x28 }
  - { offsetInCU: 0x2393, offset: 0x34C23, size: 0x8, addend: 0x0, symName: '__ZN63_$LT$I$u20$as$u20$core..iter..traits..collect..IntoIterator$GT$9into_iter17h4b415d0a96f8387aE', symObjAddr: 0x17D0, symBinAddr: 0x10558, symSize: 0x14 }
  - { offsetInCU: 0x248A, offset: 0x34D1A, size: 0x8, addend: 0x0, symName: '__ZN103_$LT$pyo3..instance..Bound$LT$pyo3..types..any..PyAny$GT$$u20$as$u20$pyo3..types..any..PyAnyMethods$GT$14is_instance_of17hd8897c16550cbf06E', symObjAddr: 0x0, symBinAddr: 0xED88, symSize: 0x24 }
  - { offsetInCU: 0x24C1, offset: 0x34D51, size: 0x8, addend: 0x0, symName: '__ZN103_$LT$pyo3..instance..Bound$LT$pyo3..types..any..PyAny$GT$$u20$as$u20$pyo3..types..any..PyAnyMethods$GT$18downcast_unchecked17h9215e2b664e9a322E', symObjAddr: 0x24, symBinAddr: 0xEDAC, symSize: 0x74 }
  - { offsetInCU: 0x24F8, offset: 0x34D88, size: 0x8, addend: 0x0, symName: '__ZN103_$LT$pyo3..instance..Bound$LT$pyo3..types..any..PyAny$GT$$u20$as$u20$pyo3..types..any..PyAnyMethods$GT$18downcast_unchecked17h9224068eeb978117E', symObjAddr: 0x98, symBinAddr: 0xEE20, symSize: 0x74 }
  - { offsetInCU: 0x252F, offset: 0x34DBF, size: 0x8, addend: 0x0, symName: '__ZN103_$LT$pyo3..instance..Bound$LT$pyo3..types..any..PyAny$GT$$u20$as$u20$pyo3..types..any..PyAnyMethods$GT$18downcast_unchecked17hcc174970ea0fe44dE', symObjAddr: 0x10C, symBinAddr: 0xEE94, symSize: 0x74 }
  - { offsetInCU: 0x2566, offset: 0x34DF6, size: 0x8, addend: 0x0, symName: '__ZN103_$LT$pyo3..instance..Bound$LT$pyo3..types..any..PyAny$GT$$u20$as$u20$pyo3..types..any..PyAnyMethods$GT$18downcast_unchecked17hf153b844efb6d459E', symObjAddr: 0x180, symBinAddr: 0xEF08, symSize: 0x74 }
  - { offsetInCU: 0x259D, offset: 0x34E2D, size: 0x8, addend: 0x0, symName: '__ZN103_$LT$pyo3..instance..Bound$LT$pyo3..types..any..PyAny$GT$$u20$as$u20$pyo3..types..any..PyAnyMethods$GT$23downcast_into_unchecked17h61ef2215b51aa02cE', symObjAddr: 0x1F4, symBinAddr: 0xEF7C, symSize: 0x14 }
  - { offsetInCU: 0x25D4, offset: 0x34E64, size: 0x8, addend: 0x0, symName: '__ZN103_$LT$pyo3..instance..Bound$LT$pyo3..types..any..PyAny$GT$$u20$as$u20$pyo3..types..any..PyAnyMethods$GT$23downcast_into_unchecked17h8b160ae8848fa60cE', symObjAddr: 0x208, symBinAddr: 0xEF90, symSize: 0x14 }
  - { offsetInCU: 0x260B, offset: 0x34E9B, size: 0x8, addend: 0x0, symName: '__ZN103_$LT$pyo3..instance..Bound$LT$pyo3..types..any..PyAny$GT$$u20$as$u20$pyo3..types..any..PyAnyMethods$GT$23downcast_into_unchecked17hbc92e9dd85097feaE', symObjAddr: 0x21C, symBinAddr: 0xEFA4, symSize: 0x14 }
  - { offsetInCU: 0x2642, offset: 0x34ED2, size: 0x8, addend: 0x0, symName: '__ZN103_$LT$pyo3..instance..Bound$LT$pyo3..types..any..PyAny$GT$$u20$as$u20$pyo3..types..any..PyAnyMethods$GT$7extract17h14cee0eb9181a827E', symObjAddr: 0x230, symBinAddr: 0xEFB8, symSize: 0x30 }
  - { offsetInCU: 0x2679, offset: 0x34F09, size: 0x8, addend: 0x0, symName: '__ZN103_$LT$pyo3..instance..Bound$LT$pyo3..types..any..PyAny$GT$$u20$as$u20$pyo3..types..any..PyAnyMethods$GT$7extract17h35810f0c0670c820E', symObjAddr: 0x260, symBinAddr: 0xEFE8, symSize: 0x30 }
  - { offsetInCU: 0x26B0, offset: 0x34F40, size: 0x8, addend: 0x0, symName: '__ZN103_$LT$pyo3..instance..Bound$LT$pyo3..types..any..PyAny$GT$$u20$as$u20$pyo3..types..any..PyAnyMethods$GT$7extract17h3a619c821ea878daE', symObjAddr: 0x290, symBinAddr: 0xF018, symSize: 0x30 }
  - { offsetInCU: 0x26E7, offset: 0x34F77, size: 0x8, addend: 0x0, symName: '__ZN103_$LT$pyo3..instance..Bound$LT$pyo3..types..any..PyAny$GT$$u20$as$u20$pyo3..types..any..PyAnyMethods$GT$7extract17h3db4f5282336518aE', symObjAddr: 0x2C0, symBinAddr: 0xF048, symSize: 0x30 }
  - { offsetInCU: 0x271E, offset: 0x34FAE, size: 0x8, addend: 0x0, symName: '__ZN103_$LT$pyo3..instance..Bound$LT$pyo3..types..any..PyAny$GT$$u20$as$u20$pyo3..types..any..PyAnyMethods$GT$7extract17h4fff3912f4b869cdE', symObjAddr: 0x2F0, symBinAddr: 0xF078, symSize: 0x30 }
  - { offsetInCU: 0x2755, offset: 0x34FE5, size: 0x8, addend: 0x0, symName: '__ZN103_$LT$pyo3..instance..Bound$LT$pyo3..types..any..PyAny$GT$$u20$as$u20$pyo3..types..any..PyAnyMethods$GT$7extract17h7b13a4e73daec331E', symObjAddr: 0x320, symBinAddr: 0xF0A8, symSize: 0x30 }
  - { offsetInCU: 0x278C, offset: 0x3501C, size: 0x8, addend: 0x0, symName: '__ZN103_$LT$pyo3..instance..Bound$LT$pyo3..types..any..PyAny$GT$$u20$as$u20$pyo3..types..any..PyAnyMethods$GT$7extract17hba739e7016ef22aeE', symObjAddr: 0x350, symBinAddr: 0xF0D8, symSize: 0x30 }
  - { offsetInCU: 0x27C3, offset: 0x35053, size: 0x8, addend: 0x0, symName: '__ZN103_$LT$pyo3..instance..Bound$LT$pyo3..types..any..PyAny$GT$$u20$as$u20$pyo3..types..any..PyAnyMethods$GT$8downcast17h595861ba33425d24E', symObjAddr: 0x380, symBinAddr: 0xF108, symSize: 0x84 }
  - { offsetInCU: 0x27FA, offset: 0x3508A, size: 0x8, addend: 0x0, symName: '__ZN103_$LT$pyo3..instance..Bound$LT$pyo3..types..any..PyAny$GT$$u20$as$u20$pyo3..types..any..PyAnyMethods$GT$8downcast17h75beff1446e89f6fE', symObjAddr: 0x404, symBinAddr: 0xF18C, symSize: 0x84 }
  - { offsetInCU: 0x2831, offset: 0x350C1, size: 0x8, addend: 0x0, symName: '__ZN103_$LT$pyo3..instance..Bound$LT$pyo3..types..any..PyAny$GT$$u20$as$u20$pyo3..types..any..PyAnyMethods$GT$8downcast17ha6c64caa003598c8E', symObjAddr: 0x488, symBinAddr: 0xF210, symSize: 0x84 }
  - { offsetInCU: 0x2868, offset: 0x350F8, size: 0x8, addend: 0x0, symName: '__ZN103_$LT$pyo3..instance..Bound$LT$pyo3..types..any..PyAny$GT$$u20$as$u20$pyo3..types..any..PyAnyMethods$GT$8downcast17hbff9ed1050976be7E', symObjAddr: 0x50C, symBinAddr: 0xF294, symSize: 0x84 }
  - { offsetInCU: 0x28C0, offset: 0x35150, size: 0x8, addend: 0x0, symName: '__ZN115_$LT$pyo3..instance..Bound$LT$pyo3..types..module..PyModule$GT$$u20$as$u20$pyo3..types..module..PyModuleMethods$GT$3add17h371c9c2078483bbbE', symObjAddr: 0x604, symBinAddr: 0xF38C, symSize: 0x22C }
  - { offsetInCU: 0x298A, offset: 0x3521A, size: 0x8, addend: 0x0, symName: '__ZN115_$LT$pyo3..instance..Bound$LT$pyo3..types..module..PyModule$GT$$u20$as$u20$pyo3..types..module..PyModuleMethods$GT$9add_class17h35e8b2c501d0d457E', symObjAddr: 0x830, symBinAddr: 0xF5B8, symSize: 0xB8 }
  - { offsetInCU: 0x29FE, offset: 0x3528E, size: 0x8, addend: 0x0, symName: '__ZN115_$LT$pyo3..instance..Bound$LT$pyo3..types..module..PyModule$GT$$u20$as$u20$pyo3..types..module..PyModuleMethods$GT$9add_class17h3c8f8cb711e69b55E', symObjAddr: 0x8E8, symBinAddr: 0xF670, symSize: 0xB8 }
  - { offsetInCU: 0x2A72, offset: 0x35302, size: 0x8, addend: 0x0, symName: '__ZN115_$LT$pyo3..instance..Bound$LT$pyo3..types..module..PyModule$GT$$u20$as$u20$pyo3..types..module..PyModuleMethods$GT$9add_class17h4ce044219a268193E', symObjAddr: 0x9A0, symBinAddr: 0xF728, symSize: 0xB8 }
  - { offsetInCU: 0x2BE5, offset: 0x35475, size: 0x8, addend: 0x0, symName: '__ZN111_$LT$T$u20$as$u20$pyo3..impl_..callback..IntoPyCallbackOutput$LT$$BP$mut$u20$pyo3_ffi..object..PyObject$GT$$GT$7convert17h93778e684e47d95dE', symObjAddr: 0x590, symBinAddr: 0xF318, symSize: 0x34 }
  - { offsetInCU: 0x2C3F, offset: 0x354CF, size: 0x8, addend: 0x0, symName: '__ZN113_$LT$$RF$pyo3..instance..Bound$LT$T$GT$$u20$as$u20$pyo3..impl_..extract_argument..PyFunctionArgument$LT$_$GT$$GT$7extract17h0eaa21fdea7fd0a3E', symObjAddr: 0x5C4, symBinAddr: 0xF34C, symSize: 0x40 }
  - { offsetInCU: 0x2C8A, offset: 0x3551A, size: 0x8, addend: 0x0, symName: '__ZN4pyo35impl_9pymethods133_$LT$impl$u20$core..convert..From$LT$pyo3..impl_..pymethods..BoundRef$LT$T$GT$$GT$$u20$for$u20$$RF$pyo3..instance..Bound$LT$T$GT$$GT$4from17h987e91a3e9a405b7E', symObjAddr: 0xAC8, symBinAddr: 0xF850, symSize: 0x14 }
  - { offsetInCU: 0x2D6F, offset: 0x355FF, size: 0x8, addend: 0x0, symName: __ZN4pyo310conversion15IntoPyObjectExt22into_pyobject_or_pyerr17h3db377f4b184cc6eE, symObjAddr: 0xA80, symBinAddr: 0xF808, symSize: 0x48 }
  - { offsetInCU: 0x37C6, offset: 0x36056, size: 0x8, addend: 0x0, symName: '__ZN4pyo38instance39Borrowed$LT$pyo3..types..any..PyAny$GT$15from_ptr_or_opt28_$u7b$$u7b$closure$u7d$$u7d$17hbf7ca7aae2595360E', symObjAddr: 0x1738, symBinAddr: 0x104C0, symSize: 0x20 }
  - { offsetInCU: 0x3957, offset: 0x361E7, size: 0x8, addend: 0x0, symName: '__ZN69_$LT$pyo3..instance..Bound$LT$T$GT$$u20$as$u20$core..clone..Clone$GT$5clone17h01bd68072ed91f1fE', symObjAddr: 0x17E4, symBinAddr: 0x1056C, symSize: 0x34 }
  - { offsetInCU: 0x398E, offset: 0x3621E, size: 0x8, addend: 0x0, symName: '__ZN69_$LT$pyo3..instance..Bound$LT$T$GT$$u20$as$u20$core..clone..Clone$GT$5clone17h6b767a0038134ceeE', symObjAddr: 0x1818, symBinAddr: 0x105A0, symSize: 0x34 }
  - { offsetInCU: 0x39C5, offset: 0x36255, size: 0x8, addend: 0x0, symName: '__ZN69_$LT$pyo3..instance..Bound$LT$T$GT$$u20$as$u20$core..clone..Clone$GT$5clone17ha4beb5d8a7783368E', symObjAddr: 0x184C, symBinAddr: 0x105D4, symSize: 0x34 }
  - { offsetInCU: 0x39FC, offset: 0x3628C, size: 0x8, addend: 0x0, symName: '__ZN69_$LT$pyo3..instance..Bound$LT$T$GT$$u20$as$u20$core..clone..Clone$GT$5clone17hab90220edbb6d8f3E', symObjAddr: 0x1880, symBinAddr: 0x10608, symSize: 0x34 }
  - { offsetInCU: 0x3A39, offset: 0x362C9, size: 0x8, addend: 0x0, symName: '__ZN77_$LT$pyo3..instance..Borrowed$LT$T$GT$$u20$as$u20$core..ops..deref..Deref$GT$5deref17h5f71e65ba4cb526dE', symObjAddr: 0x18B4, symBinAddr: 0x1063C, symSize: 0x74 }
  - { offsetInCU: 0x3A76, offset: 0x36306, size: 0x8, addend: 0x0, symName: '__ZN87_$LT$pyo3..instance..Bound$LT$T$GT$$u20$as$u20$pyo3..instance..BoundObject$LT$T$GT$$GT$8into_any17h40bf62598f9fe2c5E', symObjAddr: 0x1928, symBinAddr: 0x106B0, symSize: 0x24 }
  - { offsetInCU: 0x3AAD, offset: 0x3633D, size: 0x8, addend: 0x0, symName: '__ZN87_$LT$pyo3..instance..Bound$LT$T$GT$$u20$as$u20$pyo3..instance..BoundObject$LT$T$GT$$GT$8into_any17hf6491325180543e5E', symObjAddr: 0x194C, symBinAddr: 0x106D4, symSize: 0x24 }
  - { offsetInCU: 0x3AE4, offset: 0x36374, size: 0x8, addend: 0x0, symName: '__ZN87_$LT$pyo3..instance..Bound$LT$T$GT$$u20$as$u20$pyo3..instance..BoundObject$LT$T$GT$$GT$8into_ptr17h14b1dafff57f5123E', symObjAddr: 0x1970, symBinAddr: 0x106F8, symSize: 0x24 }
  - { offsetInCU: 0x3B1B, offset: 0x363AB, size: 0x8, addend: 0x0, symName: '__ZN87_$LT$pyo3..instance..Bound$LT$T$GT$$u20$as$u20$pyo3..instance..BoundObject$LT$T$GT$$GT$8into_ptr17h98c04a4734416a14E', symObjAddr: 0x1994, symBinAddr: 0x1071C, symSize: 0x24 }
  - { offsetInCU: 0x3B52, offset: 0x363E2, size: 0x8, addend: 0x0, symName: '__ZN87_$LT$pyo3..instance..Bound$LT$T$GT$$u20$as$u20$pyo3..instance..BoundObject$LT$T$GT$$GT$8into_ptr17ha2afcf30161488d0E', symObjAddr: 0x19B8, symBinAddr: 0x10740, symSize: 0x24 }
  - { offsetInCU: 0x3B89, offset: 0x36419, size: 0x8, addend: 0x0, symName: '__ZN87_$LT$pyo3..instance..Bound$LT$T$GT$$u20$as$u20$pyo3..instance..BoundObject$LT$T$GT$$GT$8into_ptr17habf6d26a2c43127bE', symObjAddr: 0x19DC, symBinAddr: 0x10764, symSize: 0x24 }
  - { offsetInCU: 0x3BC6, offset: 0x36456, size: 0x8, addend: 0x0, symName: '__ZN90_$LT$pyo3..instance..Borrowed$LT$T$GT$$u20$as$u20$pyo3..instance..BoundObject$LT$T$GT$$GT$6unbind17h833337df765e1920E', symObjAddr: 0x1A00, symBinAddr: 0x10788, symSize: 0x30 }
  - { offsetInCU: 0x3BFD, offset: 0x3648D, size: 0x8, addend: 0x0, symName: '__ZN90_$LT$pyo3..instance..Borrowed$LT$T$GT$$u20$as$u20$pyo3..instance..BoundObject$LT$T$GT$$GT$8into_any17he30753fca25b25bdE', symObjAddr: 0x1A30, symBinAddr: 0x107B8, symSize: 0x24 }
  - { offsetInCU: 0x46D8, offset: 0x36F68, size: 0x8, addend: 0x0, symName: '__ZN4pyo38instance11Py$LT$T$GT$10into_bound17h05b33e6505728134E', symObjAddr: 0xADC, symBinAddr: 0xF864, symSize: 0x1C }
  - { offsetInCU: 0x471F, offset: 0x36FAF, size: 0x8, addend: 0x0, symName: '__ZN4pyo38instance11Py$LT$T$GT$10into_bound17h566dc9a5655ebd16E', symObjAddr: 0xAF8, symBinAddr: 0xF880, symSize: 0x1C }
  - { offsetInCU: 0x4766, offset: 0x36FF6, size: 0x8, addend: 0x0, symName: '__ZN4pyo38instance11Py$LT$T$GT$10into_bound17ha22513d8c82ab76fE', symObjAddr: 0xB14, symBinAddr: 0xF89C, symSize: 0x1C }
  - { offsetInCU: 0x47AD, offset: 0x3703D, size: 0x8, addend: 0x0, symName: '__ZN4pyo38instance11Py$LT$T$GT$13from_non_null17h1a3b586cf6e94e4dE', symObjAddr: 0xB30, symBinAddr: 0xF8B8, symSize: 0x14 }
  - { offsetInCU: 0x47D9, offset: 0x37069, size: 0x8, addend: 0x0, symName: '__ZN4pyo38instance11Py$LT$T$GT$13from_non_null17h3c2d56c6c018b671E', symObjAddr: 0xB44, symBinAddr: 0xF8CC, symSize: 0x14 }
  - { offsetInCU: 0x4805, offset: 0x37095, size: 0x8, addend: 0x0, symName: '__ZN4pyo38instance11Py$LT$T$GT$13from_non_null17h40847e820cb8473aE', symObjAddr: 0xB58, symBinAddr: 0xF8E0, symSize: 0x14 }
  - { offsetInCU: 0x4831, offset: 0x370C1, size: 0x8, addend: 0x0, symName: '__ZN4pyo38instance11Py$LT$T$GT$13from_non_null17ha7cb830d83a39ad7E', symObjAddr: 0xB6C, symBinAddr: 0xF8F4, symSize: 0x14 }
  - { offsetInCU: 0x487E, offset: 0x3710E, size: 0x8, addend: 0x0, symName: '__ZN4pyo38instance11Py$LT$T$GT$16get_class_object17h2896e22eb3eb60cdE', symObjAddr: 0xB80, symBinAddr: 0xF908, symSize: 0x78 }
  - { offsetInCU: 0x48DA, offset: 0x3716A, size: 0x8, addend: 0x0, symName: '__ZN4pyo38instance11Py$LT$T$GT$16get_class_object17h5bbf648d6ffa4b60E', symObjAddr: 0xBF8, symBinAddr: 0xF980, symSize: 0x78 }
  - { offsetInCU: 0x4936, offset: 0x371C6, size: 0x8, addend: 0x0, symName: '__ZN4pyo38instance11Py$LT$T$GT$16get_class_object17hc5c5396db4e06824E', symObjAddr: 0xC70, symBinAddr: 0xF9F8, symSize: 0x78 }
  - { offsetInCU: 0x4978, offset: 0x37208, size: 0x8, addend: 0x0, symName: '__ZN4pyo38instance11Py$LT$T$GT$6as_ptr17h5a46ee772c773552E', symObjAddr: 0xCE8, symBinAddr: 0xFA70, symSize: 0x1C }
  - { offsetInCU: 0x49A4, offset: 0x37234, size: 0x8, addend: 0x0, symName: '__ZN4pyo38instance11Py$LT$T$GT$6as_ptr17h96617c4e31761ff4E', symObjAddr: 0xD04, symBinAddr: 0xFA8C, symSize: 0x1C }
  - { offsetInCU: 0x49DD, offset: 0x3726D, size: 0x8, addend: 0x0, symName: '__ZN4pyo38instance11Py$LT$T$GT$6as_ptr17hab2349458c1cd348E', symObjAddr: 0xD20, symBinAddr: 0xFAA8, symSize: 0x1C }
  - { offsetInCU: 0x4A09, offset: 0x37299, size: 0x8, addend: 0x0, symName: '__ZN4pyo38instance11Py$LT$T$GT$6as_ptr17hcb8e6151d19f5abaE', symObjAddr: 0xD3C, symBinAddr: 0xFAC4, symSize: 0x1C }
  - { offsetInCU: 0x4A35, offset: 0x372C5, size: 0x8, addend: 0x0, symName: '__ZN4pyo38instance11Py$LT$T$GT$8into_any17h513b119a9251e23cE', symObjAddr: 0xD58, symBinAddr: 0xFAE0, symSize: 0x3C }
  - { offsetInCU: 0x4A61, offset: 0x372F1, size: 0x8, addend: 0x0, symName: '__ZN4pyo38instance11Py$LT$T$GT$8into_any17h5b9d19a532821362E', symObjAddr: 0xD94, symBinAddr: 0xFB1C, symSize: 0x3C }
  - { offsetInCU: 0x4A8D, offset: 0x3731D, size: 0x8, addend: 0x0, symName: '__ZN4pyo38instance11Py$LT$T$GT$8into_any17he98761974e0f0650E', symObjAddr: 0xDD0, symBinAddr: 0xFB58, symSize: 0x3C }
  - { offsetInCU: 0x4AB9, offset: 0x37349, size: 0x8, addend: 0x0, symName: '__ZN4pyo38instance11Py$LT$T$GT$8into_ptr17h3c4f4530f0b60313E', symObjAddr: 0xE0C, symBinAddr: 0xFB94, symSize: 0x30 }
  - { offsetInCU: 0x4AE5, offset: 0x37375, size: 0x8, addend: 0x0, symName: '__ZN4pyo38instance11Py$LT$T$GT$9clone_ref17h34239bab4ae37a18E', symObjAddr: 0xE3C, symBinAddr: 0xFBC4, symSize: 0x100 }
  - { offsetInCU: 0x4B8B, offset: 0x3741B, size: 0x8, addend: 0x0, symName: '__ZN4pyo38instance11Py$LT$T$GT$9clone_ref17h57c24fe9c15d3f17E', symObjAddr: 0xF3C, symBinAddr: 0xFCC4, symSize: 0x100 }
  - { offsetInCU: 0x4C31, offset: 0x374C1, size: 0x8, addend: 0x0, symName: '__ZN4pyo38instance11Py$LT$T$GT$9clone_ref17h686614ff334e06c1E', symObjAddr: 0x103C, symBinAddr: 0xFDC4, symSize: 0x100 }
  - { offsetInCU: 0x4CD7, offset: 0x37567, size: 0x8, addend: 0x0, symName: '__ZN4pyo38instance11Py$LT$T$GT$9clone_ref17h97340b9fc9c5ff4eE', symObjAddr: 0x113C, symBinAddr: 0xFEC4, symSize: 0x100 }
  - { offsetInCU: 0x4D8A, offset: 0x3761A, size: 0x8, addend: 0x0, symName: '__ZN4pyo38instance14Bound$LT$T$GT$10try_borrow17h9becce481a853b0cE', symObjAddr: 0x123C, symBinAddr: 0xFFC4, symSize: 0x24 }
  - { offsetInCU: 0x4DC3, offset: 0x37653, size: 0x8, addend: 0x0, symName: '__ZN4pyo38instance14Bound$LT$T$GT$10try_borrow17ha401161f8a754c0cE', symObjAddr: 0x1260, symBinAddr: 0xFFE8, symSize: 0x24 }
  - { offsetInCU: 0x4DFC, offset: 0x3768C, size: 0x8, addend: 0x0, symName: '__ZN4pyo38instance14Bound$LT$T$GT$10try_borrow17hdd740afcbeacfca1E', symObjAddr: 0x1284, symBinAddr: 0x1000C, symSize: 0x24 }
  - { offsetInCU: 0x4E28, offset: 0x376B8, size: 0x8, addend: 0x0, symName: '__ZN4pyo38instance14Bound$LT$T$GT$16get_class_object17habf5e9eab6ee414dE', symObjAddr: 0x12A8, symBinAddr: 0x10030, symSize: 0x2C }
  - { offsetInCU: 0x4E54, offset: 0x376E4, size: 0x8, addend: 0x0, symName: '__ZN4pyo38instance14Bound$LT$T$GT$16get_class_object17hbae20597e8409545E', symObjAddr: 0x12D4, symBinAddr: 0x1005C, symSize: 0x2C }
  - { offsetInCU: 0x4E80, offset: 0x37710, size: 0x8, addend: 0x0, symName: '__ZN4pyo38instance14Bound$LT$T$GT$16get_class_object17he0a9c694482882afE', symObjAddr: 0x1300, symBinAddr: 0x10088, symSize: 0x2C }
  - { offsetInCU: 0x5093, offset: 0x37923, size: 0x8, addend: 0x0, symName: '__ZN4pyo38instance14Bound$LT$T$GT$3new17h03c6f65e05d02930E', symObjAddr: 0x132C, symBinAddr: 0x100B4, symSize: 0x40 }
  - { offsetInCU: 0x50E0, offset: 0x37970, size: 0x8, addend: 0x0, symName: '__ZN4pyo38instance14Bound$LT$T$GT$3new17h236d3b6649be7caeE', symObjAddr: 0x136C, symBinAddr: 0x100F4, symSize: 0x3C }
  - { offsetInCU: 0x512E, offset: 0x379BE, size: 0x8, addend: 0x0, symName: '__ZN4pyo38instance14Bound$LT$T$GT$6as_ptr17h6f7c30839445f517E', symObjAddr: 0x13A8, symBinAddr: 0x10130, symSize: 0x2C }
  - { offsetInCU: 0x515A, offset: 0x379EA, size: 0x8, addend: 0x0, symName: '__ZN4pyo38instance14Bound$LT$T$GT$6as_ptr17h94a65e44348ea983E', symObjAddr: 0x13D4, symBinAddr: 0x1015C, symSize: 0x2C }
  - { offsetInCU: 0x5186, offset: 0x37A16, size: 0x8, addend: 0x0, symName: '__ZN4pyo38instance14Bound$LT$T$GT$6as_ptr17h9bb5717f815b611eE', symObjAddr: 0x1400, symBinAddr: 0x10188, symSize: 0x2C }
  - { offsetInCU: 0x51E6, offset: 0x37A76, size: 0x8, addend: 0x0, symName: '__ZN4pyo38instance14Bound$LT$T$GT$6borrow17hbeed3e7ae48e4861E', symObjAddr: 0x142C, symBinAddr: 0x101B4, symSize: 0x24 }
  - { offsetInCU: 0x5212, offset: 0x37AA2, size: 0x8, addend: 0x0, symName: '__ZN4pyo38instance14Bound$LT$T$GT$6unbind17h6ab455ce1eb37c9bE', symObjAddr: 0x1450, symBinAddr: 0x101D8, symSize: 0x48 }
  - { offsetInCU: 0x525C, offset: 0x37AEC, size: 0x8, addend: 0x0, symName: '__ZN4pyo38instance14Bound$LT$T$GT$6unbind17hb12467df9c321511E', symObjAddr: 0x1498, symBinAddr: 0x10220, symSize: 0x48 }
  - { offsetInCU: 0x52A6, offset: 0x37B36, size: 0x8, addend: 0x0, symName: '__ZN4pyo38instance14Bound$LT$T$GT$6unbind17hd71a9b91f0a6602eE', symObjAddr: 0x14E0, symBinAddr: 0x10268, symSize: 0x48 }
  - { offsetInCU: 0x52F0, offset: 0x37B80, size: 0x8, addend: 0x0, symName: '__ZN4pyo38instance14Bound$LT$T$GT$8into_any17h026838154a244507E', symObjAddr: 0x1528, symBinAddr: 0x102B0, symSize: 0x30 }
  - { offsetInCU: 0x531C, offset: 0x37BAC, size: 0x8, addend: 0x0, symName: '__ZN4pyo38instance14Bound$LT$T$GT$8into_any17h60691411d39ff670E', symObjAddr: 0x1558, symBinAddr: 0x102E0, symSize: 0x30 }
  - { offsetInCU: 0x5348, offset: 0x37BD8, size: 0x8, addend: 0x0, symName: '__ZN4pyo38instance14Bound$LT$T$GT$8into_any17hda7e8907bb0c94b7E', symObjAddr: 0x1588, symBinAddr: 0x10310, symSize: 0x30 }
  - { offsetInCU: 0x5374, offset: 0x37C04, size: 0x8, addend: 0x0, symName: '__ZN4pyo38instance14Bound$LT$T$GT$8into_ptr17h0b07b026b91af85bE', symObjAddr: 0x15B8, symBinAddr: 0x10340, symSize: 0x40 }
  - { offsetInCU: 0x53A0, offset: 0x37C30, size: 0x8, addend: 0x0, symName: '__ZN4pyo38instance14Bound$LT$T$GT$8into_ptr17h0c16697853651348E', symObjAddr: 0x15F8, symBinAddr: 0x10380, symSize: 0x40 }
  - { offsetInCU: 0x53CC, offset: 0x37C5C, size: 0x8, addend: 0x0, symName: '__ZN4pyo38instance14Bound$LT$T$GT$8into_ptr17h5d89486552f1564cE', symObjAddr: 0x1638, symBinAddr: 0x103C0, symSize: 0x40 }
  - { offsetInCU: 0x53F8, offset: 0x37C88, size: 0x8, addend: 0x0, symName: '__ZN4pyo38instance14Bound$LT$T$GT$8into_ptr17ha76a1d8655ef60e7E', symObjAddr: 0x1678, symBinAddr: 0x10400, symSize: 0x40 }
  - { offsetInCU: 0x5424, offset: 0x37CB4, size: 0x8, addend: 0x0, symName: '__ZN4pyo38instance14Bound$LT$T$GT$8into_ptr17hadbce60bf63d812dE', symObjAddr: 0x16B8, symBinAddr: 0x10440, symSize: 0x40 }
  - { offsetInCU: 0x546A, offset: 0x37CFA, size: 0x8, addend: 0x0, symName: '__ZN4pyo38instance17Borrowed$LT$T$GT$6to_any17h892c0aef8399e16aE', symObjAddr: 0x16F8, symBinAddr: 0x10480, symSize: 0x14 }
  - { offsetInCU: 0x5496, offset: 0x37D26, size: 0x8, addend: 0x0, symName: '__ZN4pyo38instance17Borrowed$LT$T$GT$8to_owned17h6fda6cced70eecc1E', symObjAddr: 0x170C, symBinAddr: 0x10494, symSize: 0x2C }
  - { offsetInCU: 0x54C2, offset: 0x37D52, size: 0x8, addend: 0x0, symName: '__ZN4pyo38instance39Borrowed$LT$pyo3..types..any..PyAny$GT$18downcast_unchecked17h31e09d3aae89b38dE', symObjAddr: 0x1758, symBinAddr: 0x104E0, symSize: 0x14 }
  - { offsetInCU: 0x54FB, offset: 0x37D8B, size: 0x8, addend: 0x0, symName: '__ZN4pyo38instance39Borrowed$LT$pyo3..types..any..PyAny$GT$18downcast_unchecked17h960bbd00393c4944E', symObjAddr: 0x176C, symBinAddr: 0x104F4, symSize: 0x14 }
  - { offsetInCU: 0x5534, offset: 0x37DC4, size: 0x8, addend: 0x0, symName: '__ZN4pyo38instance39Borrowed$LT$pyo3..types..any..PyAny$GT$18downcast_unchecked17hd9feaa62bd8934dbE', symObjAddr: 0x1780, symBinAddr: 0x10508, symSize: 0x14 }
  - { offsetInCU: 0x5560, offset: 0x37DF0, size: 0x8, addend: 0x0, symName: '__ZN4pyo38instance39Borrowed$LT$pyo3..types..any..PyAny$GT$18downcast_unchecked17hdae491c5563e9d95E', symObjAddr: 0x1794, symBinAddr: 0x1051C, symSize: 0x14 }
  - { offsetInCU: 0x5599, offset: 0x37E29, size: 0x8, addend: 0x0, symName: '__ZN4pyo38internal8get_slot78_$LT$impl$u20$pyo3..instance..Bound$LT$pyo3..types..typeobject..PyType$GT$$GT$8get_slot17h94ea50c2d59d8e27E', symObjAddr: 0x17A8, symBinAddr: 0x10530, symSize: 0x28 }
  - { offsetInCU: 0x1E, offset: 0x37F6A, size: 0x8, addend: 0x0, symName: __ZN4pyo35types4none6PyNone3get17h03b2435da4100dddE, symObjAddr: 0x0, symBinAddr: 0x107DC, symSize: 0x2C }
  - { offsetInCU: 0x175F, offset: 0x396AB, size: 0x8, addend: 0x0, symName: __ZN4pyo35types4none6PyNone3get17h03b2435da4100dddE, symObjAddr: 0x0, symBinAddr: 0x107DC, symSize: 0x2C }
  - { offsetInCU: 0x1E, offset: 0x396F6, size: 0x8, addend: 0x0, symName: __ZN4pyo37pyclass18create_type_object18create_type_object17h05e52f938fbd2ff1E, symObjAddr: 0x0, symBinAddr: 0x10808, symSize: 0x164 }
  - { offsetInCU: 0x1731, offset: 0x3AE09, size: 0x8, addend: 0x0, symName: __ZN4pyo37pyclass18create_type_object18create_type_object17h05e52f938fbd2ff1E, symObjAddr: 0x0, symBinAddr: 0x10808, symSize: 0x164 }
  - { offsetInCU: 0x178F, offset: 0x3AE67, size: 0x8, addend: 0x0, symName: __ZN4pyo37pyclass18create_type_object18create_type_object17h153246525997c277E, symObjAddr: 0x164, symBinAddr: 0x1096C, symSize: 0x164 }
  - { offsetInCU: 0x17ED, offset: 0x3AEC5, size: 0x8, addend: 0x0, symName: __ZN4pyo37pyclass18create_type_object18create_type_object17h93e83ff17b532b3eE, symObjAddr: 0x2C8, symBinAddr: 0x10AD0, symSize: 0x164 }
  - { offsetInCU: 0x1E, offset: 0x3BAAC, size: 0x8, addend: 0x0, symName: __ZN4pyo35types10typeobject6PyType22from_borrowed_type_ptr17h9924c9f5eb608e5bE, symObjAddr: 0x0, symBinAddr: 0x10C34, symSize: 0x34 }
  - { offsetInCU: 0x1763, offset: 0x3D1F1, size: 0x8, addend: 0x0, symName: __ZN4pyo35types10typeobject6PyType22from_borrowed_type_ptr17h9924c9f5eb608e5bE, symObjAddr: 0x0, symBinAddr: 0x10C34, symSize: 0x34 }
  - { offsetInCU: 0x1E, offset: 0x3D24A, size: 0x8, addend: 0x0, symName: '__ZN106_$LT$core..ops..range..Range$LT$usize$GT$$u20$as$u20$core..slice..index..SliceIndex$LT$$u5b$T$u5d$$GT$$GT$9index_mut17hb94998fa3d02b956E', symObjAddr: 0x0, symBinAddr: 0x10C68, symSize: 0xC0 }
  - { offsetInCU: 0x1207, offset: 0x3E433, size: 0x8, addend: 0x0, symName: '__ZN106_$LT$core..ops..range..Range$LT$usize$GT$$u20$as$u20$core..slice..index..SliceIndex$LT$$u5b$T$u5d$$GT$$GT$9index_mut17hb94998fa3d02b956E', symObjAddr: 0x0, symBinAddr: 0x10C68, symSize: 0xC0 }
  - { offsetInCU: 0x1301, offset: 0x3E52D, size: 0x8, addend: 0x0, symName: '__ZN108_$LT$core..ops..range..RangeTo$LT$usize$GT$$u20$as$u20$core..slice..index..SliceIndex$LT$$u5b$T$u5d$$GT$$GT$9index_mut17h94524b1431d96a0aE', symObjAddr: 0xC0, symBinAddr: 0x10D28, symSize: 0x54 }
  - { offsetInCU: 0x1381, offset: 0x3E5AD, size: 0x8, addend: 0x0, symName: '__ZN110_$LT$core..ops..range..RangeFrom$LT$usize$GT$$u20$as$u20$core..slice..index..SliceIndex$LT$$u5b$T$u5d$$GT$$GT$5index17h30dd50b57cceb3beE', symObjAddr: 0x114, symBinAddr: 0x10D7C, symSize: 0x90 }
  - { offsetInCU: 0x1E, offset: 0x3EE33, size: 0x8, addend: 0x0, symName: '__ZN10slickit_py7_native11__pyo3_init28_$u7b$$u7b$closure$u7d$$u7d$17h9794485be76f1d2bE', symObjAddr: 0x0, symBinAddr: 0x10E0C, symSize: 0x30 }
  - { offsetInCU: 0x141D, offset: 0x40232, size: 0x8, addend: 0x0, symName: '__ZN10slickit_py7_native11__pyo3_init28_$u7b$$u7b$closure$u7d$$u7d$17h9794485be76f1d2bE', symObjAddr: 0x0, symBinAddr: 0x10E0C, symSize: 0x30 }
  - { offsetInCU: 0x1E, offset: 0x40B31, size: 0x8, addend: 0x0, symName: __ZN8pyo3_ffi13unicodeobject15PyUnicode_Check17h9512aa85c723defdE, symObjAddr: 0x0, symBinAddr: 0x10E3C, symSize: 0x30 }
  - { offsetInCU: 0xB9, offset: 0x40BCC, size: 0x8, addend: 0x0, symName: __ZN8pyo3_ffi13unicodeobject15PyUnicode_Check17h9512aa85c723defdE, symObjAddr: 0x0, symBinAddr: 0x10E3C, symSize: 0x30 }
  - { offsetInCU: 0x1E, offset: 0x42069, size: 0x8, addend: 0x0, symName: '__ZN4core4iter6traits8iterator8Iterator12try_for_each4call28_$u7b$$u7b$closure$u7d$$u7d$17h0d689d0540cd9bd4E', symObjAddr: 0x0, symBinAddr: 0x10E6C, symSize: 0x2C }
  - { offsetInCU: 0x626, offset: 0x42671, size: 0x8, addend: 0x0, symName: '__ZN4core4iter6traits8iterator8Iterator12try_for_each4call28_$u7b$$u7b$closure$u7d$$u7d$17h0d689d0540cd9bd4E', symObjAddr: 0x0, symBinAddr: 0x10E6C, symSize: 0x2C }
  - { offsetInCU: 0x697, offset: 0x426E2, size: 0x8, addend: 0x0, symName: '__ZN4core4iter6traits8iterator8Iterator8for_each4call28_$u7b$$u7b$closure$u7d$$u7d$17h4298f1448ebef72cE', symObjAddr: 0x2C, symBinAddr: 0x10E98, symSize: 0x28 }
  - { offsetInCU: 0x1E, offset: 0x42B5E, size: 0x8, addend: 0x0, symName: '__ZN128_$LT$pyo3..impl_..pyclass_init..PyNativeTypeInitializer$LT$T$GT$$u20$as$u20$pyo3..impl_..pyclass_init..PyObjectInit$LT$T$GT$$GT$15into_new_object17he9c476a6d0d42d8aE', symObjAddr: 0x0, symBinAddr: 0x10EC0, symSize: 0x3C }
  - { offsetInCU: 0x1422, offset: 0x43F62, size: 0x8, addend: 0x0, symName: '__ZN128_$LT$pyo3..impl_..pyclass_init..PyNativeTypeInitializer$LT$T$GT$$u20$as$u20$pyo3..impl_..pyclass_init..PyObjectInit$LT$T$GT$$GT$15into_new_object17he9c476a6d0d42d8aE', symObjAddr: 0x0, symBinAddr: 0x10EC0, symSize: 0x3C }
  - { offsetInCU: 0x14A6, offset: 0x43FE6, size: 0x8, addend: 0x0, symName: '__ZN128_$LT$pyo3..impl_..pyclass_init..PyNativeTypeInitializer$LT$T$GT$$u20$as$u20$pyo3..impl_..pyclass_init..PyObjectInit$LT$T$GT$$GT$17can_be_subclassed17h1e1b89b770df46b6E', symObjAddr: 0x3C, symBinAddr: 0x10EFC, symSize: 0x18 }
  - { offsetInCU: 0x1E, offset: 0x448A7, size: 0x8, addend: 0x0, symName: __ZN10serde_core2de7Visitor18visit_borrowed_str17h3778e7a434c963aaE, symObjAddr: 0x0, symBinAddr: 0x10F14, symSize: 0x28 }
  - { offsetInCU: 0xE6, offset: 0x4496F, size: 0x8, addend: 0x0, symName: '__ZN175_$LT$slick..manifest.._..$LT$impl$u20$serde_core..de..Deserialize$u20$for$u20$slick..manifest..ComponentKind$GT$..deserialize..__Visitor$u20$as$u20$serde_core..de..Visitor$GT$10visit_enum17h9626b786ebb9aa16E', symObjAddr: 0x50, symBinAddr: 0x10F64, symSize: 0x230 }
  - { offsetInCU: 0x21D, offset: 0x44AA6, size: 0x8, addend: 0x0, symName: '__ZN175_$LT$slick..manifest.._..$LT$impl$u20$serde_core..de..Deserialize$u20$for$u20$slick..manifest..ComponentKind$GT$..deserialize..__Visitor$u20$as$u20$serde_core..de..Visitor$GT$10visit_enum17ha56dce2568bcf1f2E', symObjAddr: 0x280, symBinAddr: 0x11194, symSize: 0x230 }
  - { offsetInCU: 0x354, offset: 0x44BDD, size: 0x8, addend: 0x0, symName: '__ZN179_$LT$slick..manifest.._..$LT$impl$u20$serde_core..de..Deserialize$u20$for$u20$slick..manifest..ComponentManifest$GT$..deserialize..__Visitor$u20$as$u20$serde_core..de..Visitor$GT$9visit_map17h389e32c6d46857a0E', symObjAddr: 0x4D4, symBinAddr: 0x113E8, symSize: 0xDB0 }
  - { offsetInCU: 0x6A9, offset: 0x44F32, size: 0x8, addend: 0x0, symName: '__ZN179_$LT$slick..manifest.._..$LT$impl$u20$serde_core..de..Deserialize$u20$for$u20$slick..manifest..ComponentManifest$GT$..deserialize..__Visitor$u20$as$u20$serde_core..de..Visitor$GT$9visit_seq17h2e20db98a2454fc3E', symObjAddr: 0x1284, symBinAddr: 0x12198, symSize: 0x578 }
  - { offsetInCU: 0x837, offset: 0x450C0, size: 0x8, addend: 0x0, symName: '__ZN177_$LT$slick..manifest.._..$LT$impl$u20$serde_core..de..Deserialize$u20$for$u20$slick..manifest..ComponentKind$GT$..deserialize..__Field$u20$as$u20$serde_core..de..Deserialize$GT$11deserialize17hb14a8990298491c5E', symObjAddr: 0x4B0, symBinAddr: 0x113C4, symSize: 0x24 }
  - { offsetInCU: 0x86C, offset: 0x450F5, size: 0x8, addend: 0x0, symName: '__ZN181_$LT$slick..manifest.._..$LT$impl$u20$serde_core..de..Deserialize$u20$for$u20$slick..manifest..ComponentManifest$GT$..deserialize..__Field$u20$as$u20$serde_core..de..Deserialize$GT$11deserialize17hd5b83233b1a0258eE', symObjAddr: 0x1950, symBinAddr: 0x12864, symSize: 0x24 }
  - { offsetInCU: 0x8A7, offset: 0x45130, size: 0x8, addend: 0x0, symName: '__ZN180_$LT$slick..manifest.._..$LT$impl$u20$serde_core..de..Deserialize$u20$for$u20$slick..manifest..ComponentKind$GT$..deserialize..__FieldVisitor$u20$as$u20$serde_core..de..Visitor$GT$9visit_str17hfbf6ca2570baf6beE', symObjAddr: 0x17FC, symBinAddr: 0x12710, symSize: 0x154 }
  - { offsetInCU: 0x8F5, offset: 0x4517E, size: 0x8, addend: 0x0, symName: '__ZN184_$LT$slick..manifest.._..$LT$impl$u20$serde_core..de..Deserialize$u20$for$u20$slick..manifest..ComponentManifest$GT$..deserialize..__FieldVisitor$u20$as$u20$serde_core..de..Visitor$GT$9visit_str17h0ccb4ff9e6559f58E', symObjAddr: 0x1974, symBinAddr: 0x12888, symSize: 0x180 }
  - { offsetInCU: 0x997, offset: 0x45220, size: 0x8, addend: 0x0, symName: '__ZN5slick8manifest1_87_$LT$impl$u20$serde_core..ser..Serialize$u20$for$u20$slick..manifest..ComponentKind$GT$9serialize17h4464d3d9543d2742E', symObjAddr: 0x1B6C, symBinAddr: 0x12A80, symSize: 0x130 }
  - { offsetInCU: 0x9DA, offset: 0x45263, size: 0x8, addend: 0x0, symName: '__ZN5slick8manifest1_88_$LT$impl$u20$serde_core..de..Deserialize$u20$for$u20$slick..manifest..ComponentKind$GT$11deserialize17h3bcdb62a5b245458E', symObjAddr: 0x1C9C, symBinAddr: 0x12BB0, symSize: 0x48 }
  - { offsetInCU: 0xA0F, offset: 0x45298, size: 0x8, addend: 0x0, symName: '__ZN5slick8manifest1_88_$LT$impl$u20$serde_core..de..Deserialize$u20$for$u20$slick..manifest..ComponentKind$GT$11deserialize17h82e20fc5c616a0e7E', symObjAddr: 0x1CE4, symBinAddr: 0x12BF8, symSize: 0x44 }
  - { offsetInCU: 0xA44, offset: 0x452CD, size: 0x8, addend: 0x0, symName: '__ZN5slick8manifest1_91_$LT$impl$u20$serde_core..ser..Serialize$u20$for$u20$slick..manifest..ComponentManifest$GT$9serialize17he68d33e3d453bc51E', symObjAddr: 0x1D28, symBinAddr: 0x12C3C, symSize: 0x54C }
  - { offsetInCU: 0xB59, offset: 0x453E2, size: 0x8, addend: 0x0, symName: '__ZN5slick8manifest1_92_$LT$impl$u20$serde_core..de..Deserialize$u20$for$u20$slick..manifest..ComponentManifest$GT$11deserialize17h03355b86d64c6e26E', symObjAddr: 0x2274, symBinAddr: 0x13188, symSize: 0x44 }
  - { offsetInCU: 0x132B, offset: 0x45BB4, size: 0x8, addend: 0x0, symName: __ZN10serde_core2de7Visitor18visit_borrowed_str17h3778e7a434c963aaE, symObjAddr: 0x0, symBinAddr: 0x10F14, symSize: 0x28 }
  - { offsetInCU: 0x137A, offset: 0x45C03, size: 0x8, addend: 0x0, symName: __ZN10serde_core2de7Visitor18visit_borrowed_str17hcc507cf7c5b20d71E, symObjAddr: 0x28, symBinAddr: 0x10F3C, symSize: 0x28 }
  - { offsetInCU: 0x13CF, offset: 0x45C58, size: 0x8, addend: 0x0, symName: '__ZN46_$LT$T$u20$as$u20$serde_core..de..Expected$GT$3fmt17h2579293f6d453c76E', symObjAddr: 0x1AF4, symBinAddr: 0x12A08, symSize: 0x2C }
  - { offsetInCU: 0x1415, offset: 0x45C9E, size: 0x8, addend: 0x0, symName: '__ZN46_$LT$T$u20$as$u20$serde_core..de..Expected$GT$3fmt17hc684d07e7e65e66bE', symObjAddr: 0x1B20, symBinAddr: 0x12A34, symSize: 0x2C }
  - { offsetInCU: 0x146D, offset: 0x45CF6, size: 0x8, addend: 0x0, symName: '__ZN50_$LT$T$u20$as$u20$core..convert..Into$LT$U$GT$$GT$4into17he11f647e256ec83fE', symObjAddr: 0x1B4C, symBinAddr: 0x12A60, symSize: 0x20 }
  - { offsetInCU: 0x1E, offset: 0x46715, size: 0x8, addend: 0x0, symName: __ZN4pyo35types8sequence16extract_sequence17h616c5b62097bfae2E, symObjAddr: 0x0, symBinAddr: 0x131CC, symSize: 0x3BC }
  - { offsetInCU: 0x1631, offset: 0x47D28, size: 0x8, addend: 0x0, symName: __ZN4pyo35types8sequence16extract_sequence17h616c5b62097bfae2E, symObjAddr: 0x0, symBinAddr: 0x131CC, symSize: 0x3BC }
  - { offsetInCU: 0x1E, offset: 0x4890E, size: 0x8, addend: 0x0, symName: '__ZN87_$LT$$BP$mut$u20$pyo3_ffi..object..PyObject$u20$as$u20$pyo3..ffi_ptr_ext..FfiPtrExt$GT$12assume_owned17hcd66b65a38d8e548E', symObjAddr: 0x0, symBinAddr: 0x13588, symSize: 0x24 }
  - { offsetInCU: 0x71, offset: 0x48961, size: 0x8, addend: 0x0, symName: __ZN8pyo3_ffi6object10Py_IS_TYPE17h37bd33a1077aa7c8E, symObjAddr: 0x90, symBinAddr: 0x13618, symSize: 0x38 }
  - { offsetInCU: 0xAB, offset: 0x4899B, size: 0x8, addend: 0x0, symName: __ZN8pyo3_ffi6object17PyType_HasFeature17h853ef312494c8e96E, symObjAddr: 0xC8, symBinAddr: 0x13650, symSize: 0x8C }
  - { offsetInCU: 0x106, offset: 0x489F6, size: 0x8, addend: 0x0, symName: __ZN8pyo3_ffi6object17Py_NotImplemented17h7cb8d292b767e491E, symObjAddr: 0x154, symBinAddr: 0x136DC, symSize: 0xC }
  - { offsetInCU: 0x124, offset: 0x48A14, size: 0x8, addend: 0x0, symName: __ZN8pyo3_ffi6object18PyObject_TypeCheck17h47c17f730df2f56cE, symObjAddr: 0x160, symBinAddr: 0x136E8, symSize: 0x70 }
  - { offsetInCU: 0x161, offset: 0x48A51, size: 0x8, addend: 0x0, symName: __ZN8pyo3_ffi6object19PyType_FastSubclass17h74bc57801b87d373E, symObjAddr: 0x1D0, symBinAddr: 0x13758, symSize: 0x28 }
  - { offsetInCU: 0x19E, offset: 0x48A8E, size: 0x8, addend: 0x0, symName: __ZN8pyo3_ffi6object7Py_None17h3429e6fb862313b6E, symObjAddr: 0x1F8, symBinAddr: 0x13780, symSize: 0xC }
  - { offsetInCU: 0x1BC, offset: 0x48AAC, size: 0x8, addend: 0x0, symName: __ZN8pyo3_ffi6object7Py_TYPE17h3a7e812f8304abd4E, symObjAddr: 0x204, symBinAddr: 0x1378C, symSize: 0x74 }
  - { offsetInCU: 0x1380, offset: 0x49C70, size: 0x8, addend: 0x0, symName: '__ZN87_$LT$$BP$mut$u20$pyo3_ffi..object..PyObject$u20$as$u20$pyo3..ffi_ptr_ext..FfiPtrExt$GT$12assume_owned17hcd66b65a38d8e548E', symObjAddr: 0x0, symBinAddr: 0x13588, symSize: 0x24 }
  - { offsetInCU: 0x13C5, offset: 0x49CB5, size: 0x8, addend: 0x0, symName: '__ZN87_$LT$$BP$mut$u20$pyo3_ffi..object..PyObject$u20$as$u20$pyo3..ffi_ptr_ext..FfiPtrExt$GT$15assume_borrowed17hac20995979c6d38bE', symObjAddr: 0x24, symBinAddr: 0x135AC, symSize: 0x24 }
  - { offsetInCU: 0x140A, offset: 0x49CFA, size: 0x8, addend: 0x0, symName: '__ZN87_$LT$$BP$mut$u20$pyo3_ffi..object..PyObject$u20$as$u20$pyo3..ffi_ptr_ext..FfiPtrExt$GT$22assume_borrowed_or_opt17hbee53575cd01ffdcE', symObjAddr: 0x48, symBinAddr: 0x135D0, symSize: 0x24 }
  - { offsetInCU: 0x144F, offset: 0x49D3F, size: 0x8, addend: 0x0, symName: '__ZN87_$LT$$BP$mut$u20$pyo3_ffi..object..PyObject$u20$as$u20$pyo3..ffi_ptr_ext..FfiPtrExt$GT$25assume_borrowed_unchecked17hd63c5b0d9cc54923E', symObjAddr: 0x6C, symBinAddr: 0x135F4, symSize: 0x24 }
  - { offsetInCU: 0x1E, offset: 0x4A389, size: 0x8, addend: 0x0, symName: '__ZN106_$LT$core..result..Result$LT$T$C$E$GT$$u20$as$u20$pyo3..impl_..callback..IntoPyCallbackOutput$LT$U$GT$$GT$7convert17h6f08feb3b073a97bE', symObjAddr: 0x0, symBinAddr: 0x13800, symSize: 0xA0 }
  - { offsetInCU: 0x114, offset: 0x4A47F, size: 0x8, addend: 0x0, symName: '__ZN106_$LT$core..result..Result$LT$T$C$E$GT$$u20$as$u20$pyo3..impl_..callback..IntoPyCallbackOutput$LT$U$GT$$GT$7convert17h6f08feb3b073a97bE', symObjAddr: 0x0, symBinAddr: 0x13800, symSize: 0xA0 }
  - { offsetInCU: 0x1AF, offset: 0x4A51A, size: 0x8, addend: 0x0, symName: '__ZN106_$LT$core..result..Result$LT$T$C$E$GT$$u20$as$u20$pyo3..impl_..callback..IntoPyCallbackOutput$LT$U$GT$$GT$7convert17h7ea068089dd40d5aE', symObjAddr: 0xA0, symBinAddr: 0x138A0, symSize: 0xA0 }
  - { offsetInCU: 0x24A, offset: 0x4A5B5, size: 0x8, addend: 0x0, symName: '__ZN106_$LT$core..result..Result$LT$T$C$E$GT$$u20$as$u20$pyo3..impl_..callback..IntoPyCallbackOutput$LT$U$GT$$GT$7convert17h98630c9d4c43763eE', symObjAddr: 0x140, symBinAddr: 0x13940, symSize: 0xB4 }
  - { offsetInCU: 0x22EF, offset: 0x4C65A, size: 0x8, addend: 0x0, symName: '__ZN153_$LT$core..result..Result$LT$T$C$F$GT$$u20$as$u20$core..ops..try_trait..FromResidual$LT$core..result..Result$LT$core..convert..Infallible$C$E$GT$$GT$$GT$13from_residual17h083264741d49da7cE', symObjAddr: 0x1F4, symBinAddr: 0x139F4, symSize: 0x6C }
  - { offsetInCU: 0x2375, offset: 0x4C6E0, size: 0x8, addend: 0x0, symName: '__ZN153_$LT$core..result..Result$LT$T$C$F$GT$$u20$as$u20$core..ops..try_trait..FromResidual$LT$core..result..Result$LT$core..convert..Infallible$C$E$GT$$GT$$GT$13from_residual17h0b69f7ea3dc3765fE', symObjAddr: 0x260, symBinAddr: 0x13A60, symSize: 0x64 }
  - { offsetInCU: 0x23DD, offset: 0x4C748, size: 0x8, addend: 0x0, symName: '__ZN153_$LT$core..result..Result$LT$T$C$F$GT$$u20$as$u20$core..ops..try_trait..FromResidual$LT$core..result..Result$LT$core..convert..Infallible$C$E$GT$$GT$$GT$13from_residual17h18a2df86b3145e4cE', symObjAddr: 0x2C4, symBinAddr: 0x13AC4, symSize: 0x6C }
  - { offsetInCU: 0x2463, offset: 0x4C7CE, size: 0x8, addend: 0x0, symName: '__ZN153_$LT$core..result..Result$LT$T$C$F$GT$$u20$as$u20$core..ops..try_trait..FromResidual$LT$core..result..Result$LT$core..convert..Infallible$C$E$GT$$GT$$GT$13from_residual17h4f93376e697fa699E', symObjAddr: 0x330, symBinAddr: 0x13B30, symSize: 0x64 }
  - { offsetInCU: 0x24CB, offset: 0x4C836, size: 0x8, addend: 0x0, symName: '__ZN153_$LT$core..result..Result$LT$T$C$F$GT$$u20$as$u20$core..ops..try_trait..FromResidual$LT$core..result..Result$LT$core..convert..Infallible$C$E$GT$$GT$$GT$13from_residual17h6c90014adcd0c7a4E', symObjAddr: 0x394, symBinAddr: 0x13B94, symSize: 0x4C }
  - { offsetInCU: 0x2532, offset: 0x4C89D, size: 0x8, addend: 0x0, symName: '__ZN153_$LT$core..result..Result$LT$T$C$F$GT$$u20$as$u20$core..ops..try_trait..FromResidual$LT$core..result..Result$LT$core..convert..Infallible$C$E$GT$$GT$$GT$13from_residual17h6f1dbbe8861dacc2E', symObjAddr: 0x3E0, symBinAddr: 0x13BE0, symSize: 0x6C }
  - { offsetInCU: 0x25B8, offset: 0x4C923, size: 0x8, addend: 0x0, symName: '__ZN153_$LT$core..result..Result$LT$T$C$F$GT$$u20$as$u20$core..ops..try_trait..FromResidual$LT$core..result..Result$LT$core..convert..Infallible$C$E$GT$$GT$$GT$13from_residual17h6fadf4679d048a29E', symObjAddr: 0x44C, symBinAddr: 0x13C4C, symSize: 0x6C }
  - { offsetInCU: 0x263E, offset: 0x4C9A9, size: 0x8, addend: 0x0, symName: '__ZN153_$LT$core..result..Result$LT$T$C$F$GT$$u20$as$u20$core..ops..try_trait..FromResidual$LT$core..result..Result$LT$core..convert..Infallible$C$E$GT$$GT$$GT$13from_residual17h7cc74d9834a69f08E', symObjAddr: 0x4B8, symBinAddr: 0x13CB8, symSize: 0x6C }
  - { offsetInCU: 0x26C4, offset: 0x4CA2F, size: 0x8, addend: 0x0, symName: '__ZN153_$LT$core..result..Result$LT$T$C$F$GT$$u20$as$u20$core..ops..try_trait..FromResidual$LT$core..result..Result$LT$core..convert..Infallible$C$E$GT$$GT$$GT$13from_residual17h7f87f180c2b4309cE', symObjAddr: 0x524, symBinAddr: 0x13D24, symSize: 0x64 }
  - { offsetInCU: 0x272C, offset: 0x4CA97, size: 0x8, addend: 0x0, symName: '__ZN153_$LT$core..result..Result$LT$T$C$F$GT$$u20$as$u20$core..ops..try_trait..FromResidual$LT$core..result..Result$LT$core..convert..Infallible$C$E$GT$$GT$$GT$13from_residual17h8d305837d436adcbE', symObjAddr: 0x588, symBinAddr: 0x13D88, symSize: 0x6C }
  - { offsetInCU: 0x27B2, offset: 0x4CB1D, size: 0x8, addend: 0x0, symName: '__ZN153_$LT$core..result..Result$LT$T$C$F$GT$$u20$as$u20$core..ops..try_trait..FromResidual$LT$core..result..Result$LT$core..convert..Infallible$C$E$GT$$GT$$GT$13from_residual17h8d52abf268445da6E', symObjAddr: 0x5F4, symBinAddr: 0x13DF4, symSize: 0x6C }
  - { offsetInCU: 0x2838, offset: 0x4CBA3, size: 0x8, addend: 0x0, symName: '__ZN153_$LT$core..result..Result$LT$T$C$F$GT$$u20$as$u20$core..ops..try_trait..FromResidual$LT$core..result..Result$LT$core..convert..Infallible$C$E$GT$$GT$$GT$13from_residual17h999811ad501288eeE', symObjAddr: 0x660, symBinAddr: 0x13E60, symSize: 0x4C }
  - { offsetInCU: 0x289F, offset: 0x4CC0A, size: 0x8, addend: 0x0, symName: '__ZN153_$LT$core..result..Result$LT$T$C$F$GT$$u20$as$u20$core..ops..try_trait..FromResidual$LT$core..result..Result$LT$core..convert..Infallible$C$E$GT$$GT$$GT$13from_residual17h9bd51183b5c930e6E', symObjAddr: 0x6AC, symBinAddr: 0x13EAC, symSize: 0x6C }
  - { offsetInCU: 0x2925, offset: 0x4CC90, size: 0x8, addend: 0x0, symName: '__ZN153_$LT$core..result..Result$LT$T$C$F$GT$$u20$as$u20$core..ops..try_trait..FromResidual$LT$core..result..Result$LT$core..convert..Infallible$C$E$GT$$GT$$GT$13from_residual17ha185bf1d1c0a685cE', symObjAddr: 0x718, symBinAddr: 0x13F18, symSize: 0x6C }
  - { offsetInCU: 0x29AB, offset: 0x4CD16, size: 0x8, addend: 0x0, symName: '__ZN153_$LT$core..result..Result$LT$T$C$F$GT$$u20$as$u20$core..ops..try_trait..FromResidual$LT$core..result..Result$LT$core..convert..Infallible$C$E$GT$$GT$$GT$13from_residual17hb13cac0041b5bd3aE', symObjAddr: 0x784, symBinAddr: 0x13F84, symSize: 0x6C }
  - { offsetInCU: 0x2A31, offset: 0x4CD9C, size: 0x8, addend: 0x0, symName: '__ZN153_$LT$core..result..Result$LT$T$C$F$GT$$u20$as$u20$core..ops..try_trait..FromResidual$LT$core..result..Result$LT$core..convert..Infallible$C$E$GT$$GT$$GT$13from_residual17hb25b445055ad2234E', symObjAddr: 0x7F0, symBinAddr: 0x13FF0, symSize: 0x2C }
  - { offsetInCU: 0x2A98, offset: 0x4CE03, size: 0x8, addend: 0x0, symName: '__ZN153_$LT$core..result..Result$LT$T$C$F$GT$$u20$as$u20$core..ops..try_trait..FromResidual$LT$core..result..Result$LT$core..convert..Infallible$C$E$GT$$GT$$GT$13from_residual17hb2b10a614a9207ceE', symObjAddr: 0x81C, symBinAddr: 0x1401C, symSize: 0x6C }
  - { offsetInCU: 0x2B1E, offset: 0x4CE89, size: 0x8, addend: 0x0, symName: '__ZN153_$LT$core..result..Result$LT$T$C$F$GT$$u20$as$u20$core..ops..try_trait..FromResidual$LT$core..result..Result$LT$core..convert..Infallible$C$E$GT$$GT$$GT$13from_residual17hbfe2d8c573c50260E', symObjAddr: 0x888, symBinAddr: 0x14088, symSize: 0x2C }
  - { offsetInCU: 0x2B85, offset: 0x4CEF0, size: 0x8, addend: 0x0, symName: '__ZN153_$LT$core..result..Result$LT$T$C$F$GT$$u20$as$u20$core..ops..try_trait..FromResidual$LT$core..result..Result$LT$core..convert..Infallible$C$E$GT$$GT$$GT$13from_residual17hde50e2d451038430E', symObjAddr: 0x8B4, symBinAddr: 0x140B4, symSize: 0x64 }
  - { offsetInCU: 0x2BED, offset: 0x4CF58, size: 0x8, addend: 0x0, symName: '__ZN153_$LT$core..result..Result$LT$T$C$F$GT$$u20$as$u20$core..ops..try_trait..FromResidual$LT$core..result..Result$LT$core..convert..Infallible$C$E$GT$$GT$$GT$13from_residual17he34b23af23293004E', symObjAddr: 0x918, symBinAddr: 0x14118, symSize: 0x6C }
  - { offsetInCU: 0x489E, offset: 0x4EC09, size: 0x8, addend: 0x0, symName: '__ZN79_$LT$core..result..Result$LT$T$C$E$GT$$u20$as$u20$core..ops..try_trait..Try$GT$11from_output17h17b8cb946639af44E', symObjAddr: 0x1E34, symBinAddr: 0x15634, symSize: 0x18 }
  - { offsetInCU: 0x48DE, offset: 0x4EC49, size: 0x8, addend: 0x0, symName: '__ZN79_$LT$core..result..Result$LT$T$C$E$GT$$u20$as$u20$core..ops..try_trait..Try$GT$6branch17h079a3d6817e095b1E', symObjAddr: 0x1E4C, symBinAddr: 0x1564C, symSize: 0x48 }
  - { offsetInCU: 0x495A, offset: 0x4ECC5, size: 0x8, addend: 0x0, symName: '__ZN79_$LT$core..result..Result$LT$T$C$E$GT$$u20$as$u20$core..ops..try_trait..Try$GT$6branch17h0d430fe1bc08c4bdE', symObjAddr: 0x1E94, symBinAddr: 0x15694, symSize: 0x78 }
  - { offsetInCU: 0x49D7, offset: 0x4ED42, size: 0x8, addend: 0x0, symName: '__ZN79_$LT$core..result..Result$LT$T$C$E$GT$$u20$as$u20$core..ops..try_trait..Try$GT$6branch17h12aae96c96cafaedE', symObjAddr: 0x1F0C, symBinAddr: 0x1570C, symSize: 0x78 }
  - { offsetInCU: 0x4A54, offset: 0x4EDBF, size: 0x8, addend: 0x0, symName: '__ZN79_$LT$core..result..Result$LT$T$C$E$GT$$u20$as$u20$core..ops..try_trait..Try$GT$6branch17h28496347c2857545E', symObjAddr: 0x1F84, symBinAddr: 0x15784, symSize: 0xC4 }
  - { offsetInCU: 0x4AD3, offset: 0x4EE3E, size: 0x8, addend: 0x0, symName: '__ZN79_$LT$core..result..Result$LT$T$C$E$GT$$u20$as$u20$core..ops..try_trait..Try$GT$6branch17h29b361ae1f4b28f8E', symObjAddr: 0x2048, symBinAddr: 0x15848, symSize: 0xB4 }
  - { offsetInCU: 0x4B51, offset: 0x4EEBC, size: 0x8, addend: 0x0, symName: '__ZN79_$LT$core..result..Result$LT$T$C$E$GT$$u20$as$u20$core..ops..try_trait..Try$GT$6branch17h2be1dbe6d24150d6E', symObjAddr: 0x20FC, symBinAddr: 0x158FC, symSize: 0x64 }
  - { offsetInCU: 0x4BCE, offset: 0x4EF39, size: 0x8, addend: 0x0, symName: '__ZN79_$LT$core..result..Result$LT$T$C$E$GT$$u20$as$u20$core..ops..try_trait..Try$GT$6branch17h303cf6af211b4177E', symObjAddr: 0x2160, symBinAddr: 0x15960, symSize: 0xA0 }
  - { offsetInCU: 0x4C4B, offset: 0x4EFB6, size: 0x8, addend: 0x0, symName: '__ZN79_$LT$core..result..Result$LT$T$C$E$GT$$u20$as$u20$core..ops..try_trait..Try$GT$6branch17h444854510449bb29E', symObjAddr: 0x2200, symBinAddr: 0x15A00, symSize: 0xA0 }
  - { offsetInCU: 0x4CC8, offset: 0x4F033, size: 0x8, addend: 0x0, symName: '__ZN79_$LT$core..result..Result$LT$T$C$E$GT$$u20$as$u20$core..ops..try_trait..Try$GT$6branch17h4627858fa107a8d0E', symObjAddr: 0x22A0, symBinAddr: 0x15AA0, symSize: 0xA0 }
  - { offsetInCU: 0x4D45, offset: 0x4F0B0, size: 0x8, addend: 0x0, symName: '__ZN79_$LT$core..result..Result$LT$T$C$E$GT$$u20$as$u20$core..ops..try_trait..Try$GT$6branch17h64dc919168114194E', symObjAddr: 0x2340, symBinAddr: 0x15B40, symSize: 0xA0 }
  - { offsetInCU: 0x4DC2, offset: 0x4F12D, size: 0x8, addend: 0x0, symName: '__ZN79_$LT$core..result..Result$LT$T$C$E$GT$$u20$as$u20$core..ops..try_trait..Try$GT$6branch17h6adb7b0c6ad7e3b2E', symObjAddr: 0x23E0, symBinAddr: 0x15BE0, symSize: 0xB4 }
  - { offsetInCU: 0x4E40, offset: 0x4F1AB, size: 0x8, addend: 0x0, symName: '__ZN79_$LT$core..result..Result$LT$T$C$E$GT$$u20$as$u20$core..ops..try_trait..Try$GT$6branch17h6bfd7596281b2ac1E', symObjAddr: 0x2494, symBinAddr: 0x15C94, symSize: 0x88 }
  - { offsetInCU: 0x4EBE, offset: 0x4F229, size: 0x8, addend: 0x0, symName: '__ZN79_$LT$core..result..Result$LT$T$C$E$GT$$u20$as$u20$core..ops..try_trait..Try$GT$6branch17h6ceaa8e96a19b783E', symObjAddr: 0x251C, symBinAddr: 0x15D1C, symSize: 0x78 }
  - { offsetInCU: 0x4F3B, offset: 0x4F2A6, size: 0x8, addend: 0x0, symName: '__ZN79_$LT$core..result..Result$LT$T$C$E$GT$$u20$as$u20$core..ops..try_trait..Try$GT$6branch17h825d458e1d8f9d10E', symObjAddr: 0x2594, symBinAddr: 0x15D94, symSize: 0x84 }
  - { offsetInCU: 0x4FB8, offset: 0x4F323, size: 0x8, addend: 0x0, symName: '__ZN79_$LT$core..result..Result$LT$T$C$E$GT$$u20$as$u20$core..ops..try_trait..Try$GT$6branch17h85df217a2623ad81E', symObjAddr: 0x2618, symBinAddr: 0x15E18, symSize: 0xCC }
  - { offsetInCU: 0x5036, offset: 0x4F3A1, size: 0x8, addend: 0x0, symName: '__ZN79_$LT$core..result..Result$LT$T$C$E$GT$$u20$as$u20$core..ops..try_trait..Try$GT$6branch17h9079b49391dbf69cE', symObjAddr: 0x26E4, symBinAddr: 0x15EE4, symSize: 0x88 }
  - { offsetInCU: 0x50B4, offset: 0x4F41F, size: 0x8, addend: 0x0, symName: '__ZN79_$LT$core..result..Result$LT$T$C$E$GT$$u20$as$u20$core..ops..try_trait..Try$GT$6branch17h912a6b51ea3ea288E', symObjAddr: 0x276C, symBinAddr: 0x15F6C, symSize: 0x84 }
  - { offsetInCU: 0x5131, offset: 0x4F49C, size: 0x8, addend: 0x0, symName: '__ZN79_$LT$core..result..Result$LT$T$C$E$GT$$u20$as$u20$core..ops..try_trait..Try$GT$6branch17h92ceffff3df94fc3E', symObjAddr: 0x27F0, symBinAddr: 0x15FF0, symSize: 0xA0 }
  - { offsetInCU: 0x51AE, offset: 0x4F519, size: 0x8, addend: 0x0, symName: '__ZN79_$LT$core..result..Result$LT$T$C$E$GT$$u20$as$u20$core..ops..try_trait..Try$GT$6branch17h994ab5d262a1cc21E', symObjAddr: 0x2890, symBinAddr: 0x16090, symSize: 0x8C }
  - { offsetInCU: 0x522B, offset: 0x4F596, size: 0x8, addend: 0x0, symName: '__ZN79_$LT$core..result..Result$LT$T$C$E$GT$$u20$as$u20$core..ops..try_trait..Try$GT$6branch17h9a5fade9112ca71dE', symObjAddr: 0x291C, symBinAddr: 0x1611C, symSize: 0xB4 }
  - { offsetInCU: 0x52A9, offset: 0x4F614, size: 0x8, addend: 0x0, symName: '__ZN79_$LT$core..result..Result$LT$T$C$E$GT$$u20$as$u20$core..ops..try_trait..Try$GT$6branch17ha24e5c1786334693E', symObjAddr: 0x29D0, symBinAddr: 0x161D0, symSize: 0xA0 }
  - { offsetInCU: 0x5326, offset: 0x4F691, size: 0x8, addend: 0x0, symName: '__ZN79_$LT$core..result..Result$LT$T$C$E$GT$$u20$as$u20$core..ops..try_trait..Try$GT$6branch17haa9c9fdfa1bb04d1E', symObjAddr: 0x2A70, symBinAddr: 0x16270, symSize: 0x44 }
  - { offsetInCU: 0x53A2, offset: 0x4F70D, size: 0x8, addend: 0x0, symName: '__ZN79_$LT$core..result..Result$LT$T$C$E$GT$$u20$as$u20$core..ops..try_trait..Try$GT$6branch17hacb30e931f6adac9E', symObjAddr: 0x2AB4, symBinAddr: 0x162B4, symSize: 0xA0 }
  - { offsetInCU: 0x541F, offset: 0x4F78A, size: 0x8, addend: 0x0, symName: '__ZN79_$LT$core..result..Result$LT$T$C$E$GT$$u20$as$u20$core..ops..try_trait..Try$GT$6branch17hb2420b166c9e6d11E', symObjAddr: 0x2B54, symBinAddr: 0x16354, symSize: 0x64 }
  - { offsetInCU: 0x549C, offset: 0x4F807, size: 0x8, addend: 0x0, symName: '__ZN79_$LT$core..result..Result$LT$T$C$E$GT$$u20$as$u20$core..ops..try_trait..Try$GT$6branch17hb405d6d9332d1344E', symObjAddr: 0x2BB8, symBinAddr: 0x163B8, symSize: 0x84 }
  - { offsetInCU: 0x5519, offset: 0x4F884, size: 0x8, addend: 0x0, symName: '__ZN79_$LT$core..result..Result$LT$T$C$E$GT$$u20$as$u20$core..ops..try_trait..Try$GT$6branch17hbb04b3385e2d1097E', symObjAddr: 0x2C3C, symBinAddr: 0x1643C, symSize: 0xB4 }
  - { offsetInCU: 0x5597, offset: 0x4F902, size: 0x8, addend: 0x0, symName: '__ZN79_$LT$core..result..Result$LT$T$C$E$GT$$u20$as$u20$core..ops..try_trait..Try$GT$6branch17hc16accaf1886cdd8E', symObjAddr: 0x2CF0, symBinAddr: 0x164F0, symSize: 0x88 }
  - { offsetInCU: 0x5615, offset: 0x4F980, size: 0x8, addend: 0x0, symName: '__ZN79_$LT$core..result..Result$LT$T$C$E$GT$$u20$as$u20$core..ops..try_trait..Try$GT$6branch17hc2026c121aa781c6E', symObjAddr: 0x2D78, symBinAddr: 0x16578, symSize: 0xA0 }
  - { offsetInCU: 0x5692, offset: 0x4F9FD, size: 0x8, addend: 0x0, symName: '__ZN79_$LT$core..result..Result$LT$T$C$E$GT$$u20$as$u20$core..ops..try_trait..Try$GT$6branch17hd3296ce5cadf3760E', symObjAddr: 0x2E18, symBinAddr: 0x16618, symSize: 0xCC }
  - { offsetInCU: 0x5710, offset: 0x4FA7B, size: 0x8, addend: 0x0, symName: '__ZN79_$LT$core..result..Result$LT$T$C$E$GT$$u20$as$u20$core..ops..try_trait..Try$GT$6branch17hd8c334e5676049b1E', symObjAddr: 0x2EE4, symBinAddr: 0x166E4, symSize: 0xA0 }
  - { offsetInCU: 0x578D, offset: 0x4FAF8, size: 0x8, addend: 0x0, symName: '__ZN79_$LT$core..result..Result$LT$T$C$E$GT$$u20$as$u20$core..ops..try_trait..Try$GT$6branch17he0d82647d0449d62E', symObjAddr: 0x2F84, symBinAddr: 0x16784, symSize: 0x44 }
  - { offsetInCU: 0x5809, offset: 0x4FB74, size: 0x8, addend: 0x0, symName: '__ZN79_$LT$core..result..Result$LT$T$C$E$GT$$u20$as$u20$core..ops..try_trait..Try$GT$6branch17he5f710cca8cf7eceE', symObjAddr: 0x2FC8, symBinAddr: 0x167C8, symSize: 0x44 }
  - { offsetInCU: 0x5885, offset: 0x4FBF0, size: 0x8, addend: 0x0, symName: '__ZN79_$LT$core..result..Result$LT$T$C$E$GT$$u20$as$u20$core..ops..try_trait..Try$GT$6branch17he7443e4b8cc1ce9fE', symObjAddr: 0x300C, symBinAddr: 0x1680C, symSize: 0x64 }
  - { offsetInCU: 0x5902, offset: 0x4FC6D, size: 0x8, addend: 0x0, symName: '__ZN79_$LT$core..result..Result$LT$T$C$E$GT$$u20$as$u20$core..ops..try_trait..Try$GT$6branch17hec465b8826fe1477E', symObjAddr: 0x3070, symBinAddr: 0x16870, symSize: 0xA0 }
  - { offsetInCU: 0x597F, offset: 0x4FCEA, size: 0x8, addend: 0x0, symName: '__ZN79_$LT$core..result..Result$LT$T$C$E$GT$$u20$as$u20$core..ops..try_trait..Try$GT$6branch17heea2e1aabcee8a53E', symObjAddr: 0x3110, symBinAddr: 0x16910, symSize: 0x90 }
  - { offsetInCU: 0x59FC, offset: 0x4FD67, size: 0x8, addend: 0x0, symName: '__ZN79_$LT$core..result..Result$LT$T$C$E$GT$$u20$as$u20$core..ops..try_trait..Try$GT$6branch17hefef54ea63dc4839E', symObjAddr: 0x31A0, symBinAddr: 0x169A0, symSize: 0x84 }
  - { offsetInCU: 0x5A79, offset: 0x4FDE4, size: 0x8, addend: 0x0, symName: '__ZN79_$LT$core..result..Result$LT$T$C$E$GT$$u20$as$u20$core..ops..try_trait..Try$GT$6branch17hf95aef2cc33f0611E', symObjAddr: 0x3224, symBinAddr: 0x16A24, symSize: 0xAC }
  - { offsetInCU: 0x5AF6, offset: 0x4FE61, size: 0x8, addend: 0x0, symName: '__ZN79_$LT$core..result..Result$LT$T$C$E$GT$$u20$as$u20$core..ops..try_trait..Try$GT$6branch17hfb6b7c4d35e46351E', symObjAddr: 0x32D0, symBinAddr: 0x16AD0, symSize: 0xB4 }
  - { offsetInCU: 0x90AE, offset: 0x53419, size: 0x8, addend: 0x0, symName: '__ZN4core6result19Result$LT$T$C$E$GT$14unwrap_or_else17h01782dacdf59d0dbE', symObjAddr: 0x984, symBinAddr: 0x14184, symSize: 0x90 }
  - { offsetInCU: 0x9166, offset: 0x534D1, size: 0x8, addend: 0x0, symName: '__ZN4core6result19Result$LT$T$C$E$GT$14unwrap_or_else17h4710b508b9422fe3E', symObjAddr: 0xA14, symBinAddr: 0x14214, symSize: 0x88 }
  - { offsetInCU: 0x91F0, offset: 0x5355B, size: 0x8, addend: 0x0, symName: '__ZN4core6result19Result$LT$T$C$E$GT$14unwrap_or_else17hbcbab51212274a12E', symObjAddr: 0xA9C, symBinAddr: 0x1429C, symSize: 0x90 }
  - { offsetInCU: 0x927A, offset: 0x535E5, size: 0x8, addend: 0x0, symName: '__ZN4core6result19Result$LT$T$C$E$GT$14unwrap_or_else17he445611b84cd183eE', symObjAddr: 0xB2C, symBinAddr: 0x1432C, symSize: 0x90 }
  - { offsetInCU: 0x9732, offset: 0x53A9D, size: 0x8, addend: 0x0, symName: '__ZN4core6result19Result$LT$T$C$E$GT$3map17h25bd5bfb09b3f9a6E', symObjAddr: 0xBBC, symBinAddr: 0x143BC, symSize: 0x54 }
  - { offsetInCU: 0x97DC, offset: 0x53B47, size: 0x8, addend: 0x0, symName: '__ZN4core6result19Result$LT$T$C$E$GT$3map17h2bc97aa29e9bcc30E', symObjAddr: 0xC10, symBinAddr: 0x14410, symSize: 0x38 }
  - { offsetInCU: 0x9868, offset: 0x53BD3, size: 0x8, addend: 0x0, symName: '__ZN4core6result19Result$LT$T$C$E$GT$3map17h2e560ca0e5ae552cE', symObjAddr: 0xC48, symBinAddr: 0x14448, symSize: 0x38 }
  - { offsetInCU: 0x98F4, offset: 0x53C5F, size: 0x8, addend: 0x0, symName: '__ZN4core6result19Result$LT$T$C$E$GT$3map17h3ed83983bcbe2ec4E', symObjAddr: 0xC80, symBinAddr: 0x14480, symSize: 0x38 }
  - { offsetInCU: 0x9975, offset: 0x53CE0, size: 0x8, addend: 0x0, symName: '__ZN4core6result19Result$LT$T$C$E$GT$3map17h40da834ab6df1127E', symObjAddr: 0xCB8, symBinAddr: 0x144B8, symSize: 0x54 }
  - { offsetInCU: 0x9A1F, offset: 0x53D8A, size: 0x8, addend: 0x0, symName: '__ZN4core6result19Result$LT$T$C$E$GT$3map17h40e56738cd9c0642E', symObjAddr: 0xD0C, symBinAddr: 0x1450C, symSize: 0x90 }
  - { offsetInCU: 0x9AB2, offset: 0x53E1D, size: 0x8, addend: 0x0, symName: '__ZN4core6result19Result$LT$T$C$E$GT$3map17h500903f1253bcd87E', symObjAddr: 0xD9C, symBinAddr: 0x1459C, symSize: 0x38 }
  - { offsetInCU: 0x9B3E, offset: 0x53EA9, size: 0x8, addend: 0x0, symName: '__ZN4core6result19Result$LT$T$C$E$GT$3map17h550dc5b28b303e25E', symObjAddr: 0xDD4, symBinAddr: 0x145D4, symSize: 0x90 }
  - { offsetInCU: 0x9BE9, offset: 0x53F54, size: 0x8, addend: 0x0, symName: '__ZN4core6result19Result$LT$T$C$E$GT$3map17h5db02d08f5641926E', symObjAddr: 0xE64, symBinAddr: 0x14664, symSize: 0x90 }
  - { offsetInCU: 0x9C94, offset: 0x53FFF, size: 0x8, addend: 0x0, symName: '__ZN4core6result19Result$LT$T$C$E$GT$3map17h5de9a525f8cd2e6eE', symObjAddr: 0xEF4, symBinAddr: 0x146F4, symSize: 0xBC }
  - { offsetInCU: 0x9DEA, offset: 0x54155, size: 0x8, addend: 0x0, symName: '__ZN4core6result19Result$LT$T$C$E$GT$3map17h6313df32fbbd6247E', symObjAddr: 0xFB0, symBinAddr: 0x147B0, symSize: 0xA4 }
  - { offsetInCU: 0x9E95, offset: 0x54200, size: 0x8, addend: 0x0, symName: '__ZN4core6result19Result$LT$T$C$E$GT$3map17h6b2bcc1402ff466fE', symObjAddr: 0x1054, symBinAddr: 0x14854, symSize: 0x38 }
  - { offsetInCU: 0x9F09, offset: 0x54274, size: 0x8, addend: 0x0, symName: '__ZN4core6result19Result$LT$T$C$E$GT$3map17h71fed47c7ca6c9e9E', symObjAddr: 0x108C, symBinAddr: 0x1488C, symSize: 0x90 }
  - { offsetInCU: 0x9FB4, offset: 0x5431F, size: 0x8, addend: 0x0, symName: '__ZN4core6result19Result$LT$T$C$E$GT$3map17h74152aef08f04225E', symObjAddr: 0x111C, symBinAddr: 0x1491C, symSize: 0x90 }
  - { offsetInCU: 0xA0B1, offset: 0x5441C, size: 0x8, addend: 0x0, symName: '__ZN4core6result19Result$LT$T$C$E$GT$3map17h8ccbd2dcd59c8438E', symObjAddr: 0x11AC, symBinAddr: 0x149AC, symSize: 0x94 }
  - { offsetInCU: 0xA151, offset: 0x544BC, size: 0x8, addend: 0x0, symName: '__ZN4core6result19Result$LT$T$C$E$GT$3map17he32c9a64c20704b4E', symObjAddr: 0x1240, symBinAddr: 0x14A40, symSize: 0x54 }
  - { offsetInCU: 0xA1E3, offset: 0x5454E, size: 0x8, addend: 0x0, symName: '__ZN4core6result19Result$LT$T$C$E$GT$3map17hef4d72f49e78b502E', symObjAddr: 0x1294, symBinAddr: 0x14A94, symSize: 0xBC }
  - { offsetInCU: 0xA276, offset: 0x545E1, size: 0x8, addend: 0x0, symName: '__ZN4core6result19Result$LT$T$C$E$GT$3map17hff1ebae89018bf22E', symObjAddr: 0x1350, symBinAddr: 0x14B50, symSize: 0x90 }
  - { offsetInCU: 0xA309, offset: 0x54674, size: 0x8, addend: 0x0, symName: '__ZN4core6result19Result$LT$T$C$E$GT$6expect17h57e9bfd55c178e6fE', symObjAddr: 0x13E0, symBinAddr: 0x14BE0, symSize: 0x8C }
  - { offsetInCU: 0xA3A4, offset: 0x5470F, size: 0x8, addend: 0x0, symName: '__ZN4core6result19Result$LT$T$C$E$GT$6is_err17hed72436f6cdbcc1fE', symObjAddr: 0x146C, symBinAddr: 0x14C6C, symSize: 0x20 }
  - { offsetInCU: 0xA40F, offset: 0x5477A, size: 0x8, addend: 0x0, symName: '__ZN4core6result19Result$LT$T$C$E$GT$7map_err17h3a07448b86012059E', symObjAddr: 0x148C, symBinAddr: 0x14C8C, symSize: 0x84 }
  - { offsetInCU: 0xA4D3, offset: 0x5483E, size: 0x8, addend: 0x0, symName: '__ZN4core6result19Result$LT$T$C$E$GT$7map_err17h457984eac3a18cfbE', symObjAddr: 0x1510, symBinAddr: 0x14D10, symSize: 0xB0 }
  - { offsetInCU: 0xA57E, offset: 0x548E9, size: 0x8, addend: 0x0, symName: '__ZN4core6result19Result$LT$T$C$E$GT$7map_err17h48ad8da26a9f8ea9E', symObjAddr: 0x15C0, symBinAddr: 0x14DC0, symSize: 0xB8 }
  - { offsetInCU: 0xA611, offset: 0x5497C, size: 0x8, addend: 0x0, symName: '__ZN4core6result19Result$LT$T$C$E$GT$7map_err17h4ff6770c349e719fE', symObjAddr: 0x1678, symBinAddr: 0x14E78, symSize: 0xAC }
  - { offsetInCU: 0xA6A4, offset: 0x54A0F, size: 0x8, addend: 0x0, symName: '__ZN4core6result19Result$LT$T$C$E$GT$7map_err17h68a3f887ef80b4a3E', symObjAddr: 0x1724, symBinAddr: 0x14F24, symSize: 0x84 }
  - { offsetInCU: 0xA736, offset: 0x54AA1, size: 0x8, addend: 0x0, symName: '__ZN4core6result19Result$LT$T$C$E$GT$7map_err17h698546d099ba3145E', symObjAddr: 0x17A8, symBinAddr: 0x14FA8, symSize: 0xDC }
  - { offsetInCU: 0xA7CB, offset: 0x54B36, size: 0x8, addend: 0x0, symName: '__ZN4core6result19Result$LT$T$C$E$GT$7map_err17h74da9dbfadbc4d29E', symObjAddr: 0x1884, symBinAddr: 0x15084, symSize: 0xAC }
  - { offsetInCU: 0xA876, offset: 0x54BE1, size: 0x8, addend: 0x0, symName: '__ZN4core6result19Result$LT$T$C$E$GT$7map_err17h7f72843ce94a1d11E', symObjAddr: 0x1930, symBinAddr: 0x15130, symSize: 0x30 }
  - { offsetInCU: 0xA8EC, offset: 0x54C57, size: 0x8, addend: 0x0, symName: '__ZN4core6result19Result$LT$T$C$E$GT$7map_err17h84b3262ebd3ac745E', symObjAddr: 0x1960, symBinAddr: 0x15160, symSize: 0xCC }
  - { offsetInCU: 0xA980, offset: 0x54CEB, size: 0x8, addend: 0x0, symName: '__ZN4core6result19Result$LT$T$C$E$GT$7map_err17h8fc02705f6628f79E', symObjAddr: 0x1A2C, symBinAddr: 0x1522C, symSize: 0xB8 }
  - { offsetInCU: 0xAA13, offset: 0x54D7E, size: 0x8, addend: 0x0, symName: '__ZN4core6result19Result$LT$T$C$E$GT$7map_err17hb86e8728133aed35E', symObjAddr: 0x1AE4, symBinAddr: 0x152E4, symSize: 0x84 }
  - { offsetInCU: 0xAAA5, offset: 0x54E10, size: 0x8, addend: 0x0, symName: '__ZN4core6result19Result$LT$T$C$E$GT$7map_err17hd161a0adc2a0b461E', symObjAddr: 0x1B68, symBinAddr: 0x15368, symSize: 0x30 }
  - { offsetInCU: 0xABB3, offset: 0x54F1E, size: 0x8, addend: 0x0, symName: '__ZN4core6result19Result$LT$T$C$E$GT$7map_err17hf7d2ff826ebec64aE', symObjAddr: 0x1B98, symBinAddr: 0x15398, symSize: 0xA8 }
  - { offsetInCU: 0xAC46, offset: 0x54FB1, size: 0x8, addend: 0x0, symName: '__ZN4core6result19Result$LT$T$C$E$GT$8and_then17h675a030f4e63e67eE', symObjAddr: 0x1C40, symBinAddr: 0x15440, symSize: 0xB0 }
  - { offsetInCU: 0xACD9, offset: 0x55044, size: 0x8, addend: 0x0, symName: '__ZN4core6result19Result$LT$T$C$E$GT$8and_then17hc220dd187de03f9fE', symObjAddr: 0x1CF0, symBinAddr: 0x154F0, symSize: 0xD4 }
  - { offsetInCU: 0xAD6E, offset: 0x550D9, size: 0x8, addend: 0x0, symName: '__ZN4core6result19Result$LT$T$C$E$GT$9unwrap_or17hde1a3e0b749a3318E', symObjAddr: 0x1DC4, symBinAddr: 0x155C4, symSize: 0x70 }
  - { offsetInCU: 0x1E, offset: 0x55229, size: 0x8, addend: 0x0, symName: '__ZN83_$LT$serde_core..de..ignored_any..IgnoredAny$u20$as$u20$serde_core..de..Visitor$GT$10visit_unit17hb4cfae37f66e4f71E', symObjAddr: 0x0, symBinAddr: 0x16B84, symSize: 0x14 }
  - { offsetInCU: 0x2A4, offset: 0x554AF, size: 0x8, addend: 0x0, symName: '__ZN83_$LT$serde_core..de..ignored_any..IgnoredAny$u20$as$u20$serde_core..de..Visitor$GT$10visit_unit17hb4cfae37f66e4f71E', symObjAddr: 0x0, symBinAddr: 0x16B84, symSize: 0x14 }
  - { offsetInCU: 0x2EA, offset: 0x554F5, size: 0x8, addend: 0x0, symName: '__ZN87_$LT$serde_core..de..ignored_any..IgnoredAny$u20$as$u20$serde_core..de..Deserialize$GT$11deserialize17h9a3977a1643a8911E', symObjAddr: 0x14, symBinAddr: 0x16B98, symSize: 0x24 }
  - { offsetInCU: 0x1E, offset: 0x55B96, size: 0x8, addend: 0x0, symName: '__ZN4core3ptr8non_null16NonNull$LT$T$GT$20offset_from_unsigned17hae1a0c51f322f0caE', symObjAddr: 0x0, symBinAddr: 0x16BBC, symSize: 0x7C }
  - { offsetInCU: 0x2FB, offset: 0x55E73, size: 0x8, addend: 0x0, symName: '__ZN4core3ptr8non_null16NonNull$LT$T$GT$20offset_from_unsigned17hae1a0c51f322f0caE', symObjAddr: 0x0, symBinAddr: 0x16BBC, symSize: 0x7C }
  - { offsetInCU: 0x1E, offset: 0x55F61, size: 0x8, addend: 0x0, symName: __ZN4pyo36marker6Python14NotImplemented17h39b4bc31deceabe7E, symObjAddr: 0x0, symBinAddr: 0x16C38, symSize: 0x28 }
  - { offsetInCU: 0x1712, offset: 0x57655, size: 0x8, addend: 0x0, symName: __ZN4pyo36marker6Python14NotImplemented17h39b4bc31deceabe7E, symObjAddr: 0x0, symBinAddr: 0x16C38, symSize: 0x28 }
  - { offsetInCU: 0x1741, offset: 0x57684, size: 0x8, addend: 0x0, symName: __ZN4pyo36marker6Python19assume_gil_acquired17h5e345fd197c9daf1E, symObjAddr: 0x28, symBinAddr: 0x16C60, symSize: 0x4 }
  - { offsetInCU: 0x1754, offset: 0x57697, size: 0x8, addend: 0x0, symName: __ZN4pyo36marker6Python4None17hdac9fa3e407d7cc0E, symObjAddr: 0x2C, symBinAddr: 0x16C64, symSize: 0x28 }
  - { offsetInCU: 0x1E, offset: 0x576E4, size: 0x8, addend: 0x0, symName: __ZN4pyo35impl_5panic9PanicTrap3new17h9d864b0a12ef46f6E, symObjAddr: 0x0, symBinAddr: 0x16C8C, symSize: 0x18 }
  - { offsetInCU: 0xAD, offset: 0x57773, size: 0x8, addend: 0x0, symName: __ZN4pyo35impl_5panic9PanicTrap3new17h9d864b0a12ef46f6E, symObjAddr: 0x0, symBinAddr: 0x16C8C, symSize: 0x18 }
  - { offsetInCU: 0xCF, offset: 0x57795, size: 0x8, addend: 0x0, symName: __ZN4pyo35impl_5panic9PanicTrap6disarm17h876c4ffaafba612cE, symObjAddr: 0x18, symBinAddr: 0x16CA4, symSize: 0x28 }
  - { offsetInCU: 0x1E, offset: 0x577D5, size: 0x8, addend: 0x0, symName: __ZN4pyo35impl_10trampoline11module_init17h335bf3771013b457E, symObjAddr: 0x0, symBinAddr: 0x16CCC, symSize: 0x28 }
  - { offsetInCU: 0x151D, offset: 0x58CD4, size: 0x8, addend: 0x0, symName: __ZN4pyo35impl_10trampoline11module_init17h335bf3771013b457E, symObjAddr: 0x0, symBinAddr: 0x16CCC, symSize: 0x28 }
  - { offsetInCU: 0x1549, offset: 0x58D00, size: 0x8, addend: 0x0, symName: __ZN4pyo35impl_10trampoline11richcmpfunc17h9232ec13e98e2061E, symObjAddr: 0x28, symBinAddr: 0x16CF4, symSize: 0x50 }
  - { offsetInCU: 0x159F, offset: 0x58D56, size: 0x8, addend: 0x0, symName: __ZN4pyo35impl_10trampoline22fastcall_with_keywords17h2cbc92f45d4db3cdE, symObjAddr: 0x78, symBinAddr: 0x16D44, symSize: 0x5C }
  - { offsetInCU: 0x1603, offset: 0x58DBA, size: 0x8, addend: 0x0, symName: __ZN4pyo35impl_10trampoline6noargs17h46fb81fbdf5ad174E, symObjAddr: 0xD4, symBinAddr: 0x16DA0, symSize: 0x64 }
  - { offsetInCU: 0x164B, offset: 0x58E02, size: 0x8, addend: 0x0, symName: __ZN4pyo35impl_10trampoline7dealloc17h0d286841d47c1761E, symObjAddr: 0x138, symBinAddr: 0x16E04, symSize: 0x34 }
  - { offsetInCU: 0x1681, offset: 0x58E38, size: 0x8, addend: 0x0, symName: __ZN4pyo35impl_10trampoline7newfunc17h5b93f38513be7ecbE, symObjAddr: 0x16C, symBinAddr: 0x16E38, symSize: 0x50 }
  - { offsetInCU: 0x16D7, offset: 0x58E8E, size: 0x8, addend: 0x0, symName: __ZN4pyo35impl_10trampoline8hashfunc17h61f84dd9194cf43fE, symObjAddr: 0x1BC, symBinAddr: 0x16E88, symSize: 0x30 }
  - { offsetInCU: 0x1711, offset: 0x58EC8, size: 0x8, addend: 0x0, symName: __ZN4pyo35impl_10trampoline8reprfunc17h1f2293fca0b5dad3E, symObjAddr: 0x1EC, symBinAddr: 0x16EB8, symSize: 0x30 }
  - { offsetInCU: 0x174B, offset: 0x58F02, size: 0x8, addend: 0x0, symName: __ZN4pyo35impl_10trampoline9unaryfunc17h14018a9f87f24316E, symObjAddr: 0x21C, symBinAddr: 0x16EE8, symSize: 0x30 }
  - { offsetInCU: 0x1E, offset: 0x598BF, size: 0x8, addend: 0x0, symName: '__ZN4pyo35impl_7pyclass16lazy_type_object23LazyTypeObject$LT$T$GT$11get_or_init17h518e47f77714de5bE', symObjAddr: 0x0, symBinAddr: 0x16F18, symSize: 0x40 }
  - { offsetInCU: 0x1B54, offset: 0x5B3F5, size: 0x8, addend: 0x0, symName: '__ZN4pyo35impl_7pyclass16lazy_type_object23LazyTypeObject$LT$T$GT$11get_or_init28_$u7b$$u7b$closure$u7d$$u7d$17h4bd90363aecbe77aE', symObjAddr: 0xC0, symBinAddr: 0x16FD8, symSize: 0x98 }
  - { offsetInCU: 0x1BC1, offset: 0x5B462, size: 0x8, addend: 0x0, symName: '__ZN4pyo35impl_7pyclass16lazy_type_object23LazyTypeObject$LT$T$GT$11get_or_init28_$u7b$$u7b$closure$u7d$$u7d$17ha568b717964c10d4E', symObjAddr: 0x158, symBinAddr: 0x17070, symSize: 0x98 }
  - { offsetInCU: 0x1C2E, offset: 0x5B4CF, size: 0x8, addend: 0x0, symName: '__ZN4pyo35impl_7pyclass16lazy_type_object23LazyTypeObject$LT$T$GT$11get_or_init28_$u7b$$u7b$closure$u7d$$u7d$17hb9be4310bef39888E', symObjAddr: 0x1F0, symBinAddr: 0x17108, symSize: 0x98 }
  - { offsetInCU: 0x299A, offset: 0x5C23B, size: 0x8, addend: 0x0, symName: '__ZN4pyo35impl_7pyclass16lazy_type_object23LazyTypeObject$LT$T$GT$11get_or_init17h518e47f77714de5bE', symObjAddr: 0x0, symBinAddr: 0x16F18, symSize: 0x40 }
  - { offsetInCU: 0x29EB, offset: 0x5C28C, size: 0x8, addend: 0x0, symName: '__ZN4pyo35impl_7pyclass16lazy_type_object23LazyTypeObject$LT$T$GT$11get_or_init17h561b91ce0b918595E', symObjAddr: 0x40, symBinAddr: 0x16F58, symSize: 0x40 }
  - { offsetInCU: 0x2A3C, offset: 0x5C2DD, size: 0x8, addend: 0x0, symName: '__ZN4pyo35impl_7pyclass16lazy_type_object23LazyTypeObject$LT$T$GT$11get_or_init17h7b2da39c2fba8088E', symObjAddr: 0x80, symBinAddr: 0x16F98, symSize: 0x40 }
  - { offsetInCU: 0x2A80, offset: 0x5C321, size: 0x8, addend: 0x0, symName: '__ZN4pyo35impl_7pyclass16lazy_type_object23LazyTypeObject$LT$T$GT$15get_or_try_init17h420454389d2cf7c4E', symObjAddr: 0x288, symBinAddr: 0x171A0, symSize: 0x58 }
  - { offsetInCU: 0x2AC4, offset: 0x5C365, size: 0x8, addend: 0x0, symName: '__ZN4pyo35impl_7pyclass16lazy_type_object23LazyTypeObject$LT$T$GT$15get_or_try_init17h7cd244cb4c41d664E', symObjAddr: 0x2E0, symBinAddr: 0x171F8, symSize: 0x58 }
  - { offsetInCU: 0x2B08, offset: 0x5C3A9, size: 0x8, addend: 0x0, symName: '__ZN4pyo35impl_7pyclass16lazy_type_object23LazyTypeObject$LT$T$GT$15get_or_try_init17hf5d9c3ed3c1fc9b8E', symObjAddr: 0x338, symBinAddr: 0x17250, symSize: 0x58 }
  - { offsetInCU: 0x1E, offset: 0x5C4B8, size: 0x8, addend: 0x0, symName: '__ZN4core3ptr7mut_ptr31_$LT$impl$u20$$BP$mut$u20$T$GT$6offset18precondition_check17h014a17ec03415b86E', symObjAddr: 0x0, symBinAddr: 0x172A8, symSize: 0x10C }
  - { offsetInCU: 0xD4, offset: 0x5C56E, size: 0x8, addend: 0x0, symName: '__ZN4core3ptr7mut_ptr31_$LT$impl$u20$$BP$mut$u20$T$GT$6offset18precondition_check17h014a17ec03415b86E', symObjAddr: 0x0, symBinAddr: 0x172A8, symSize: 0x10C }
  - { offsetInCU: 0x1E, offset: 0x5CDA9, size: 0x8, addend: 0x0, symName: __ZN4pyo311type_object10PyTypeInfo11type_object17h6cd3613f081262f5E, symObjAddr: 0x0, symBinAddr: 0x173B4, symSize: 0x30 }
  - { offsetInCU: 0x1196, offset: 0x5DF21, size: 0x8, addend: 0x0, symName: __ZN4pyo311type_object10PyTypeInfo11type_object17h6cd3613f081262f5E, symObjAddr: 0x0, symBinAddr: 0x173B4, symSize: 0x30 }
  - { offsetInCU: 0x11EC, offset: 0x5DF77, size: 0x8, addend: 0x0, symName: '__ZN73_$LT$pyo3..types..any..PyAny$u20$as$u20$pyo3..type_object..PyTypeInfo$GT$15type_object_raw28_$u7b$$u7b$closure$u7d$$u7d$17heaf7c18d22735129E', symObjAddr: 0x30, symBinAddr: 0x173E4, symSize: 0x18 }
  - { offsetInCU: 0x1E, offset: 0x5E59F, size: 0x8, addend: 0x0, symName: __ZN4pyo35impl_10trampoline10trampoline17ha749922734948abfE, symObjAddr: 0x0, symBinAddr: 0x173FC, symSize: 0x158 }
  - { offsetInCU: 0x161C, offset: 0x5FB9D, size: 0x8, addend: 0x0, symName: __ZN4pyo35impl_10trampoline10trampoline17ha749922734948abfE, symObjAddr: 0x0, symBinAddr: 0x173FC, symSize: 0x158 }
  - { offsetInCU: 0x16BF, offset: 0x5FC40, size: 0x8, addend: 0x0, symName: __ZN4pyo35impl_10trampoline10trampoline17ha800a3b430be7accE, symObjAddr: 0x158, symBinAddr: 0x17554, symSize: 0x160 }
  - { offsetInCU: 0x1763, offset: 0x5FCE4, size: 0x8, addend: 0x0, symName: __ZN4pyo35impl_10trampoline10trampoline17hacb5db32c850db12E, symObjAddr: 0x2B8, symBinAddr: 0x176B4, symSize: 0x15C }
  - { offsetInCU: 0x1806, offset: 0x5FD87, size: 0x8, addend: 0x0, symName: __ZN4pyo35impl_10trampoline10trampoline17hb882b5f5a4518467E, symObjAddr: 0x414, symBinAddr: 0x17810, symSize: 0x158 }
  - { offsetInCU: 0x18A9, offset: 0x5FE2A, size: 0x8, addend: 0x0, symName: __ZN4pyo35impl_10trampoline10trampoline17hbd4fb145cc9b3227E, symObjAddr: 0x56C, symBinAddr: 0x17968, symSize: 0x14C }
  - { offsetInCU: 0x194B, offset: 0x5FECC, size: 0x8, addend: 0x0, symName: __ZN4pyo35impl_10trampoline10trampoline17hdbde0724b3fba83fE, symObjAddr: 0x6B8, symBinAddr: 0x17AB4, symSize: 0x158 }
  - { offsetInCU: 0x19EE, offset: 0x5FF6F, size: 0x8, addend: 0x0, symName: __ZN4pyo35impl_10trampoline10trampoline17he90e597b9b4be1cbE, symObjAddr: 0x810, symBinAddr: 0x17C0C, symSize: 0x15C }
  - { offsetInCU: 0x1A91, offset: 0x60012, size: 0x8, addend: 0x0, symName: __ZN4pyo35impl_10trampoline10trampoline17hfeda92b4bd216b20E, symObjAddr: 0x96C, symBinAddr: 0x17D68, symSize: 0x158 }
  - { offsetInCU: 0x1B39, offset: 0x600BA, size: 0x8, addend: 0x0, symName: '__ZN4pyo35impl_10trampoline10trampoline28_$u7b$$u7b$closure$u7d$$u7d$17h1095dd2ad82086e6E', symObjAddr: 0xAC4, symBinAddr: 0x17EC0, symSize: 0x2C }
  - { offsetInCU: 0x1B87, offset: 0x60108, size: 0x8, addend: 0x0, symName: '__ZN4pyo35impl_10trampoline10trampoline28_$u7b$$u7b$closure$u7d$$u7d$17h176fb57f5b6b9706E', symObjAddr: 0xAF0, symBinAddr: 0x17EEC, symSize: 0x2C }
  - { offsetInCU: 0x1BD5, offset: 0x60156, size: 0x8, addend: 0x0, symName: '__ZN4pyo35impl_10trampoline10trampoline28_$u7b$$u7b$closure$u7d$$u7d$17h1897708074be7af0E', symObjAddr: 0xB1C, symBinAddr: 0x17F18, symSize: 0x2C }
  - { offsetInCU: 0x1C23, offset: 0x601A4, size: 0x8, addend: 0x0, symName: '__ZN4pyo35impl_10trampoline10trampoline28_$u7b$$u7b$closure$u7d$$u7d$17h309d7bed2e75d14cE', symObjAddr: 0xB48, symBinAddr: 0x17F44, symSize: 0x34 }
  - { offsetInCU: 0x1C72, offset: 0x601F3, size: 0x8, addend: 0x0, symName: '__ZN4pyo35impl_10trampoline10trampoline28_$u7b$$u7b$closure$u7d$$u7d$17h60dcc1093fa0e31fE', symObjAddr: 0xB7C, symBinAddr: 0x17F78, symSize: 0x34 }
  - { offsetInCU: 0x1CC1, offset: 0x60242, size: 0x8, addend: 0x0, symName: '__ZN4pyo35impl_10trampoline10trampoline28_$u7b$$u7b$closure$u7d$$u7d$17ha01fd7cbd83f4f53E', symObjAddr: 0xBB0, symBinAddr: 0x17FAC, symSize: 0x24 }
  - { offsetInCU: 0x1D0F, offset: 0x60290, size: 0x8, addend: 0x0, symName: '__ZN4pyo35impl_10trampoline10trampoline28_$u7b$$u7b$closure$u7d$$u7d$17ha65ad41413b1e1c1E', symObjAddr: 0xBD4, symBinAddr: 0x17FD0, symSize: 0x40 }
  - { offsetInCU: 0x1D5E, offset: 0x602DF, size: 0x8, addend: 0x0, symName: '__ZN4pyo35impl_10trampoline10trampoline28_$u7b$$u7b$closure$u7d$$u7d$17hbed6aeffa3d94e28E', symObjAddr: 0xC14, symBinAddr: 0x18010, symSize: 0x2C }
  - { offsetInCU: 0x1DB2, offset: 0x60333, size: 0x8, addend: 0x0, symName: '__ZN4pyo35impl_10trampoline11module_init28_$u7b$$u7b$closure$u7d$$u7d$17hcfa4d8272865d779E', symObjAddr: 0xC40, symBinAddr: 0x1803C, symSize: 0x40 }
  - { offsetInCU: 0x1DFE, offset: 0x6037F, size: 0x8, addend: 0x0, symName: '__ZN4pyo35impl_10trampoline11module_init28_$u7b$$u7b$closure$u7d$$u7d$28_$u7b$$u7b$closure$u7d$$u7d$17ha773d1b691adbdddE', symObjAddr: 0xC80, symBinAddr: 0x1807C, symSize: 0x24 }
  - { offsetInCU: 0x1E55, offset: 0x603D6, size: 0x8, addend: 0x0, symName: '__ZN4pyo35impl_10trampoline11richcmpfunc28_$u7b$$u7b$closure$u7d$$u7d$17h13d76e01de749172E', symObjAddr: 0xCA4, symBinAddr: 0x180A0, symSize: 0x40 }
  - { offsetInCU: 0x1F01, offset: 0x60482, size: 0x8, addend: 0x0, symName: __ZN4pyo35impl_10trampoline21trampoline_unraisable17h2e98060c88a21b9aE, symObjAddr: 0xCE4, symBinAddr: 0x180E0, symSize: 0x254 }
  - { offsetInCU: 0x1F9C, offset: 0x6051D, size: 0x8, addend: 0x0, symName: '__ZN4pyo35impl_10trampoline21trampoline_unraisable28_$u7b$$u7b$closure$u7d$$u7d$17h6114d958354945e9E', symObjAddr: 0xF38, symBinAddr: 0x18334, symSize: 0x2C }
  - { offsetInCU: 0x1FE1, offset: 0x60562, size: 0x8, addend: 0x0, symName: '__ZN4pyo35impl_10trampoline21trampoline_unraisable28_$u7b$$u7b$closure$u7d$$u7d$17hbd5d935980d74bf0E', symObjAddr: 0xF64, symBinAddr: 0x18360, symSize: 0x5C }
  - { offsetInCU: 0x202D, offset: 0x605AE, size: 0x8, addend: 0x0, symName: '__ZN4pyo35impl_10trampoline22fastcall_with_keywords28_$u7b$$u7b$closure$u7d$$u7d$17h285065169b32fc6eE', symObjAddr: 0xFC0, symBinAddr: 0x183BC, symSize: 0x48 }
  - { offsetInCU: 0x20F4, offset: 0x60675, size: 0x8, addend: 0x0, symName: __ZN4pyo35impl_10trampoline33panic_result_into_callback_output17hd9e122ee8f392d13E, symObjAddr: 0x1008, symBinAddr: 0x18404, symSize: 0x118 }
  - { offsetInCU: 0x21BD, offset: 0x6073E, size: 0x8, addend: 0x0, symName: '__ZN4pyo35impl_10trampoline6noargs28_$u7b$$u7b$closure$u7d$$u7d$17he45e031610678284E', symObjAddr: 0x1120, symBinAddr: 0x1851C, symSize: 0x34 }
  - { offsetInCU: 0x223A, offset: 0x607BB, size: 0x8, addend: 0x0, symName: '__ZN4pyo35impl_10trampoline7dealloc28_$u7b$$u7b$closure$u7d$$u7d$17h9a24223865ba8f2fE', symObjAddr: 0x1154, symBinAddr: 0x18550, symSize: 0x40 }
  - { offsetInCU: 0x22B7, offset: 0x60838, size: 0x8, addend: 0x0, symName: '__ZN4pyo35impl_10trampoline7newfunc28_$u7b$$u7b$closure$u7d$$u7d$17h90748ff5dffcfebdE', symObjAddr: 0x1194, symBinAddr: 0x18590, symSize: 0x40 }
  - { offsetInCU: 0x2368, offset: 0x608E9, size: 0x8, addend: 0x0, symName: '__ZN4pyo35impl_10trampoline8hashfunc28_$u7b$$u7b$closure$u7d$$u7d$17hab33852e8c169db1E', symObjAddr: 0x11D4, symBinAddr: 0x185D0, symSize: 0x34 }
  - { offsetInCU: 0x23E5, offset: 0x60966, size: 0x8, addend: 0x0, symName: '__ZN4pyo35impl_10trampoline8reprfunc28_$u7b$$u7b$closure$u7d$$u7d$17hf8201447d6c1746eE', symObjAddr: 0x1208, symBinAddr: 0x18604, symSize: 0x34 }
  - { offsetInCU: 0x2462, offset: 0x609E3, size: 0x8, addend: 0x0, symName: '__ZN4pyo35impl_10trampoline9unaryfunc28_$u7b$$u7b$closure$u7d$$u7d$17hf52fd2c6a0d1e309E', symObjAddr: 0x123C, symBinAddr: 0x18638, symSize: 0x34 }
  - { offsetInCU: 0x1E, offset: 0x614EA, size: 0x8, addend: 0x0, symName: __ZN10serde_core7private9size_hint8cautious17h2c186441878da8d4E, symObjAddr: 0x0, symBinAddr: 0x1866C, symSize: 0x84 }
  - { offsetInCU: 0x3A, offset: 0x61506, size: 0x8, addend: 0x0, symName: __ZN10serde_core7private9size_hint8cautious17h2c186441878da8d4E, symObjAddr: 0x0, symBinAddr: 0x1866C, symSize: 0x84 }
  - { offsetInCU: 0x1E, offset: 0x61756, size: 0x8, addend: 0x0, symName: '__ZN185_$LT$core..ops..control_flow..ControlFlow$LT$B$C$C$GT$$u20$as$u20$core..ops..try_trait..FromResidual$LT$core..ops..control_flow..ControlFlow$LT$B$C$core..convert..Infallible$GT$$GT$$GT$13from_residual17h0342422d7e4d32d2E', symObjAddr: 0x0, symBinAddr: 0x186F0, symSize: 0x48 }
  - { offsetInCU: 0x7F8, offset: 0x61F30, size: 0x8, addend: 0x0, symName: '__ZN185_$LT$core..ops..control_flow..ControlFlow$LT$B$C$C$GT$$u20$as$u20$core..ops..try_trait..FromResidual$LT$core..ops..control_flow..ControlFlow$LT$B$C$core..convert..Infallible$GT$$GT$$GT$13from_residual17h0342422d7e4d32d2E', symObjAddr: 0x0, symBinAddr: 0x186F0, symSize: 0x48 }
  - { offsetInCU: 0x83D, offset: 0x61F75, size: 0x8, addend: 0x0, symName: '__ZN95_$LT$core..ops..control_flow..ControlFlow$LT$B$C$C$GT$$u20$as$u20$core..ops..try_trait..Try$GT$11from_output17h78effe2d0e49e380E', symObjAddr: 0x48, symBinAddr: 0x18738, symSize: 0x20 }
  - { offsetInCU: 0x87B, offset: 0x61FB3, size: 0x8, addend: 0x0, symName: '__ZN95_$LT$core..ops..control_flow..ControlFlow$LT$B$C$C$GT$$u20$as$u20$core..ops..try_trait..Try$GT$6branch17hc0d8fc9d7261e3f8E', symObjAddr: 0x68, symBinAddr: 0x18758, symSize: 0x98 }
  - { offsetInCU: 0x1E, offset: 0x6351B, size: 0x8, addend: 0x0, symName: '__ZN4core5slice29_$LT$impl$u20$$u5b$T$u5d$$GT$8is_empty17h271220276b21cac2E', symObjAddr: 0x0, symBinAddr: 0x187F0, symSize: 0x1C }
  - { offsetInCU: 0x3A, offset: 0x63537, size: 0x8, addend: 0x0, symName: '__ZN4core5slice29_$LT$impl$u20$$u5b$T$u5d$$GT$8is_empty17h271220276b21cac2E', symObjAddr: 0x0, symBinAddr: 0x187F0, symSize: 0x1C }
  - { offsetInCU: 0x1E, offset: 0x635F0, size: 0x8, addend: 0x0, symName: __ZN4core5slice3raw14from_raw_parts18precondition_check17hb17734785f30c86cE, symObjAddr: 0x0, symBinAddr: 0x1880C, symSize: 0x1DC }
  - { offsetInCU: 0x581, offset: 0x63B53, size: 0x8, addend: 0x0, symName: __ZN4core5slice3raw14from_raw_parts18precondition_check17hb17734785f30c86cE, symObjAddr: 0x0, symBinAddr: 0x1880C, symSize: 0x1DC }
  - { offsetInCU: 0x705, offset: 0x63CD7, size: 0x8, addend: 0x0, symName: __ZN4core5slice3raw18from_raw_parts_mut18precondition_check17h220497b9586bd9d5E, symObjAddr: 0x1DC, symBinAddr: 0x189E8, symSize: 0x1DC }
  - { offsetInCU: 0x1E, offset: 0x6403A, size: 0x8, addend: 0x0, symName: '__ZN4pyo311conversions3std6string86_$LT$impl$u20$pyo3..conversion..IntoPyObject$u20$for$u20$$RF$alloc..string..String$GT$13into_pyobject17h3a2f48f50a1ff5b0E', symObjAddr: 0x0, symBinAddr: 0x18BC4, symSize: 0x30 }
  - { offsetInCU: 0x161B, offset: 0x65637, size: 0x8, addend: 0x0, symName: '__ZN4pyo311conversions3std6string86_$LT$impl$u20$pyo3..conversion..IntoPyObject$u20$for$u20$$RF$alloc..string..String$GT$13into_pyobject17h3a2f48f50a1ff5b0E', symObjAddr: 0x0, symBinAddr: 0x18BC4, symSize: 0x30 }
  - { offsetInCU: 0x179A, offset: 0x657B6, size: 0x8, addend: 0x0, symName: '__ZN58_$LT$alloc..string..String$u20$as$u20$core..fmt..Write$GT$10write_char17hf9504e734491c196E', symObjAddr: 0x30, symBinAddr: 0x18BF4, symSize: 0x38 }
  - { offsetInCU: 0x17D7, offset: 0x657F3, size: 0x8, addend: 0x0, symName: '__ZN58_$LT$alloc..string..String$u20$as$u20$core..fmt..Write$GT$9write_str17h4344aa7f12a24d88E', symObjAddr: 0x68, symBinAddr: 0x18C2C, symSize: 0x40 }
  - { offsetInCU: 0x18C5, offset: 0x658E1, size: 0x8, addend: 0x0, symName: '__ZN65_$LT$alloc..string..String$u20$as$u20$core..ops..deref..Deref$GT$5deref17h500c72fd9537a457E', symObjAddr: 0x288, symBinAddr: 0x18E4C, symSize: 0x24 }
  - { offsetInCU: 0x1B2F, offset: 0x65B4B, size: 0x8, addend: 0x0, symName: __ZN5alloc6string6String19from_utf8_unchecked17h0b63122f729f272dE, symObjAddr: 0xA8, symBinAddr: 0x18C6C, symSize: 0x18 }
  - { offsetInCU: 0x1CE4, offset: 0x65D00, size: 0x8, addend: 0x0, symName: __ZN5alloc6string6String4push17h8bb7d430058b1256E, symObjAddr: 0xC0, symBinAddr: 0x18C84, symSize: 0xF8 }
  - { offsetInCU: 0x1FAD, offset: 0x65FC9, size: 0x8, addend: 0x0, symName: __ZN5alloc6string6String6as_str17hd8c68bc59f5f12f6E, symObjAddr: 0x1B8, symBinAddr: 0x18D7C, symSize: 0x78 }
  - { offsetInCU: 0x2196, offset: 0x661B2, size: 0x8, addend: 0x0, symName: __ZN5alloc6string6String8push_str17h615121a3373bd8dfE, symObjAddr: 0x230, symBinAddr: 0x18DF4, symSize: 0x58 }
  - { offsetInCU: 0x1E, offset: 0x667C0, size: 0x8, addend: 0x0, symName: '__ZN110_$LT$core..iter..adapters..enumerate..Enumerate$LT$I$GT$$u20$as$u20$core..iter..traits..iterator..Iterator$GT$4next17h0bc67ae89a52a556E', symObjAddr: 0x0, symBinAddr: 0x18E70, symSize: 0xE0 }
  - { offsetInCU: 0x13A7, offset: 0x67B49, size: 0x8, addend: 0x0, symName: '__ZN110_$LT$core..iter..adapters..enumerate..Enumerate$LT$I$GT$$u20$as$u20$core..iter..traits..iterator..Iterator$GT$4next17h0bc67ae89a52a556E', symObjAddr: 0x0, symBinAddr: 0x18E70, symSize: 0xE0 }
  - { offsetInCU: 0x14F5, offset: 0x67C97, size: 0x8, addend: 0x0, symName: '__ZN63_$LT$I$u20$as$u20$core..iter..traits..collect..IntoIterator$GT$9into_iter17h81a6f8a84e3d476bE', symObjAddr: 0xE0, symBinAddr: 0x18F50, symSize: 0x30 }
  - { offsetInCU: 0x1E, offset: 0x683A0, size: 0x8, addend: 0x0, symName: _PyInit__native, symObjAddr: 0x0, symBinAddr: 0x18F80, symSize: 0x34 }
  - { offsetInCU: 0x42, offset: 0x683C4, size: 0x8, addend: 0x0, symName: __ZN10slickit_py7_native9_PYO3_DEF17h1982b6ebb9175b3dE, symObjAddr: 0x70, symBinAddr: 0x1044B0, symSize: 0x0 }
  - { offsetInCU: 0x4F, offset: 0x683D1, size: 0x8, addend: 0x0, symName: _PyInit__native, symObjAddr: 0x0, symBinAddr: 0x18F80, symSize: 0x34 }
  - { offsetInCU: 0x1E, offset: 0x6A399, size: 0x8, addend: 0x0, symName: __ZN4core3str8converts19from_utf8_unchecked17hb1914e4053b870f9E, symObjAddr: 0x0, symBinAddr: 0x18FB4, symSize: 0x18 }
  - { offsetInCU: 0x3A, offset: 0x6A3B5, size: 0x8, addend: 0x0, symName: __ZN4core3str8converts19from_utf8_unchecked17hb1914e4053b870f9E, symObjAddr: 0x0, symBinAddr: 0x18FB4, symSize: 0x18 }
  - { offsetInCU: 0x1E, offset: 0x6A455, size: 0x8, addend: 0x0, symName: '__ZN59_$LT$alloc..alloc..Global$u20$as$u20$core..clone..Clone$GT$5clone17h0228619a1e46c8dbE', symObjAddr: 0x0, symBinAddr: 0x18FCC, symSize: 0x10 }
  - { offsetInCU: 0x3A, offset: 0x6A471, size: 0x8, addend: 0x0, symName: '__ZN59_$LT$alloc..alloc..Global$u20$as$u20$core..clone..Clone$GT$5clone17h0228619a1e46c8dbE', symObjAddr: 0x0, symBinAddr: 0x18FCC, symSize: 0x10 }
  - { offsetInCU: 0x1E, offset: 0x6A4CF, size: 0x8, addend: 0x0, symName: '__ZN10slickit_py113_$LT$impl$u20$core..convert..From$LT$slickit_py..ComponentKind$GT$$u20$for$u20$slick..manifest..ComponentKind$GT$4from17h4020ce631d61b43aE', symObjAddr: 0x0, symBinAddr: 0x18FDC, symSize: 0x78 }
  - { offsetInCU: 0x90, offset: 0x6A541, size: 0x8, addend: 0x0, symName: '__ZN10slickit_py113_$LT$impl$u20$core..convert..From$LT$slickit_py..ComponentKind$GT$$u20$for$u20$slick..manifest..ComponentKind$GT$4from17h4020ce631d61b43aE', symObjAddr: 0x0, symBinAddr: 0x18FDC, symSize: 0x78 }
  - { offsetInCU: 0x1E, offset: 0x6A58D, size: 0x8, addend: 0x0, symName: '__ZN4pyo35types10boolobject65_$LT$impl$u20$pyo3..conversion..IntoPyObject$u20$for$u20$bool$GT$13into_pyobject17h3d02fe528f8a5364E', symObjAddr: 0x0, symBinAddr: 0x19054, symSize: 0x28 }
  - { offsetInCU: 0x120C, offset: 0x6B77B, size: 0x8, addend: 0x0, symName: '__ZN4pyo35types10boolobject65_$LT$impl$u20$pyo3..conversion..IntoPyObject$u20$for$u20$bool$GT$13into_pyobject17h3d02fe528f8a5364E', symObjAddr: 0x0, symBinAddr: 0x19054, symSize: 0x28 }
  - { offsetInCU: 0x183F, offset: 0x6BDAE, size: 0x8, addend: 0x0, symName: __ZN4pyo35types10boolobject6PyBool3new17h9cb8b0e2edadff99E, symObjAddr: 0x28, symBinAddr: 0x1907C, symSize: 0x50 }
  - { offsetInCU: 0x1E, offset: 0x6BE07, size: 0x8, addend: 0x0, symName: '__ZN102_$LT$pyo3..pycell..impl_..ImmutableClass$u20$as$u20$pyo3..pycell..impl_..GetBorrowChecker$LT$T$GT$$GT$14borrow_checker17h4651209ff8e81419E', symObjAddr: 0x0, symBinAddr: 0x190CC, symSize: 0x14 }
  - { offsetInCU: 0x147D, offset: 0x6D266, size: 0x8, addend: 0x0, symName: '__ZN102_$LT$pyo3..pycell..impl_..ImmutableClass$u20$as$u20$pyo3..pycell..impl_..GetBorrowChecker$LT$T$GT$$GT$14borrow_checker17h4651209ff8e81419E', symObjAddr: 0x0, symBinAddr: 0x190CC, symSize: 0x14 }
  - { offsetInCU: 0x14B2, offset: 0x6D29B, size: 0x8, addend: 0x0, symName: '__ZN102_$LT$pyo3..pycell..impl_..ImmutableClass$u20$as$u20$pyo3..pycell..impl_..GetBorrowChecker$LT$T$GT$$GT$14borrow_checker17hb36885cfaa2340fcE', symObjAddr: 0x14, symBinAddr: 0x190E0, symSize: 0x14 }
  - { offsetInCU: 0x14E7, offset: 0x6D2D0, size: 0x8, addend: 0x0, symName: '__ZN102_$LT$pyo3..pycell..impl_..ImmutableClass$u20$as$u20$pyo3..pycell..impl_..GetBorrowChecker$LT$T$GT$$GT$14borrow_checker17hba5081974c7bc114E', symObjAddr: 0x28, symBinAddr: 0x190F4, symSize: 0x14 }
  - { offsetInCU: 0x1522, offset: 0x6D30B, size: 0x8, addend: 0x0, symName: '__ZN113_$LT$pyo3..pycell..impl_..PyClassObject$LT$T$GT$$u20$as$u20$pyo3..pycell..impl_..PyClassObjectLayout$LT$T$GT$$GT$10tp_dealloc17h6a33238726948e41E', symObjAddr: 0x3C, symBinAddr: 0x19108, symSize: 0xB4 }
  - { offsetInCU: 0x1586, offset: 0x6D36F, size: 0x8, addend: 0x0, symName: '__ZN113_$LT$pyo3..pycell..impl_..PyClassObject$LT$T$GT$$u20$as$u20$pyo3..pycell..impl_..PyClassObjectLayout$LT$T$GT$$GT$10tp_dealloc17hc025d36abbf62132E', symObjAddr: 0xF0, symBinAddr: 0x191BC, symSize: 0xB4 }
  - { offsetInCU: 0x15EA, offset: 0x6D3D3, size: 0x8, addend: 0x0, symName: '__ZN113_$LT$pyo3..pycell..impl_..PyClassObject$LT$T$GT$$u20$as$u20$pyo3..pycell..impl_..PyClassObjectLayout$LT$T$GT$$GT$10tp_dealloc17hf3b2216a7992b243E', symObjAddr: 0x1A4, symBinAddr: 0x19270, symSize: 0xB4 }
  - { offsetInCU: 0x164E, offset: 0x6D437, size: 0x8, addend: 0x0, symName: '__ZN113_$LT$pyo3..pycell..impl_..PyClassObject$LT$T$GT$$u20$as$u20$pyo3..pycell..impl_..PyClassObjectLayout$LT$T$GT$$GT$17ensure_threadsafe17h1c2e0e4ed14e8d2aE', symObjAddr: 0x258, symBinAddr: 0x19324, symSize: 0x30 }
  - { offsetInCU: 0x1681, offset: 0x6D46A, size: 0x8, addend: 0x0, symName: '__ZN113_$LT$pyo3..pycell..impl_..PyClassObject$LT$T$GT$$u20$as$u20$pyo3..pycell..impl_..PyClassObjectLayout$LT$T$GT$$GT$17ensure_threadsafe17h3a31b6920471e0e9E', symObjAddr: 0x288, symBinAddr: 0x19354, symSize: 0x30 }
  - { offsetInCU: 0x16B4, offset: 0x6D49D, size: 0x8, addend: 0x0, symName: '__ZN113_$LT$pyo3..pycell..impl_..PyClassObject$LT$T$GT$$u20$as$u20$pyo3..pycell..impl_..PyClassObjectLayout$LT$T$GT$$GT$17ensure_threadsafe17h7892ea6fe989e7f5E', symObjAddr: 0x2B8, symBinAddr: 0x19384, symSize: 0x30 }
  - { offsetInCU: 0x16ED, offset: 0x6D4D6, size: 0x8, addend: 0x0, symName: '__ZN117_$LT$pyo3..pycell..impl_..PyClassObjectBase$LT$U$GT$$u20$as$u20$pyo3..pycell..impl_..PyClassObjectLayout$LT$T$GT$$GT$10tp_dealloc17h2084951b4f1e4c59E', symObjAddr: 0x2E8, symBinAddr: 0x193B4, symSize: 0x288 }
  - { offsetInCU: 0x1816, offset: 0x6D5FF, size: 0x8, addend: 0x0, symName: '__ZN117_$LT$pyo3..pycell..impl_..PyClassObjectBase$LT$U$GT$$u20$as$u20$pyo3..pycell..impl_..PyClassObjectLayout$LT$T$GT$$GT$17ensure_threadsafe17h4093622264167ae3E', symObjAddr: 0x570, symBinAddr: 0x1963C, symSize: 0x10 }
  - { offsetInCU: 0x20BD, offset: 0x6DEA6, size: 0x8, addend: 0x0, symName: '__ZN4pyo36pycell5impl_22PyClassObject$LT$T$GT$14borrow_checker17h24018b676fa6788cE', symObjAddr: 0x580, symBinAddr: 0x1964C, symSize: 0x24 }
  - { offsetInCU: 0x2240, offset: 0x6E029, size: 0x8, addend: 0x0, symName: '__ZN4pyo36pycell5impl_22PyClassObject$LT$T$GT$14borrow_checker17hfe35f78e9c918a83E', symObjAddr: 0x5A4, symBinAddr: 0x19670, symSize: 0x24 }
  - { offsetInCU: 0x2279, offset: 0x6E062, size: 0x8, addend: 0x0, symName: '__ZN4pyo36pycell5impl_22PyClassObject$LT$T$GT$14borrow_checker17hfe8461c041a19f8aE', symObjAddr: 0x5C8, symBinAddr: 0x19694, symSize: 0x24 }
  - { offsetInCU: 0x22B2, offset: 0x6E09B, size: 0x8, addend: 0x0, symName: '__ZN4pyo36pycell5impl_22PyClassObject$LT$T$GT$7get_ptr17h3028cad936709eb2E', symObjAddr: 0x5EC, symBinAddr: 0x196B8, symSize: 0x24 }
  - { offsetInCU: 0x22EB, offset: 0x6E0D4, size: 0x8, addend: 0x0, symName: '__ZN4pyo36pycell5impl_22PyClassObject$LT$T$GT$7get_ptr17h352974e53d24fce6E', symObjAddr: 0x610, symBinAddr: 0x196DC, symSize: 0x24 }
  - { offsetInCU: 0x2324, offset: 0x6E10D, size: 0x8, addend: 0x0, symName: '__ZN4pyo36pycell5impl_22PyClassObject$LT$T$GT$7get_ptr17h73b87d7211bca215E', symObjAddr: 0x634, symBinAddr: 0x19700, symSize: 0x24 }
  - { offsetInCU: 0x1E, offset: 0x6E1D0, size: 0x8, addend: 0x0, symName: '__ZN4core3mem13manually_drop21ManuallyDrop$LT$T$GT$4drop17h40d6adb23e91cc24E', symObjAddr: 0x0, symBinAddr: 0x19724, symSize: 0x24 }
  - { offsetInCU: 0x44D, offset: 0x6E5FF, size: 0x8, addend: 0x0, symName: '__ZN4core3mem13manually_drop21ManuallyDrop$LT$T$GT$4drop17h40d6adb23e91cc24E', symObjAddr: 0x0, symBinAddr: 0x19724, symSize: 0x24 }
  - { offsetInCU: 0x48C, offset: 0x6E63E, size: 0x8, addend: 0x0, symName: '__ZN4core3mem13manually_drop21ManuallyDrop$LT$T$GT$4drop17hc93270b3c0719857E', symObjAddr: 0x24, symBinAddr: 0x19748, symSize: 0x24 }
  - { offsetInCU: 0x4C4, offset: 0x6E676, size: 0x8, addend: 0x0, symName: '__ZN4core3mem13manually_drop21ManuallyDrop$LT$T$GT$4drop17hfcae45ca5b679c6dE', symObjAddr: 0x48, symBinAddr: 0x1976C, symSize: 0x10 }
  - { offsetInCU: 0x1E, offset: 0x6E6BF, size: 0x8, addend: 0x0, symName: '__ZN4pyo36pycell14PyRef$LT$T$GT$10try_borrow17h0457c9c938ae9aebE', symObjAddr: 0x0, symBinAddr: 0x1977C, symSize: 0x4C }
  - { offsetInCU: 0x1819, offset: 0x6FEBA, size: 0x8, addend: 0x0, symName: '__ZN50_$LT$T$u20$as$u20$core..convert..Into$LT$U$GT$$GT$4into17hd553466293813b79E', symObjAddr: 0x190, symBinAddr: 0x1990C, symSize: 0x1C }
  - { offsetInCU: 0x1B90, offset: 0x70231, size: 0x8, addend: 0x0, symName: '__ZN4pyo36pycell14PyRef$LT$T$GT$10try_borrow28_$u7b$$u7b$closure$u7d$$u7d$17haf64ebfa5239119fE', symObjAddr: 0xE4, symBinAddr: 0x19860, symSize: 0x24 }
  - { offsetInCU: 0x1BD4, offset: 0x70275, size: 0x8, addend: 0x0, symName: '__ZN4pyo36pycell14PyRef$LT$T$GT$10try_borrow28_$u7b$$u7b$closure$u7d$$u7d$17hb03a8ec00839af33E', symObjAddr: 0x108, symBinAddr: 0x19884, symSize: 0x24 }
  - { offsetInCU: 0x1C18, offset: 0x702B9, size: 0x8, addend: 0x0, symName: '__ZN4pyo36pycell14PyRef$LT$T$GT$10try_borrow28_$u7b$$u7b$closure$u7d$$u7d$17he4da7fa21591f949E', symObjAddr: 0x12C, symBinAddr: 0x198A8, symSize: 0x24 }
  - { offsetInCU: 0x1C63, offset: 0x70304, size: 0x8, addend: 0x0, symName: '__ZN72_$LT$pyo3..pycell..PyRef$LT$T$GT$$u20$as$u20$core..ops..deref..Deref$GT$5deref17h2fb05c3c98ef4f6bE', symObjAddr: 0x248, symBinAddr: 0x199C4, symSize: 0x78 }
  - { offsetInCU: 0x1C9A, offset: 0x7033B, size: 0x8, addend: 0x0, symName: '__ZN72_$LT$pyo3..pycell..PyRef$LT$T$GT$$u20$as$u20$core..ops..deref..Deref$GT$5deref17hae12e3382edb5c1fE', symObjAddr: 0x2C0, symBinAddr: 0x19A3C, symSize: 0x74 }
  - { offsetInCU: 0x1CD1, offset: 0x70372, size: 0x8, addend: 0x0, symName: '__ZN72_$LT$pyo3..pycell..PyRef$LT$T$GT$$u20$as$u20$core..ops..deref..Deref$GT$5deref17hca625b417bb70bbcE', symObjAddr: 0x334, symBinAddr: 0x19AB0, symSize: 0x74 }
  - { offsetInCU: 0x2163, offset: 0x70804, size: 0x8, addend: 0x0, symName: '__ZN57_$LT$T$u20$as$u20$pyo3..conversion..FromPyObjectBound$GT$20from_py_object_bound17h3eaf24e550741f43E', symObjAddr: 0x1AC, symBinAddr: 0x19928, symSize: 0x34 }
  - { offsetInCU: 0x219A, offset: 0x7083B, size: 0x8, addend: 0x0, symName: '__ZN57_$LT$T$u20$as$u20$pyo3..conversion..FromPyObjectBound$GT$20from_py_object_bound17h411a92cd9a7005aaE', symObjAddr: 0x1E0, symBinAddr: 0x1995C, symSize: 0x34 }
  - { offsetInCU: 0x21D1, offset: 0x70872, size: 0x8, addend: 0x0, symName: '__ZN57_$LT$T$u20$as$u20$pyo3..conversion..FromPyObjectBound$GT$20from_py_object_bound17hfd79e6249b7ae711E', symObjAddr: 0x214, symBinAddr: 0x19990, symSize: 0x34 }
  - { offsetInCU: 0x220E, offset: 0x708AF, size: 0x8, addend: 0x0, symName: '__ZN79_$LT$pyo3..pycell..PyRef$LT$T$GT$$u20$as$u20$pyo3..conversion..FromPyObject$GT$13extract_bound17h4f3dc84bdbf54f70E', symObjAddr: 0x3A8, symBinAddr: 0x19B24, symSize: 0x94 }
  - { offsetInCU: 0x2263, offset: 0x70904, size: 0x8, addend: 0x0, symName: '__ZN79_$LT$pyo3..pycell..PyRef$LT$T$GT$$u20$as$u20$pyo3..conversion..FromPyObject$GT$13extract_bound17h6f68cc14e1b306f3E', symObjAddr: 0x43C, symBinAddr: 0x19BB8, symSize: 0x94 }
  - { offsetInCU: 0x22B8, offset: 0x70959, size: 0x8, addend: 0x0, symName: '__ZN79_$LT$pyo3..pycell..PyRef$LT$T$GT$$u20$as$u20$pyo3..conversion..FromPyObject$GT$13extract_bound17h8924b9dce7ea8ba3E', symObjAddr: 0x4D0, symBinAddr: 0x19C4C, symSize: 0x94 }
  - { offsetInCU: 0x28D5, offset: 0x70F76, size: 0x8, addend: 0x0, symName: '__ZN4pyo36pycell14PyRef$LT$T$GT$10try_borrow17h0457c9c938ae9aebE', symObjAddr: 0x0, symBinAddr: 0x1977C, symSize: 0x4C }
  - { offsetInCU: 0x2AF0, offset: 0x71191, size: 0x8, addend: 0x0, symName: '__ZN4pyo36pycell14PyRef$LT$T$GT$10try_borrow17h0cb980b56b9baf07E', symObjAddr: 0x4C, symBinAddr: 0x197C8, symSize: 0x4C }
  - { offsetInCU: 0x2B47, offset: 0x711E8, size: 0x8, addend: 0x0, symName: '__ZN4pyo36pycell14PyRef$LT$T$GT$10try_borrow17h5deb2703edf835e2E', symObjAddr: 0x98, symBinAddr: 0x19814, symSize: 0x4C }
  - { offsetInCU: 0x2BC5, offset: 0x71266, size: 0x8, addend: 0x0, symName: '__ZN4pyo36pycell14PyRef$LT$T$GT$6borrow17h98cb5f6dd8e0ed2dE', symObjAddr: 0x150, symBinAddr: 0x198CC, symSize: 0x40 }
  - { offsetInCU: 0x1E, offset: 0x71544, size: 0x8, addend: 0x0, symName: __ZN3std4sync6poison4once4Once12is_completed17h59acbf1a22124efdE, symObjAddr: 0x0, symBinAddr: 0x19CE0, symSize: 0x54 }
  - { offsetInCU: 0x1D6, offset: 0x716FC, size: 0x8, addend: 0x0, symName: __ZN3std4sync6poison4once4Once12is_completed17h59acbf1a22124efdE, symObjAddr: 0x0, symBinAddr: 0x19CE0, symSize: 0x54 }
  - { offsetInCU: 0x1E, offset: 0x71770, size: 0x8, addend: 0x0, symName: __ZN4core4hash6Hasher11write_isize17h2a90ef80361fd344E, symObjAddr: 0x0, symBinAddr: 0x19D34, symSize: 0x28 }
  - { offsetInCU: 0x3A, offset: 0x7178C, size: 0x8, addend: 0x0, symName: __ZN4core4hash6Hasher11write_isize17h2a90ef80361fd344E, symObjAddr: 0x0, symBinAddr: 0x19D34, symSize: 0x28 }
  - { offsetInCU: 0x1E, offset: 0x71912, size: 0x8, addend: 0x0, symName: __ZN4core4hint16assert_unchecked18precondition_check17h9db24a8d33166f78E, symObjAddr: 0x0, symBinAddr: 0x19D5C, symSize: 0xA4 }
  - { offsetInCU: 0x340, offset: 0x71C34, size: 0x8, addend: 0x0, symName: __ZN4core4hint16assert_unchecked18precondition_check17h9db24a8d33166f78E, symObjAddr: 0x0, symBinAddr: 0x19D5C, symSize: 0xA4 }
  - { offsetInCU: 0x39B, offset: 0x71C8F, size: 0x8, addend: 0x0, symName: __ZN4core4hint21unreachable_unchecked17h2c387d2642caf205E, symObjAddr: 0xA4, symBinAddr: 0x19E00, symSize: 0x10 }
  - { offsetInCU: 0x3B9, offset: 0x71CAD, size: 0x8, addend: 0x0, symName: __ZN4core4hint21unreachable_unchecked18precondition_check17h8471469a195a1fddE, symObjAddr: 0xB4, symBinAddr: 0x19E10, symSize: 0x84 }
  - { offsetInCU: 0x1E, offset: 0x71EC0, size: 0x8, addend: 0x0, symName: '__ZN104_$LT$core..iter..adapters..copied..Copied$LT$I$GT$$u20$as$u20$core..iter..traits..iterator..Iterator$GT$4next17h611bd651951f945dE', symObjAddr: 0x0, symBinAddr: 0x19E94, symSize: 0x5C }
  - { offsetInCU: 0x1285, offset: 0x73127, size: 0x8, addend: 0x0, symName: '__ZN104_$LT$core..iter..adapters..copied..Copied$LT$I$GT$$u20$as$u20$core..iter..traits..iterator..Iterator$GT$4next17h611bd651951f945dE', symObjAddr: 0x0, symBinAddr: 0x19E94, symSize: 0x5C }
  - { offsetInCU: 0x1326, offset: 0x731C8, size: 0x8, addend: 0x0, symName: '__ZN63_$LT$I$u20$as$u20$core..iter..traits..collect..IntoIterator$GT$9into_iter17h466f22a520328e29E', symObjAddr: 0x5C, symBinAddr: 0x19EF0, symSize: 0x1C }
  - { offsetInCU: 0x1E, offset: 0x73884, size: 0x8, addend: 0x0, symName: '__ZN4pyo311conversions3std6string68_$LT$impl$u20$pyo3..conversion..IntoPyObject$u20$for$u20$$RF$str$GT$13into_pyobject17hbebac9a6527587e5E', symObjAddr: 0x0, symBinAddr: 0x19F0C, symSize: 0x30 }
  - { offsetInCU: 0x1229, offset: 0x74A8F, size: 0x8, addend: 0x0, symName: '__ZN4pyo311conversions3std6string68_$LT$impl$u20$pyo3..conversion..IntoPyObject$u20$for$u20$$RF$str$GT$13into_pyobject17hbebac9a6527587e5E', symObjAddr: 0x0, symBinAddr: 0x19F0C, symSize: 0x30 }
  - { offsetInCU: 0x1E, offset: 0x750DA, size: 0x8, addend: 0x0, symName: '__ZN118_$LT$pyo3..impl_..callback..HashCallbackOutput$u20$as$u20$pyo3..impl_..callback..IntoPyCallbackOutput$LT$isize$GT$$GT$7convert17hf97e49d64bf661a4E', symObjAddr: 0x0, symBinAddr: 0x19F3C, symSize: 0x50 }
  - { offsetInCU: 0x1410, offset: 0x764CC, size: 0x8, addend: 0x0, symName: '__ZN118_$LT$pyo3..impl_..callback..HashCallbackOutput$u20$as$u20$pyo3..impl_..callback..IntoPyCallbackOutput$LT$isize$GT$$GT$7convert17hf97e49d64bf661a4E', symObjAddr: 0x0, symBinAddr: 0x19F3C, symSize: 0x50 }
  - { offsetInCU: 0x1478, offset: 0x76534, size: 0x8, addend: 0x0, symName: '__ZN74_$LT$u64$u20$as$u20$pyo3..impl_..callback..WrappingCastTo$LT$isize$GT$$GT$13wrapping_cast17h01c935e0f855fc8aE', symObjAddr: 0x50, symBinAddr: 0x19F8C, symSize: 0x10 }
  - { offsetInCU: 0x1E, offset: 0x76DCF, size: 0x8, addend: 0x0, symName: '__ZN117_$LT$serde..private..de..missing_field..MissingFieldDeserializer$LT$E$GT$$u20$as$u20$serde_core..de..Deserializer$GT$15deserialize_any17ha37f3a909c10c9acE', symObjAddr: 0x0, symBinAddr: 0x19F9C, symSize: 0x60 }
  - { offsetInCU: 0x30C, offset: 0x770BD, size: 0x8, addend: 0x0, symName: '__ZN117_$LT$serde..private..de..missing_field..MissingFieldDeserializer$LT$E$GT$$u20$as$u20$serde_core..de..Deserializer$GT$15deserialize_any17ha37f3a909c10c9acE', symObjAddr: 0x0, symBinAddr: 0x19F9C, symSize: 0x60 }
  - { offsetInCU: 0x358, offset: 0x77109, size: 0x8, addend: 0x0, symName: '__ZN117_$LT$serde..private..de..missing_field..MissingFieldDeserializer$LT$E$GT$$u20$as$u20$serde_core..de..Deserializer$GT$15deserialize_any17hd2ea2340995d1e78E', symObjAddr: 0x60, symBinAddr: 0x19FFC, symSize: 0x60 }
  - { offsetInCU: 0x3A4, offset: 0x77155, size: 0x8, addend: 0x0, symName: '__ZN117_$LT$serde..private..de..missing_field..MissingFieldDeserializer$LT$E$GT$$u20$as$u20$serde_core..de..Deserializer$GT$16deserialize_enum17h789bf90ef7a69a51E', symObjAddr: 0xC0, symBinAddr: 0x1A05C, symSize: 0x38 }
  - { offsetInCU: 0x40C, offset: 0x771BD, size: 0x8, addend: 0x0, symName: '__ZN117_$LT$serde..private..de..missing_field..MissingFieldDeserializer$LT$E$GT$$u20$as$u20$serde_core..de..Deserializer$GT$18deserialize_option17h6456068146ac136aE', symObjAddr: 0xF8, symBinAddr: 0x1A094, symSize: 0x24 }
  - { offsetInCU: 0x458, offset: 0x77209, size: 0x8, addend: 0x0, symName: '__ZN117_$LT$serde..private..de..missing_field..MissingFieldDeserializer$LT$E$GT$$u20$as$u20$serde_core..de..Deserializer$GT$18deserialize_string17h9bb77f0492207febE', symObjAddr: 0x11C, symBinAddr: 0x1A0B8, symSize: 0x28 }
  - { offsetInCU: 0x4D0, offset: 0x77281, size: 0x8, addend: 0x0, symName: __ZN5serde7private2de13missing_field17h8ce9c2d9cd7c8a25E, symObjAddr: 0x144, symBinAddr: 0x1A0E0, symSize: 0x34 }
  - { offsetInCU: 0x52B, offset: 0x772DC, size: 0x8, addend: 0x0, symName: __ZN5serde7private2de13missing_field17h9c45f8db69d98e2eE, symObjAddr: 0x178, symBinAddr: 0x1A114, symSize: 0x34 }
  - { offsetInCU: 0x586, offset: 0x77337, size: 0x8, addend: 0x0, symName: __ZN5serde7private2de13missing_field17ha3368fe7becebfc1E, symObjAddr: 0x1AC, symBinAddr: 0x1A148, symSize: 0x34 }
  - { offsetInCU: 0x1E, offset: 0x77B9C, size: 0x8, addend: 0x0, symName: '__ZN63_$LT$I$u20$as$u20$core..iter..traits..collect..IntoIterator$GT$9into_iter17h942d033c5013101bE', symObjAddr: 0x0, symBinAddr: 0x1A17C, symSize: 0x18 }
  - { offsetInCU: 0x81B, offset: 0x78399, size: 0x8, addend: 0x0, symName: '__ZN63_$LT$I$u20$as$u20$core..iter..traits..collect..IntoIterator$GT$9into_iter17h942d033c5013101bE', symObjAddr: 0x0, symBinAddr: 0x1A17C, symSize: 0x18 }
  - { offsetInCU: 0x1E, offset: 0x79368, size: 0x8, addend: 0x0, symName: '__ZN102_$LT$core..iter..adapters..zip..Zip$LT$A$C$B$GT$$u20$as$u20$core..iter..traits..iterator..Iterator$GT$4next17h098e10a715ef58e5E', symObjAddr: 0x0, symBinAddr: 0x1A194, symSize: 0x24 }
  - { offsetInCU: 0x81B, offset: 0x79B65, size: 0x8, addend: 0x0, symName: '__ZN102_$LT$core..iter..adapters..zip..Zip$LT$A$C$B$GT$$u20$as$u20$core..iter..traits..iterator..Iterator$GT$4next17h098e10a715ef58e5E', symObjAddr: 0x0, symBinAddr: 0x1A194, symSize: 0x24 }
  - { offsetInCU: 0x85F, offset: 0x79BA9, size: 0x8, addend: 0x0, symName: '__ZN111_$LT$core..iter..adapters..zip..Zip$LT$A$C$B$GT$$u20$as$u20$core..iter..adapters..zip..ZipImpl$LT$A$C$B$GT$$GT$3new17hd8e33439c96e2b7bE', symObjAddr: 0x24, symBinAddr: 0x1A1B8, symSize: 0x40 }
  - { offsetInCU: 0x8AB, offset: 0x79BF5, size: 0x8, addend: 0x0, symName: '__ZN111_$LT$core..iter..adapters..zip..Zip$LT$A$C$B$GT$$u20$as$u20$core..iter..adapters..zip..ZipImpl$LT$A$C$B$GT$$GT$4next17hdbcb45444c41b9b5E', symObjAddr: 0x64, symBinAddr: 0x1A1F8, symSize: 0xE0 }
  - { offsetInCU: 0xAE8, offset: 0x79E32, size: 0x8, addend: 0x0, symName: '__ZN63_$LT$I$u20$as$u20$core..iter..traits..collect..IntoIterator$GT$9into_iter17h2aa83bb231f2bf35E', symObjAddr: 0x144, symBinAddr: 0x1A2D8, symSize: 0x30 }
  - { offsetInCU: 0xB20, offset: 0x79E6A, size: 0x8, addend: 0x0, symName: '__ZN63_$LT$I$u20$as$u20$core..iter..traits..collect..IntoIterator$GT$9into_iter17hcbbcdad161605c5eE', symObjAddr: 0x174, symBinAddr: 0x1A308, symSize: 0x30 }
  - { offsetInCU: 0x1E, offset: 0x7B2EF, size: 0x8, addend: 0x0, symName: '__ZN86_$LT$core..marker..PhantomData$LT$T$GT$$u20$as$u20$serde_core..de..DeserializeSeed$GT$11deserialize17h0d6ecac99bd35bd7E', symObjAddr: 0x0, symBinAddr: 0x1A338, symSize: 0x24 }
  - { offsetInCU: 0x335, offset: 0x7B606, size: 0x8, addend: 0x0, symName: '__ZN86_$LT$core..marker..PhantomData$LT$T$GT$$u20$as$u20$serde_core..de..DeserializeSeed$GT$11deserialize17h0d6ecac99bd35bd7E', symObjAddr: 0x0, symBinAddr: 0x1A338, symSize: 0x24 }
  - { offsetInCU: 0x390, offset: 0x7B661, size: 0x8, addend: 0x0, symName: '__ZN86_$LT$core..marker..PhantomData$LT$T$GT$$u20$as$u20$serde_core..de..DeserializeSeed$GT$11deserialize17h14a6d28adece3985E', symObjAddr: 0x24, symBinAddr: 0x1A35C, symSize: 0x24 }
  - { offsetInCU: 0x3EB, offset: 0x7B6BC, size: 0x8, addend: 0x0, symName: '__ZN86_$LT$core..marker..PhantomData$LT$T$GT$$u20$as$u20$serde_core..de..DeserializeSeed$GT$11deserialize17h18dab94ebc6cd594E', symObjAddr: 0x48, symBinAddr: 0x1A380, symSize: 0x24 }
  - { offsetInCU: 0x446, offset: 0x7B717, size: 0x8, addend: 0x0, symName: '__ZN86_$LT$core..marker..PhantomData$LT$T$GT$$u20$as$u20$serde_core..de..DeserializeSeed$GT$11deserialize17h83b5a86d094f8e22E', symObjAddr: 0x6C, symBinAddr: 0x1A3A4, symSize: 0x24 }
  - { offsetInCU: 0x4A1, offset: 0x7B772, size: 0x8, addend: 0x0, symName: '__ZN86_$LT$core..marker..PhantomData$LT$T$GT$$u20$as$u20$serde_core..de..DeserializeSeed$GT$11deserialize17hdfb7bbd8162b9689E', symObjAddr: 0x90, symBinAddr: 0x1A3C8, symSize: 0x24 }
  - { offsetInCU: 0x4FC, offset: 0x7B7CD, size: 0x8, addend: 0x0, symName: '__ZN86_$LT$core..marker..PhantomData$LT$T$GT$$u20$as$u20$serde_core..de..DeserializeSeed$GT$11deserialize17hf05a6f372912fe18E', symObjAddr: 0xB4, symBinAddr: 0x1A3EC, symSize: 0x24 }
  - { offsetInCU: 0x557, offset: 0x7B828, size: 0x8, addend: 0x0, symName: '__ZN86_$LT$core..marker..PhantomData$LT$T$GT$$u20$as$u20$serde_core..de..DeserializeSeed$GT$11deserialize17hf1fec7d16b6e29fbE', symObjAddr: 0xD8, symBinAddr: 0x1A410, symSize: 0x24 }
  - { offsetInCU: 0x1E, offset: 0x7C391, size: 0x8, addend: 0x0, symName: '__ZN79_$LT$pyo3..types..string..PyString$u20$as$u20$pyo3..type_object..PyTypeInfo$GT$10is_type_of17hee283f7970c7d2b2E', symObjAddr: 0x0, symBinAddr: 0x1A434, symSize: 0x30 }
  - { offsetInCU: 0x119B, offset: 0x7D50E, size: 0x8, addend: 0x0, symName: '__ZN79_$LT$pyo3..types..string..PyString$u20$as$u20$pyo3..type_object..PyTypeInfo$GT$10is_type_of17hee283f7970c7d2b2E', symObjAddr: 0x0, symBinAddr: 0x1A434, symSize: 0x30 }
  - { offsetInCU: 0x1E, offset: 0x7DB0B, size: 0x8, addend: 0x0, symName: __ZN10serde_core2de5Error13missing_field17h0b07de397ff8620dE, symObjAddr: 0x0, symBinAddr: 0xA404C, symSize: 0x58 }
  - { offsetInCU: 0x7A, offset: 0x7DB67, size: 0x8, addend: 0x0, symName: '__ZN45_$LT$T$u20$as$u20$alloc..string..ToString$GT$9to_string17h8cdc88acb892f1e6E', symObjAddr: 0x240, symBinAddr: 0x1A464, symSize: 0x24 }
  - { offsetInCU: 0xB7, offset: 0x7DBA4, size: 0x8, addend: 0x0, symName: '__ZN49_$LT$T$u20$as$u20$alloc..string..SpecToString$GT$14spec_to_string17h4132adc47e694a3fE', symObjAddr: 0x264, symBinAddr: 0x1A488, symSize: 0xF4 }
  - { offsetInCU: 0x752, offset: 0x7E23F, size: 0x8, addend: 0x0, symName: __ZN10serde_core2de5Error13missing_field17h0b07de397ff8620dE, symObjAddr: 0x0, symBinAddr: 0xA404C, symSize: 0x58 }
  - { offsetInCU: 0x7A7, offset: 0x7E294, size: 0x8, addend: 0x0, symName: __ZN10serde_core2de5Error14invalid_length17h68ac6cc790e34192E, symObjAddr: 0x58, symBinAddr: 0xA40A4, symSize: 0x7C }
  - { offsetInCU: 0x825, offset: 0x7E312, size: 0x8, addend: 0x0, symName: __ZN10serde_core2de5Error15duplicate_field17h5340415b7fae76efE, symObjAddr: 0xD4, symBinAddr: 0xA4120, symSize: 0x58 }
  - { offsetInCU: 0x87A, offset: 0x7E367, size: 0x8, addend: 0x0, symName: __ZN10serde_core2de5Error15unknown_variant17h67ecc8396986521aE, symObjAddr: 0x12C, symBinAddr: 0xA4178, symSize: 0x114 }
  - { offsetInCU: 0x1E, offset: 0x7E970, size: 0x8, addend: 0x0, symName: '__ZN73_$LT$pyo3..types..any..PyAny$u20$as$u20$pyo3..type_object..PyTypeInfo$GT$15type_object_raw17h1734eccb44144570E', symObjAddr: 0x0, symBinAddr: 0x1A57C, symSize: 0x24 }
  - { offsetInCU: 0x1111, offset: 0x7FA63, size: 0x8, addend: 0x0, symName: '__ZN73_$LT$pyo3..types..any..PyAny$u20$as$u20$pyo3..type_object..PyTypeInfo$GT$15type_object_raw17h1734eccb44144570E', symObjAddr: 0x0, symBinAddr: 0x1A57C, symSize: 0x24 }
  - { offsetInCU: 0x1E, offset: 0x7FFD5, size: 0x8, addend: 0x0, symName: '__ZN4core3str6traits54_$LT$impl$u20$core..cmp..PartialEq$u20$for$u20$str$GT$2eq17ha56adeab2061532bE', symObjAddr: 0x0, symBinAddr: 0x1A5A0, symSize: 0x64 }
  - { offsetInCU: 0x63, offset: 0x8001A, size: 0x8, addend: 0x0, symName: '__ZN4core3str6traits54_$LT$impl$u20$core..cmp..PartialEq$u20$for$u20$str$GT$2eq17ha56adeab2061532bE', symObjAddr: 0x0, symBinAddr: 0x1A5A0, symSize: 0x64 }
  - { offsetInCU: 0x1E, offset: 0x801FB, size: 0x8, addend: 0x0, symName: '__ZN4pyo311conversions3std6option90_$LT$impl$u20$pyo3..conversion..IntoPyObject$u20$for$u20$core..option..Option$LT$T$GT$$GT$13into_pyobject28_$u7b$$u7b$closure$u7d$$u7d$17h328bdfed0c42c85aE', symObjAddr: 0x0, symBinAddr: 0x1A604, symSize: 0x2C }
  - { offsetInCU: 0x12AF, offset: 0x8148C, size: 0x8, addend: 0x0, symName: '__ZN4pyo311conversions3std6option90_$LT$impl$u20$pyo3..conversion..IntoPyObject$u20$for$u20$core..option..Option$LT$T$GT$$GT$13into_pyobject28_$u7b$$u7b$closure$u7d$$u7d$17h328bdfed0c42c85aE', symObjAddr: 0x0, symBinAddr: 0x1A604, symSize: 0x2C }
  - { offsetInCU: 0x12EF, offset: 0x814CC, size: 0x8, addend: 0x0, symName: '__ZN4pyo311conversions3std6option90_$LT$impl$u20$pyo3..conversion..IntoPyObject$u20$for$u20$core..option..Option$LT$T$GT$$GT$13into_pyobject28_$u7b$$u7b$closure$u7d$$u7d$17hb4b509bc3ded59a1E', symObjAddr: 0x2C, symBinAddr: 0x1A630, symSize: 0x38 }
  - { offsetInCU: 0x1E, offset: 0x81C03, size: 0x8, addend: 0x0, symName: __ZN4core4iter6traits8iterator8Iterator3zip17hf8bac617e69647eeE, symObjAddr: 0x0, symBinAddr: 0x1A668, symSize: 0xB4 }
  - { offsetInCU: 0x921, offset: 0x82506, size: 0x8, addend: 0x0, symName: __ZN4core4iter6traits8iterator8Iterator3zip17hf8bac617e69647eeE, symObjAddr: 0x0, symBinAddr: 0x1A668, symSize: 0xB4 }
  - { offsetInCU: 0x997, offset: 0x8257C, size: 0x8, addend: 0x0, symName: __ZN4core4iter6traits8iterator8Iterator4take17h8ac5a65f6ed57163E, symObjAddr: 0xB4, symBinAddr: 0x1A71C, symSize: 0x24 }
  - { offsetInCU: 0x1E, offset: 0x836C5, size: 0x8, addend: 0x0, symName: __ZN4core3ptr5write17h3fc0f65c95a13417E, symObjAddr: 0x0, symBinAddr: 0x1A740, symSize: 0x2C }
  - { offsetInCU: 0xCC, offset: 0x83773, size: 0x8, addend: 0x0, symName: __ZN4core3ptr5write17h3fc0f65c95a13417E, symObjAddr: 0x0, symBinAddr: 0x1A740, symSize: 0x2C }
  - { offsetInCU: 0x10F, offset: 0x837B6, size: 0x8, addend: 0x0, symName: __ZN4core3ptr5write17h6c9730d9ed7dbceeE, symObjAddr: 0x2C, symBinAddr: 0x1A76C, symSize: 0x28 }
  - { offsetInCU: 0x151, offset: 0x837F8, size: 0x8, addend: 0x0, symName: __ZN4core3ptr5write17h9eaa84c59c58e436E, symObjAddr: 0x54, symBinAddr: 0x1A794, symSize: 0x2C }
  - { offsetInCU: 0x1E, offset: 0x83D69, size: 0x8, addend: 0x0, symName: '__ZN106_$LT$core..ops..range..Range$LT$usize$GT$$u20$as$u20$core..slice..index..SliceIndex$LT$$u5b$T$u5d$$GT$$GT$13get_unchecked18precondition_check17hec5c579203c7b8a4E', symObjAddr: 0x0, symBinAddr: 0x1A7C0, symSize: 0xCC }
  - { offsetInCU: 0x34A, offset: 0x84095, size: 0x8, addend: 0x0, symName: '__ZN106_$LT$core..ops..range..Range$LT$usize$GT$$u20$as$u20$core..slice..index..SliceIndex$LT$$u5b$T$u5d$$GT$$GT$13get_unchecked18precondition_check17hec5c579203c7b8a4E', symObjAddr: 0x0, symBinAddr: 0x1A7C0, symSize: 0xCC }
  - { offsetInCU: 0x1E, offset: 0x842B3, size: 0x8, addend: 0x0, symName: '__ZN10slickit_py170_$LT$impl$u20$pyo3..impl_..pyclass..PyMethods$LT$slickit_py..ComponentKind$GT$$u20$for$u20$pyo3..impl_..pyclass..PyClassImplCollector$LT$slickit_py..ComponentKind$GT$$GT$10py_methods17hde65177eac24ea74E', symObjAddr: 0x0, symBinAddr: 0x1A88C, symSize: 0x14 }
  - { offsetInCU: 0x16FE, offset: 0x85993, size: 0x8, addend: 0x0, symName: '__ZN10slickit_py170_$LT$impl$u20$pyo3..impl_..pyclass..PyMethods$LT$slickit_py..ComponentKind$GT$$u20$for$u20$pyo3..impl_..pyclass..PyClassImplCollector$LT$slickit_py..ComponentKind$GT$$GT$10py_methods17hde65177eac24ea74E', symObjAddr: 0x0, symBinAddr: 0x1A88C, symSize: 0x14 }
  - { offsetInCU: 0x173B, offset: 0x859D0, size: 0x8, addend: 0x0, symName: '__ZN10slickit_py178_$LT$impl$u20$pyo3..impl_..pyclass..PyMethods$LT$slickit_py..ComponentManifest$GT$$u20$for$u20$pyo3..impl_..pyclass..PyClassImplCollector$LT$slickit_py..ComponentManifest$GT$$GT$10py_methods17h2ea31ff4300f7c1dE', symObjAddr: 0x14, symBinAddr: 0x1A8A0, symSize: 0x14 }
  - { offsetInCU: 0x1786, offset: 0x85A1B, size: 0x8, addend: 0x0, symName: '__ZN10slickit_py178_$LT$impl$u20$pyo3..impl_..pyclass..PyMethods$LT$slickit_py..ComponentManifest$GT$$u20$for$u20$pyo3..impl_..pyclass..PyClassImplCollector$LT$slickit_py..ComponentManifest$GT$$GT$10py_methods5ITEMS10trampoline192_$LT$impl$u20$pyo3..impl_..pyclass..PyClassNewTextSignature$LT$slickit_py..ComponentManifest$GT$$u20$for$u20$pyo3..impl_..pyclass..PyClassImplCollector$LT$slickit_py..ComponentManifest$GT$$GT$18new_text_signature17hdbf083595d99cdb6E', symObjAddr: 0x28, symBinAddr: 0x1A8B4, symSize: 0x28 }
  - { offsetInCU: 0x17C7, offset: 0x85A5C, size: 0x8, addend: 0x0, symName: '__ZN10slickit_py166_$LT$impl$u20$pyo3..impl_..pyclass..PyMethods$LT$slickit_py..TypedConfig$GT$$u20$for$u20$pyo3..impl_..pyclass..PyClassImplCollector$LT$slickit_py..TypedConfig$GT$$GT$10py_methods17h1f394cd1a6027fcaE', symObjAddr: 0x50, symBinAddr: 0x1A8DC, symSize: 0x14 }
  - { offsetInCU: 0x1812, offset: 0x85AA7, size: 0x8, addend: 0x0, symName: '__ZN10slickit_py166_$LT$impl$u20$pyo3..impl_..pyclass..PyMethods$LT$slickit_py..TypedConfig$GT$$u20$for$u20$pyo3..impl_..pyclass..PyClassImplCollector$LT$slickit_py..TypedConfig$GT$$GT$10py_methods5ITEMS10trampoline180_$LT$impl$u20$pyo3..impl_..pyclass..PyClassNewTextSignature$LT$slickit_py..TypedConfig$GT$$u20$for$u20$pyo3..impl_..pyclass..PyClassImplCollector$LT$slickit_py..TypedConfig$GT$$GT$18new_text_signature17h9222988eca27a5edE', symObjAddr: 0x64, symBinAddr: 0x1A8F0, symSize: 0x28 }
  - { offsetInCU: 0x1E, offset: 0x86959, size: 0x8, addend: 0x0, symName: __ZN3std5panic12catch_unwind17h11aa203f9de1ce83E, symObjAddr: 0x0, symBinAddr: 0x1A918, symSize: 0xF0 }
  - { offsetInCU: 0x289F, offset: 0x891DA, size: 0x8, addend: 0x0, symName: __ZN3std5panic12catch_unwind17h11aa203f9de1ce83E, symObjAddr: 0x0, symBinAddr: 0x1A918, symSize: 0xF0 }
  - { offsetInCU: 0x2969, offset: 0x892A4, size: 0x8, addend: 0x0, symName: __ZN3std5panic12catch_unwind17h4626b53d539b1c96E, symObjAddr: 0xF0, symBinAddr: 0x1AA08, symSize: 0xE0 }
  - { offsetInCU: 0x2A32, offset: 0x8936D, size: 0x8, addend: 0x0, symName: __ZN3std5panic12catch_unwind17h679115fe6ce7ca63E, symObjAddr: 0x1D0, symBinAddr: 0x1AAE8, symSize: 0xE0 }
  - { offsetInCU: 0x2AFB, offset: 0x89436, size: 0x8, addend: 0x0, symName: __ZN3std5panic12catch_unwind17h6eb476dec96a9303E, symObjAddr: 0x2B0, symBinAddr: 0x1ABC8, symSize: 0xDC }
  - { offsetInCU: 0x2BA4, offset: 0x894DF, size: 0x8, addend: 0x0, symName: __ZN3std5panic12catch_unwind17h7744e06a10ddd808E, symObjAddr: 0x38C, symBinAddr: 0x1ACA4, symSize: 0xDC }
  - { offsetInCU: 0x2C4D, offset: 0x89588, size: 0x8, addend: 0x0, symName: __ZN3std5panic12catch_unwind17h9c361781fa0acd6aE, symObjAddr: 0x468, symBinAddr: 0x1AD80, symSize: 0xCC }
  - { offsetInCU: 0x2CF6, offset: 0x89631, size: 0x8, addend: 0x0, symName: __ZN3std5panic12catch_unwind17h9f5306209f631b43E, symObjAddr: 0x534, symBinAddr: 0x1AE4C, symSize: 0xDC }
  - { offsetInCU: 0x2D9F, offset: 0x896DA, size: 0x8, addend: 0x0, symName: __ZN3std5panic12catch_unwind17hac5b34a0055fc46fE, symObjAddr: 0x610, symBinAddr: 0x1AF28, symSize: 0xDC }
  - { offsetInCU: 0x2E48, offset: 0x89783, size: 0x8, addend: 0x0, symName: __ZN3std5panic12catch_unwind17hc2a319838d78c8f7E, symObjAddr: 0x6EC, symBinAddr: 0x1B004, symSize: 0xDC }
  - { offsetInCU: 0x1E, offset: 0x89C0E, size: 0x8, addend: 0x0, symName: __ZN4core9ub_checks23maybe_is_nonoverlapping7runtime17ha2e47b467570e6efE, symObjAddr: 0x0, symBinAddr: 0x1B134, symSize: 0xD8 }
  - { offsetInCU: 0x1A3, offset: 0x89D93, size: 0x8, addend: 0x0, symName: __ZN4core9ub_checks23maybe_is_nonoverlapping7runtime17ha2e47b467570e6efE, symObjAddr: 0x0, symBinAddr: 0x1B134, symSize: 0xD8 }
  - { offsetInCU: 0x1E, offset: 0x89FA2, size: 0x8, addend: 0x0, symName: __ZN8pyo3_ffi10boolobject7Py_True17h4f3a09225d4fababE, symObjAddr: 0x0, symBinAddr: 0x1B20C, symSize: 0xC }
  - { offsetInCU: 0xB9, offset: 0x8A03D, size: 0x8, addend: 0x0, symName: __ZN8pyo3_ffi10boolobject7Py_True17h4f3a09225d4fababE, symObjAddr: 0x0, symBinAddr: 0x1B20C, symSize: 0xC }
  - { offsetInCU: 0xD6, offset: 0x8A05A, size: 0x8, addend: 0x0, symName: __ZN8pyo3_ffi10boolobject8Py_False17he4f90973946d68c0E, symObjAddr: 0xC, symBinAddr: 0x1B218, symSize: 0xC }
  - { offsetInCU: 0x1E, offset: 0x8B4E8, size: 0x8, addend: 0x0, symName: '__ZN102_$LT$pyo3..internal..get_slot..Slot$LT$74_i32$GT$$u20$as$u20$pyo3..internal..get_slot..GetSlotImpl$GT$8get_slot17hac136fc8c8f2eb05E', symObjAddr: 0x0, symBinAddr: 0x1B224, symSize: 0x74 }
  - { offsetInCU: 0x10C2, offset: 0x8C58C, size: 0x8, addend: 0x0, symName: '__ZN102_$LT$pyo3..internal..get_slot..Slot$LT$74_i32$GT$$u20$as$u20$pyo3..internal..get_slot..GetSlotImpl$GT$8get_slot17hac136fc8c8f2eb05E', symObjAddr: 0x0, symBinAddr: 0x1B224, symSize: 0x74 }
  - { offsetInCU: 0x1E, offset: 0x8CA53, size: 0x8, addend: 0x0, symName: '__ZN97_$LT$alloc..ffi..c_str..CString$u20$as$u20$core..borrow..Borrow$LT$core..ffi..c_str..CStr$GT$$GT$6borrow17h1a550c34d153e6e7E', symObjAddr: 0x0, symBinAddr: 0x1B298, symSize: 0x20 }
  - { offsetInCU: 0xA4, offset: 0x8CAD9, size: 0x8, addend: 0x0, symName: '__ZN97_$LT$alloc..ffi..c_str..CString$u20$as$u20$core..borrow..Borrow$LT$core..ffi..c_str..CStr$GT$$GT$6borrow17h1a550c34d153e6e7E', symObjAddr: 0x0, symBinAddr: 0x1B298, symSize: 0x20 }
  - { offsetInCU: 0x1E, offset: 0x8CC5E, size: 0x8, addend: 0x0, symName: __ZN4core4char7methods25encode_utf8_raw_unchecked17hce2bfd4b50ac796dE, symObjAddr: 0x0, symBinAddr: 0x1B2B8, symSize: 0x14C }
  - { offsetInCU: 0x9E, offset: 0x8CCDE, size: 0x8, addend: 0x0, symName: __ZN4core4char7methods25encode_utf8_raw_unchecked17hce2bfd4b50ac796dE, symObjAddr: 0x0, symBinAddr: 0x1B2B8, symSize: 0x14C }
  - { offsetInCU: 0x1E, offset: 0x8CE6E, size: 0x8, addend: 0x0, symName: '__ZN10serde_core3ser5impls60_$LT$impl$u20$serde_core..ser..Serialize$u20$for$u20$str$GT$9serialize17h6a3a33c46e2a312aE', symObjAddr: 0x0, symBinAddr: 0x1B404, symSize: 0x48 }
  - { offsetInCU: 0x2A4, offset: 0x8D0F4, size: 0x8, addend: 0x0, symName: '__ZN10serde_core3ser5impls60_$LT$impl$u20$serde_core..ser..Serialize$u20$for$u20$str$GT$9serialize17h6a3a33c46e2a312aE', symObjAddr: 0x0, symBinAddr: 0x1B404, symSize: 0x48 }
  - { offsetInCU: 0x1E, offset: 0x8D7C4, size: 0x8, addend: 0x0, symName: '__ZN100_$LT$pyo3..types..tuple..BorrowedTupleIterator$u20$as$u20$core..iter..traits..iterator..Iterator$GT$4next17h477d6e723a4c26b6E', symObjAddr: 0x0, symBinAddr: 0x1B44C, symSize: 0x9C }
  - { offsetInCU: 0x1208, offset: 0x8E9AE, size: 0x8, addend: 0x0, symName: '__ZN100_$LT$pyo3..types..tuple..BorrowedTupleIterator$u20$as$u20$core..iter..traits..iterator..Iterator$GT$4next17h477d6e723a4c26b6E', symObjAddr: 0x0, symBinAddr: 0x1B44C, symSize: 0x9C }
  - { offsetInCU: 0x1E, offset: 0x8F084, size: 0x8, addend: 0x0, symName: '__ZN10serde_core2de5impls82_$LT$impl$u20$serde_core..de..Deserialize$u20$for$u20$alloc..vec..Vec$LT$T$GT$$GT$11deserialize17h039db9c5126497e5E', symObjAddr: 0x0, symBinAddr: 0x1B4E8, symSize: 0x24 }
  - { offsetInCU: 0x291, offset: 0x8F2F7, size: 0x8, addend: 0x0, symName: '__ZN3std2io5impls58_$LT$impl$u20$std..io..Write$u20$for$u20$$RF$mut$u20$W$GT$9write_all17hb6a08f71512abf65E', symObjAddr: 0x5C, symBinAddr: 0x1B544, symSize: 0x34 }
  - { offsetInCU: 0x2DA, offset: 0x8F340, size: 0x8, addend: 0x0, symName: '__ZN3std2io5impls74_$LT$impl$u20$std..io..Write$u20$for$u20$alloc..vec..Vec$LT$u8$C$A$GT$$GT$9write_all17h9c911b29c65967b8E', symObjAddr: 0x90, symBinAddr: 0x1B578, symSize: 0x3C }
  - { offsetInCU: 0x249D, offset: 0x91503, size: 0x8, addend: 0x0, symName: '__ZN10serde_core2de5impls82_$LT$impl$u20$serde_core..de..Deserialize$u20$for$u20$alloc..vec..Vec$LT$T$GT$$GT$11deserialize17h039db9c5126497e5E', symObjAddr: 0x0, symBinAddr: 0x1B4E8, symSize: 0x24 }
  - { offsetInCU: 0x2531, offset: 0x91597, size: 0x8, addend: 0x0, symName: '__ZN10serde_core3ser5impls81_$LT$impl$u20$serde_core..ser..Serialize$u20$for$u20$alloc..vec..Vec$LT$T$GT$$GT$9serialize17h6da73b3988ffc82eE', symObjAddr: 0x24, symBinAddr: 0x1B50C, symSize: 0x38 }
  - { offsetInCU: 0x259A, offset: 0x91600, size: 0x8, addend: 0x0, symName: '__ZN4pyo311conversions3std3vec89_$LT$impl$u20$pyo3..conversion..IntoPyObject$u20$for$u20$$RF$alloc..vec..Vec$LT$T$GT$$GT$13into_pyobject17h3dc35994d59bc6f1E', symObjAddr: 0xCC, symBinAddr: 0x1B5B4, symSize: 0x40 }
  - { offsetInCU: 0x25FB, offset: 0x91661, size: 0x8, addend: 0x0, symName: '__ZN4pyo35types8sequence85_$LT$impl$u20$pyo3..conversion..FromPyObject$u20$for$u20$alloc..vec..Vec$LT$T$GT$$GT$13extract_bound17h997069e148bc20cdE', symObjAddr: 0x10C, symBinAddr: 0x1B5F4, symSize: 0x88 }
  - { offsetInCU: 0x265A, offset: 0x916C0, size: 0x8, addend: 0x0, symName: '__ZN57_$LT$T$u20$as$u20$pyo3..conversion..FromPyObjectBound$GT$20from_py_object_bound17h5e40725e99cfd9ceE', symObjAddr: 0x194, symBinAddr: 0x1B67C, symSize: 0x34 }
  - { offsetInCU: 0x26A2, offset: 0x91708, size: 0x8, addend: 0x0, symName: '__ZN80_$LT$T$u20$as$u20$pyo3..impl_..extract_argument..PyFunctionArgument$LT$_$GT$$GT$7extract17hc68f1a18a96a1878E', symObjAddr: 0x7D8, symBinAddr: 0x1BCC0, symSize: 0x28 }
  - { offsetInCU: 0x302F, offset: 0x92095, size: 0x8, addend: 0x0, symName: '__ZN5alloc3vec16Vec$LT$T$C$A$GT$14extend_trusted28_$u7b$$u7b$closure$u7d$$u7d$17hec7c520f67378e72E', symObjAddr: 0x3B0, symBinAddr: 0x1B898, symSize: 0x30 }
  - { offsetInCU: 0x3144, offset: 0x921AA, size: 0x8, addend: 0x0, symName: '__ZN67_$LT$alloc..vec..Vec$LT$T$C$A$GT$$u20$as$u20$core..clone..Clone$GT$5clone17h6e0268db13161c8dE', symObjAddr: 0x734, symBinAddr: 0x1BC1C, symSize: 0x90 }
  - { offsetInCU: 0x331B, offset: 0x92381, size: 0x8, addend: 0x0, symName: '__ZN67_$LT$alloc..vec..Vec$LT$T$GT$$u20$as$u20$core..default..Default$GT$7default17h676ee43bf499c545E', symObjAddr: 0x7C4, symBinAddr: 0x1BCAC, symSize: 0x14 }
  - { offsetInCU: 0x333D, offset: 0x923A3, size: 0x8, addend: 0x0, symName: '__ZN67_$LT$alloc..vec..Vec$LT$T$GT$$u20$as$u20$core..default..Default$GT$7default17h676ee43bf499c545E', symObjAddr: 0x7C4, symBinAddr: 0x1BCAC, symSize: 0x14 }
  - { offsetInCU: 0x335E, offset: 0x923C4, size: 0x8, addend: 0x0, symName: '__ZN93_$LT$alloc..vec..Vec$LT$T$C$A$GT$$u20$as$u20$core..iter..traits..collect..Extend$LT$T$GT$$GT$6extend17hbe1888cb7ca7102dE', symObjAddr: 0x800, symBinAddr: 0x1BCE8, symSize: 0x54 }
  - { offsetInCU: 0x33B8, offset: 0x9241E, size: 0x8, addend: 0x0, symName: '__ZN94_$LT$$RF$alloc..vec..Vec$LT$T$C$A$GT$$u20$as$u20$core..iter..traits..collect..IntoIterator$GT$9into_iter17h2ff65afb50374b67E', symObjAddr: 0x854, symBinAddr: 0x1BD3C, symSize: 0xAC }
  - { offsetInCU: 0x3601, offset: 0x92667, size: 0x8, addend: 0x0, symName: '__ZN97_$LT$alloc..vec..Vec$LT$T$C$A$GT$$u20$as$u20$alloc..vec..spec_extend..SpecExtend$LT$T$C$I$GT$$GT$11spec_extend17h4a0816585ab9d763E', symObjAddr: 0x900, symBinAddr: 0x1BDE8, symSize: 0x2C }
  - { offsetInCU: 0x3756, offset: 0x927BC, size: 0x8, addend: 0x0, symName: '__ZN5alloc3vec12Vec$LT$T$GT$13with_capacity17h592cac2d46295e1cE', symObjAddr: 0x1C8, symBinAddr: 0x1B6B0, symSize: 0x48 }
  - { offsetInCU: 0x37EC, offset: 0x92852, size: 0x8, addend: 0x0, symName: '__ZN5alloc3vec12Vec$LT$T$GT$3new17h484499388c9828a5E', symObjAddr: 0x210, symBinAddr: 0x1B6F8, symSize: 0x14 }
  - { offsetInCU: 0x3A57, offset: 0x92ABD, size: 0x8, addend: 0x0, symName: '__ZN5alloc3vec16Vec$LT$T$C$A$GT$14extend_trusted17h9cf61a6d8cbd6599E', symObjAddr: 0x224, symBinAddr: 0x1B70C, symSize: 0x18C }
  - { offsetInCU: 0x3D9C, offset: 0x92E02, size: 0x8, addend: 0x0, symName: '__ZN5alloc3vec16Vec$LT$T$C$A$GT$3pop17h1b1e13629a8bd290E', symObjAddr: 0x3E0, symBinAddr: 0x1B8C8, symSize: 0xEC }
  - { offsetInCU: 0x4040, offset: 0x930A6, size: 0x8, addend: 0x0, symName: '__ZN5alloc3vec16Vec$LT$T$C$A$GT$4push17h01238fc8782fb99bE', symObjAddr: 0x4CC, symBinAddr: 0x1B9B4, symSize: 0x108 }
  - { offsetInCU: 0x4307, offset: 0x9336D, size: 0x8, addend: 0x0, symName: '__ZN5alloc3vec16Vec$LT$T$C$A$GT$4push17hfd9a4952f7320abaE', symObjAddr: 0x5D4, symBinAddr: 0x1BABC, symSize: 0xF4 }
  - { offsetInCU: 0x455E, offset: 0x935C4, size: 0x8, addend: 0x0, symName: '__ZN5alloc3vec16Vec$LT$T$C$A$GT$8as_slice17h86ad27caf2ee6250E', symObjAddr: 0x6C8, symBinAddr: 0x1BBB0, symSize: 0x6C }
  - { offsetInCU: 0x1E, offset: 0x94298, size: 0x8, addend: 0x0, symName: '__ZN111_$LT$T$u20$as$u20$pyo3..impl_..callback..IntoPyCallbackOutput$LT$$BP$mut$u20$pyo3_ffi..object..PyObject$GT$$GT$7convert17h6ea4df21a90f9bb8E', symObjAddr: 0x0, symBinAddr: 0x1BE14, symSize: 0x30 }
  - { offsetInCU: 0x1617, offset: 0x95891, size: 0x8, addend: 0x0, symName: '__ZN111_$LT$T$u20$as$u20$pyo3..impl_..callback..IntoPyCallbackOutput$LT$$BP$mut$u20$pyo3_ffi..object..PyObject$GT$$GT$7convert17h6ea4df21a90f9bb8E', symObjAddr: 0x0, symBinAddr: 0x1BE14, symSize: 0x30 }
  - { offsetInCU: 0x1665, offset: 0x958DF, size: 0x8, addend: 0x0, symName: '__ZN111_$LT$T$u20$as$u20$pyo3..impl_..callback..IntoPyCallbackOutput$LT$$BP$mut$u20$pyo3_ffi..object..PyObject$GT$$GT$7convert17hd35e9c893d41e00cE', symObjAddr: 0x30, symBinAddr: 0x1BE44, symSize: 0x38 }
  - { offsetInCU: 0x16B9, offset: 0x95933, size: 0x8, addend: 0x0, symName: '__ZN114_$LT$T$u20$as$u20$pyo3..impl_..callback..IntoPyCallbackOutput$LT$pyo3..impl_..callback..HashCallbackOutput$GT$$GT$7convert17he80a69e84dea70faE', symObjAddr: 0x68, symBinAddr: 0x1BE7C, symSize: 0x30 }
  - { offsetInCU: 0x1708, offset: 0x95982, size: 0x8, addend: 0x0, symName: __ZN4pyo35impl_8callback7convert17h133aa539056bd92bE, symObjAddr: 0x98, symBinAddr: 0x1BEAC, symSize: 0x28 }
  - { offsetInCU: 0x175F, offset: 0x959D9, size: 0x8, addend: 0x0, symName: __ZN4pyo35impl_8callback7convert17h228f9d037fc685f5E, symObjAddr: 0xC0, symBinAddr: 0x1BED4, symSize: 0x1C }
  - { offsetInCU: 0x17B7, offset: 0x95A31, size: 0x8, addend: 0x0, symName: __ZN4pyo35impl_8callback7convert17h2cb2ea4ce5d96081E, symObjAddr: 0xDC, symBinAddr: 0x1BEF0, symSize: 0x1C }
  - { offsetInCU: 0x180F, offset: 0x95A89, size: 0x8, addend: 0x0, symName: __ZN4pyo35impl_8callback7convert17h49acf078e2f15147E, symObjAddr: 0xF8, symBinAddr: 0x1BF0C, symSize: 0x24 }
  - { offsetInCU: 0x1866, offset: 0x95AE0, size: 0x8, addend: 0x0, symName: __ZN4pyo35impl_8callback7convert17h4c8cd29dce7b5c8dE, symObjAddr: 0x11C, symBinAddr: 0x1BF30, symSize: 0x20 }
  - { offsetInCU: 0x18BD, offset: 0x95B37, size: 0x8, addend: 0x0, symName: __ZN4pyo35impl_8callback7convert17hf290a48b32a7b441E, symObjAddr: 0x13C, symBinAddr: 0x1BF50, symSize: 0x1C }
  - { offsetInCU: 0x1915, offset: 0x95B8F, size: 0x8, addend: 0x0, symName: __ZN4pyo35impl_8callback7convert17hfd8832508522909dE, symObjAddr: 0x158, symBinAddr: 0x1BF6C, symSize: 0x20 }
  - { offsetInCU: 0x1E, offset: 0x96589, size: 0x8, addend: 0x0, symName: '__ZN160_$LT$$LT$T$u20$as$u20$alloc..slice..$LT$impl$u20$$u5b$T$u5d$$GT$..to_vec_in..ConvertVec$GT$..to_vec..DropGuard$LT$T$C$A$GT$$u20$as$u20$core..ops..drop..Drop$GT$4drop17hc89267742015d76fE', symObjAddr: 0x0, symBinAddr: 0x1BF8C, symSize: 0x20 }
  - { offsetInCU: 0x96B, offset: 0x96ED6, size: 0x8, addend: 0x0, symName: '__ZN4core3ptr100drop_in_place$LT$pyo3..pyclass_init..PyClassInitializerImpl$LT$slickit_py..ComponentManifest$GT$$GT$17h3fb2e30010ebd8a2E', symObjAddr: 0x5B4, symBinAddr: 0x1C51C, symSize: 0x58 }
  - { offsetInCU: 0x99A, offset: 0x96F05, size: 0x8, addend: 0x0, symName: '__ZN4core3ptr101drop_in_place$LT$core..option..Option$LT$pyo3..pycell..PyRef$LT$slickit_py..ComponentKind$GT$$GT$$GT$17h7439d8d659cced0fE', symObjAddr: 0x630, symBinAddr: 0x1C574, symSize: 0x44 }
  - { offsetInCU: 0x9C9, offset: 0x96F34, size: 0x8, addend: 0x0, symName: '__ZN4core3ptr105drop_in_place$LT$core..option..Option$LT$pyo3..pycell..PyRef$LT$slickit_py..ComponentManifest$GT$$GT$$GT$17h377ffc65f8e4f05dE', symObjAddr: 0x6F8, symBinAddr: 0x1C5B8, symSize: 0x44 }
  - { offsetInCU: 0x9F8, offset: 0x96F63, size: 0x8, addend: 0x0, symName: '__ZN4core3ptr108drop_in_place$LT$core..result..Result$LT$$LP$$RP$$C$alloc..borrow..Cow$LT$core..ffi..c_str..CStr$GT$$GT$$GT$17h7cfac22b4bcaf64eE', symObjAddr: 0x760, symBinAddr: 0x1C5FC, symSize: 0x44 }
  - { offsetInCU: 0xA27, offset: 0x96F92, size: 0x8, addend: 0x0, symName: '__ZN4core3ptr109drop_in_place$LT$core..result..Result$LT$pyo3..impl_..callback..HashCallbackOutput$C$pyo3..err..PyErr$GT$$GT$17had24963c93b4385eE', symObjAddr: 0x7C8, symBinAddr: 0x1C640, symSize: 0x40 }
  - { offsetInCU: 0xA56, offset: 0x96FC1, size: 0x8, addend: 0x0, symName: '__ZN4core3ptr110drop_in_place$LT$core..result..Result$LT$slick..manifest..ComponentManifest$C$serde_json..error..Error$GT$$GT$17hfcc330701ed03f32E', symObjAddr: 0x808, symBinAddr: 0x1C680, symSize: 0x5C }
  - { offsetInCU: 0xA85, offset: 0x96FF0, size: 0x8, addend: 0x0, symName: '__ZN4core3ptr117drop_in_place$LT$core..result..Result$LT$pyo3..instance..Py$LT$pyo3..types..any..PyAny$GT$$C$pyo3..err..PyErr$GT$$GT$17hc0345cb39aa156ffE', symObjAddr: 0x888, symBinAddr: 0x1C6DC, symSize: 0x50 }
  - { offsetInCU: 0xAB4, offset: 0x9701F, size: 0x8, addend: 0x0, symName: '__ZN4core3ptr120drop_in_place$LT$core..result..Result$LT$alloc..vec..Vec$LT$alloc..string..String$GT$$C$serde_json..error..Error$GT$$GT$17h03ce4d2c3a7f83c5E', symObjAddr: 0x8D8, symBinAddr: 0x1C72C, symSize: 0x5C }
  - { offsetInCU: 0xAE3, offset: 0x9704E, size: 0x8, addend: 0x0, symName: '__ZN4core3ptr124drop_in_place$LT$core..result..Result$LT$$RF$pyo3..instance..Bound$LT$pyo3..types..any..PyAny$GT$$C$pyo3..err..PyErr$GT$$GT$17h7dd9dd5d2931baf8E', symObjAddr: 0x934, symBinAddr: 0x1C788, symSize: 0x40 }
  - { offsetInCU: 0xB12, offset: 0x9707D, size: 0x8, addend: 0x0, symName: '__ZN4core3ptr131drop_in_place$LT$alloc..vec..Vec$LT$u8$GT$..extend_trusted$LT$core..option..IntoIter$LT$u8$GT$$GT$..$u7b$$u7b$closure$u7d$$u7d$$GT$17hbd299de1b8948617E', symObjAddr: 0x974, symBinAddr: 0x1C7C8, symSize: 0x24 }
  - { offsetInCU: 0xB41, offset: 0x970AC, size: 0x8, addend: 0x0, symName: '__ZN4core3ptr134drop_in_place$LT$core..result..Result$LT$$RF$pyo3..instance..Bound$LT$slickit_py..ComponentKind$GT$$C$pyo3..err..DowncastError$GT$$GT$17h16efbcfdf0032cd7E', symObjAddr: 0x998, symBinAddr: 0x1C7EC, symSize: 0x48 }
  - { offsetInCU: 0xB70, offset: 0x970DB, size: 0x8, addend: 0x0, symName: '__ZN4core3ptr178drop_in_place$LT$$LT$T$u20$as$u20$alloc..slice..$LT$impl$u20$$u5b$T$u5d$$GT$..to_vec_in..ConvertVec$GT$..to_vec..DropGuard$LT$alloc..string..String$C$alloc..alloc..Global$GT$$GT$17he7fd7c7a7543fcb4E', symObjAddr: 0x9E0, symBinAddr: 0x1C834, symSize: 0x24 }
  - { offsetInCU: 0xB9F, offset: 0x9710A, size: 0x8, addend: 0x0, symName: '__ZN4core3ptr227drop_in_place$LT$core..iter..traits..iterator..Iterator..for_each..call$LT$u8$C$alloc..vec..Vec$LT$u8$GT$..extend_trusted$LT$core..option..IntoIter$LT$u8$GT$$GT$..$u7b$$u7b$closure$u7d$$u7d$$GT$..$u7b$$u7b$closure$u7d$$u7d$$GT$17h35e1f80922574456E', symObjAddr: 0xA04, symBinAddr: 0x1C858, symSize: 0x24 }
  - { offsetInCU: 0xBCE, offset: 0x97139, size: 0x8, addend: 0x0, symName: '__ZN4core3ptr44drop_in_place$LT$slickit_py..TypedConfig$GT$17h3ad8861fc3b10fa0E', symObjAddr: 0xA28, symBinAddr: 0x1C87C, symSize: 0x60 }
  - { offsetInCU: 0xBFD, offset: 0x97168, size: 0x8, addend: 0x0, symName: '__ZN4core3ptr50drop_in_place$LT$slickit_py..ComponentManifest$GT$17hf7d45ce2118a3027E', symObjAddr: 0xA88, symBinAddr: 0x1C8DC, symSize: 0xC0 }
  - { offsetInCU: 0xC2C, offset: 0x97197, size: 0x8, addend: 0x0, symName: '__ZN4core3ptr52drop_in_place$LT$$u5b$alloc..string..String$u5d$$GT$17h5d6acaf3d1b9e10fE', symObjAddr: 0xB48, symBinAddr: 0x1C99C, symSize: 0xC4 }
  - { offsetInCU: 0xC5B, offset: 0x971C6, size: 0x8, addend: 0x0, symName: '__ZN4core3ptr55drop_in_place$LT$slick..manifest..ComponentManifest$GT$17h92f8cac6b09bd169E', symObjAddr: 0xC30, symBinAddr: 0x1CA60, symSize: 0xC0 }
  - { offsetInCU: 0xC8A, offset: 0x971F5, size: 0x8, addend: 0x0, symName: '__ZN4core3ptr65drop_in_place$LT$alloc..vec..Vec$LT$alloc..string..String$GT$$GT$17h02f3eb47bbc72649E', symObjAddr: 0xD14, symBinAddr: 0x1CB20, symSize: 0x5C }
  - { offsetInCU: 0xCB9, offset: 0x97224, size: 0x8, addend: 0x0, symName: '__ZN4core3ptr69drop_in_place$LT$alloc..borrow..Cow$LT$core..ffi..c_str..CStr$GT$$GT$17h5c6c34040d173effE', symObjAddr: 0xDCC, symBinAddr: 0x1CB7C, symSize: 0x40 }
  - { offsetInCU: 0xCE8, offset: 0x97253, size: 0x8, addend: 0x0, symName: '__ZN4core3ptr70drop_in_place$LT$pyo3..instance..Py$LT$slickit_py..TypedConfig$GT$$GT$17hc461baf96e7b1d03E', symObjAddr: 0xE0C, symBinAddr: 0x1CBBC, symSize: 0x2C }
  - { offsetInCU: 0xD17, offset: 0x97282, size: 0x8, addend: 0x0, symName: '__ZN4core3ptr71drop_in_place$LT$pyo3..pycell..PyRef$LT$slickit_py..TypedConfig$GT$$GT$17hc0d1a4de2bf2729fE', symObjAddr: 0xE38, symBinAddr: 0x1CBE8, symSize: 0x5C }
  - { offsetInCU: 0xD46, offset: 0x972B1, size: 0x8, addend: 0x0, symName: '__ZN4core3ptr72drop_in_place$LT$alloc..raw_vec..RawVec$LT$alloc..string..String$GT$$GT$17h43e76faccfcf26efE', symObjAddr: 0xE94, symBinAddr: 0x1CC44, symSize: 0x24 }
  - { offsetInCU: 0xD75, offset: 0x972E0, size: 0x8, addend: 0x0, symName: '__ZN4core3ptr72drop_in_place$LT$pyo3..instance..Py$LT$slickit_py..ComponentKind$GT$$GT$17h293eb85d5e2cecf9E', symObjAddr: 0xEDC, symBinAddr: 0x1CC68, symSize: 0x2C }
  - { offsetInCU: 0xDA4, offset: 0x9730F, size: 0x8, addend: 0x0, symName: '__ZN4core3ptr73drop_in_place$LT$core..result..Result$LT$usize$C$pyo3..err..PyErr$GT$$GT$17h4d5ff3bb5244f21dE', symObjAddr: 0xF08, symBinAddr: 0x1CC94, symSize: 0x40 }
  - { offsetInCU: 0xDD3, offset: 0x9733E, size: 0x8, addend: 0x0, symName: '__ZN4core3ptr73drop_in_place$LT$pyo3..instance..Bound$LT$slickit_py..TypedConfig$GT$$GT$17h515e4cbaad15ddd4E', symObjAddr: 0xF48, symBinAddr: 0x1CCD4, symSize: 0x24 }
  - { offsetInCU: 0xE02, offset: 0x9736D, size: 0x8, addend: 0x0, symName: '__ZN4core3ptr73drop_in_place$LT$pyo3..pycell..PyRef$LT$slickit_py..ComponentKind$GT$$GT$17h3cc5c8082bb7ba3bE', symObjAddr: 0xF6C, symBinAddr: 0x1CCF8, symSize: 0x5C }
  - { offsetInCU: 0xE31, offset: 0x9739C, size: 0x8, addend: 0x0, symName: '__ZN4core3ptr74drop_in_place$LT$core..cell..UnsafeCell$LT$slickit_py..TypedConfig$GT$$GT$17h79ff601e7bd07a38E', symObjAddr: 0xFC8, symBinAddr: 0x1CD54, symSize: 0x24 }
  - { offsetInCU: 0xE60, offset: 0x973CB, size: 0x8, addend: 0x0, symName: '__ZN4core3ptr75drop_in_place$LT$pyo3..instance..Bound$LT$slickit_py..ComponentKind$GT$$GT$17hf5dcd1f568917057E', symObjAddr: 0xFEC, symBinAddr: 0x1CD78, symSize: 0x24 }
  - { offsetInCU: 0xE8F, offset: 0x973FA, size: 0x8, addend: 0x0, symName: '__ZN4core3ptr76drop_in_place$LT$pyo3..instance..Py$LT$slickit_py..ComponentManifest$GT$$GT$17h714695690c562990E', symObjAddr: 0x1010, symBinAddr: 0x1CD9C, symSize: 0x2C }
  - { offsetInCU: 0xEBE, offset: 0x97429, size: 0x8, addend: 0x0, symName: '__ZN4core3ptr77drop_in_place$LT$pyo3..pycell..PyRef$LT$slickit_py..ComponentManifest$GT$$GT$17hdd1430de944df909E', symObjAddr: 0x103C, symBinAddr: 0x1CDC8, symSize: 0x5C }
  - { offsetInCU: 0xEED, offset: 0x97458, size: 0x8, addend: 0x0, symName: '__ZN4core3ptr79drop_in_place$LT$pyo3..instance..Bound$LT$slickit_py..ComponentManifest$GT$$GT$17h853667e070013534E', symObjAddr: 0x1098, symBinAddr: 0x1CE24, symSize: 0x24 }
  - { offsetInCU: 0xF1C, offset: 0x97487, size: 0x8, addend: 0x0, symName: '__ZN4core3ptr80drop_in_place$LT$core..cell..UnsafeCell$LT$slickit_py..ComponentManifest$GT$$GT$17h2bfe9a06f1145adaE', symObjAddr: 0x10BC, symBinAddr: 0x1CE48, symSize: 0x24 }
  - { offsetInCU: 0xF4B, offset: 0x974B6, size: 0x8, addend: 0x0, symName: '__ZN4core3ptr89drop_in_place$LT$core..result..Result$LT$alloc..string..String$C$pyo3..err..PyErr$GT$$GT$17hbbd0342778e10a46E', symObjAddr: 0x1170, symBinAddr: 0x1CE6C, symSize: 0x50 }
  - { offsetInCU: 0xF7A, offset: 0x974E5, size: 0x8, addend: 0x0, symName: '__ZN4core3ptr90drop_in_place$LT$pyo3..pyclass_init..PyClassInitializer$LT$slickit_py..TypedConfig$GT$$GT$17h1905c08c77ca9253E', symObjAddr: 0x11C0, symBinAddr: 0x1CEBC, symSize: 0x24 }
  - { offsetInCU: 0xFA9, offset: 0x97514, size: 0x8, addend: 0x0, symName: '__ZN4core3ptr91drop_in_place$LT$core..result..Result$LT$slickit_py..TypedConfig$C$pyo3..err..PyErr$GT$$GT$17he6d66a132b646479E', symObjAddr: 0x11E4, symBinAddr: 0x1CEE0, symSize: 0x50 }
  - { offsetInCU: 0xFD8, offset: 0x97543, size: 0x8, addend: 0x0, symName: '__ZN4core3ptr92drop_in_place$LT$core..result..Result$LT$pyo3..pyclass..CompareOp$C$pyo3..err..PyErr$GT$$GT$17h48d45357a5620f36E', symObjAddr: 0x1234, symBinAddr: 0x1CF30, symSize: 0x40 }
  - { offsetInCU: 0x1007, offset: 0x97572, size: 0x8, addend: 0x0, symName: '__ZN4core3ptr92drop_in_place$LT$pyo3..pyclass_init..PyClassInitializer$LT$slickit_py..ComponentKind$GT$$GT$17h57082873e9f7b0abE', symObjAddr: 0x1274, symBinAddr: 0x1CF70, symSize: 0x24 }
  - { offsetInCU: 0x1036, offset: 0x975A1, size: 0x8, addend: 0x0, symName: '__ZN4core3ptr93drop_in_place$LT$core..option..Option$LT$alloc..vec..Vec$LT$alloc..string..String$GT$$GT$$GT$17he955b2b9275f9073E', symObjAddr: 0x1298, symBinAddr: 0x1CF94, symSize: 0x48 }
  - { offsetInCU: 0x1065, offset: 0x975D0, size: 0x8, addend: 0x0, symName: '__ZN4core3ptr94drop_in_place$LT$pyo3..pyclass_init..PyClassInitializerImpl$LT$slickit_py..TypedConfig$GT$$GT$17h518eaf466ba7d745E', symObjAddr: 0x12E0, symBinAddr: 0x1CFDC, symSize: 0x58 }
  - { offsetInCU: 0x1094, offset: 0x975FF, size: 0x8, addend: 0x0, symName: '__ZN4core3ptr96drop_in_place$LT$pyo3..pyclass_init..PyClassInitializer$LT$slickit_py..ComponentManifest$GT$$GT$17h4fae5549abe5c2e0E', symObjAddr: 0x135C, symBinAddr: 0x1D034, symSize: 0x24 }
  - { offsetInCU: 0x10C3, offset: 0x9762E, size: 0x8, addend: 0x0, symName: '__ZN4core3ptr96drop_in_place$LT$pyo3..pyclass_init..PyClassInitializerImpl$LT$slickit_py..ComponentKind$GT$$GT$17h64f4186730b21c02E', symObjAddr: 0x1380, symBinAddr: 0x1D058, symSize: 0x40 }
  - { offsetInCU: 0x10F2, offset: 0x9765D, size: 0x8, addend: 0x0, symName: '__ZN4core3ptr97drop_in_place$LT$core..option..Option$LT$alloc..borrow..Cow$LT$core..ffi..c_str..CStr$GT$$GT$$GT$17hea8d0e14ec43586cE', symObjAddr: 0x13C0, symBinAddr: 0x1D098, symSize: 0x44 }
  - { offsetInCU: 0x1121, offset: 0x9768C, size: 0x8, addend: 0x0, symName: '__ZN4core3ptr97drop_in_place$LT$core..result..Result$LT$$RF$slickit_py..ComponentKind$C$pyo3..err..PyErr$GT$$GT$17hfdc27db6178d8603E', symObjAddr: 0x1404, symBinAddr: 0x1D0DC, symSize: 0x40 }
  - { offsetInCU: 0x1150, offset: 0x976BB, size: 0x8, addend: 0x0, symName: '__ZN4core3ptr97drop_in_place$LT$core..result..Result$LT$slickit_py..ComponentManifest$C$pyo3..err..PyErr$GT$$GT$17h3e6ee2db00c0b235E', symObjAddr: 0x1444, symBinAddr: 0x1D11C, symSize: 0x5C }
  - { offsetInCU: 0x117F, offset: 0x976EA, size: 0x8, addend: 0x0, symName: '__ZN4core3ptr98drop_in_place$LT$core..option..Option$LT$core..option..Option$LT$alloc..string..String$GT$$GT$$GT$17habf93c7dc7122cefE', symObjAddr: 0x14A0, symBinAddr: 0x1D178, symSize: 0x48 }
  - { offsetInCU: 0x11AE, offset: 0x97719, size: 0x8, addend: 0x0, symName: '__ZN4core3ptr99drop_in_place$LT$core..option..Option$LT$pyo3..pycell..PyRef$LT$slickit_py..TypedConfig$GT$$GT$$GT$17hadffb7b19e01f067E', symObjAddr: 0x14E8, symBinAddr: 0x1D1C0, symSize: 0x44 }
  - { offsetInCU: 0x136D, offset: 0x978D8, size: 0x8, addend: 0x0, symName: '__ZN4core3ops8function6FnOnce40call_once$u7b$$u7b$vtable.shim$u7d$$u7d$17hdf4319509de4dba4E', symObjAddr: 0x20, symBinAddr: 0x1BFAC, symSize: 0x30 }
  - { offsetInCU: 0x13AD, offset: 0x97918, size: 0x8, addend: 0x0, symName: __ZN4core3ops8function6FnOnce9call_once17h009dd7030e2f7978E, symObjAddr: 0x50, symBinAddr: 0x1BFDC, symSize: 0x3C }
  - { offsetInCU: 0x13F1, offset: 0x9795C, size: 0x8, addend: 0x0, symName: __ZN4core3ops8function6FnOnce9call_once17h0a7140ef59edc90eE, symObjAddr: 0x8C, symBinAddr: 0x1C018, symSize: 0x24 }
  - { offsetInCU: 0x1435, offset: 0x979A0, size: 0x8, addend: 0x0, symName: __ZN4core3ops8function6FnOnce9call_once17h0ba11c8373bf08f0E, symObjAddr: 0xB0, symBinAddr: 0x1C03C, symSize: 0x3C }
  - { offsetInCU: 0x1479, offset: 0x979E4, size: 0x8, addend: 0x0, symName: __ZN4core3ops8function6FnOnce9call_once17h0e6a675e821e9240E, symObjAddr: 0xEC, symBinAddr: 0x1C078, symSize: 0x34 }
  - { offsetInCU: 0x14BD, offset: 0x97A28, size: 0x8, addend: 0x0, symName: __ZN4core3ops8function6FnOnce9call_once17h296f6e5671e513c0E, symObjAddr: 0x120, symBinAddr: 0x1C0AC, symSize: 0x24 }
  - { offsetInCU: 0x1501, offset: 0x97A6C, size: 0x8, addend: 0x0, symName: __ZN4core3ops8function6FnOnce9call_once17h32a6d6fdc677376bE, symObjAddr: 0x144, symBinAddr: 0x1C0D0, symSize: 0x24 }
  - { offsetInCU: 0x1545, offset: 0x97AB0, size: 0x8, addend: 0x0, symName: __ZN4core3ops8function6FnOnce9call_once17h35930410c0ac1846E, symObjAddr: 0x168, symBinAddr: 0x1C0F4, symSize: 0x24 }
  - { offsetInCU: 0x1589, offset: 0x97AF4, size: 0x8, addend: 0x0, symName: __ZN4core3ops8function6FnOnce9call_once17h37d5d6f472ddaab4E, symObjAddr: 0x18C, symBinAddr: 0x1C118, symSize: 0x24 }
  - { offsetInCU: 0x15CD, offset: 0x97B38, size: 0x8, addend: 0x0, symName: __ZN4core3ops8function6FnOnce9call_once17h3f7f401517a549deE, symObjAddr: 0x1B0, symBinAddr: 0x1C13C, symSize: 0x24 }
  - { offsetInCU: 0x1611, offset: 0x97B7C, size: 0x8, addend: 0x0, symName: __ZN4core3ops8function6FnOnce9call_once17h3fe9915ab31927c7E, symObjAddr: 0x1D4, symBinAddr: 0x1C160, symSize: 0x3C }
  - { offsetInCU: 0x1655, offset: 0x97BC0, size: 0x8, addend: 0x0, symName: __ZN4core3ops8function6FnOnce9call_once17h4c3f187dedef4acdE, symObjAddr: 0x210, symBinAddr: 0x1C19C, symSize: 0x3C }
  - { offsetInCU: 0x1699, offset: 0x97C04, size: 0x8, addend: 0x0, symName: __ZN4core3ops8function6FnOnce9call_once17h4c827c14f862b4acE, symObjAddr: 0x24C, symBinAddr: 0x1C1D8, symSize: 0x3C }
  - { offsetInCU: 0x16DD, offset: 0x97C48, size: 0x8, addend: 0x0, symName: __ZN4core3ops8function6FnOnce9call_once17h5b9c6458348c2e0cE, symObjAddr: 0x288, symBinAddr: 0x1C214, symSize: 0x4C }
  - { offsetInCU: 0x171D, offset: 0x97C88, size: 0x8, addend: 0x0, symName: __ZN4core3ops8function6FnOnce9call_once17h656dbbbf66ac86d7E, symObjAddr: 0x2D4, symBinAddr: 0x1C260, symSize: 0x24 }
  - { offsetInCU: 0x1761, offset: 0x97CCC, size: 0x8, addend: 0x0, symName: __ZN4core3ops8function6FnOnce9call_once17h6869687a07d484dfE, symObjAddr: 0x2F8, symBinAddr: 0x1C284, symSize: 0x3C }
  - { offsetInCU: 0x17A5, offset: 0x97D10, size: 0x8, addend: 0x0, symName: __ZN4core3ops8function6FnOnce9call_once17h6d9d8188d1970108E, symObjAddr: 0x334, symBinAddr: 0x1C2C0, symSize: 0x24 }
  - { offsetInCU: 0x17E9, offset: 0x97D54, size: 0x8, addend: 0x0, symName: __ZN4core3ops8function6FnOnce9call_once17h86d913c3ab7e30efE, symObjAddr: 0x358, symBinAddr: 0x1C2E4, symSize: 0x24 }
  - { offsetInCU: 0x182D, offset: 0x97D98, size: 0x8, addend: 0x0, symName: __ZN4core3ops8function6FnOnce9call_once17h892ca0f6804fad65E, symObjAddr: 0x37C, symBinAddr: 0x1C308, symSize: 0x24 }
  - { offsetInCU: 0x1871, offset: 0x97DDC, size: 0x8, addend: 0x0, symName: __ZN4core3ops8function6FnOnce9call_once17h9fe639ac90d6e5d0E, symObjAddr: 0x3A0, symBinAddr: 0x1C32C, symSize: 0x3C }
  - { offsetInCU: 0x18B5, offset: 0x97E20, size: 0x8, addend: 0x0, symName: __ZN4core3ops8function6FnOnce9call_once17ha6f68a2453764c8bE, symObjAddr: 0x3DC, symBinAddr: 0x1C368, symSize: 0x34 }
  - { offsetInCU: 0x18F9, offset: 0x97E64, size: 0x8, addend: 0x0, symName: __ZN4core3ops8function6FnOnce9call_once17hb426d5e79afbb60bE, symObjAddr: 0x434, symBinAddr: 0x1C39C, symSize: 0x24 }
  - { offsetInCU: 0x193D, offset: 0x97EA8, size: 0x8, addend: 0x0, symName: __ZN4core3ops8function6FnOnce9call_once17hd52a19008e6ac253E, symObjAddr: 0x458, symBinAddr: 0x1C3C0, symSize: 0x48 }
  - { offsetInCU: 0x1981, offset: 0x97EEC, size: 0x8, addend: 0x0, symName: __ZN4core3ops8function6FnOnce9call_once17hd5d4726961a55c56E, symObjAddr: 0x4A0, symBinAddr: 0x1C408, symSize: 0x24 }
  - { offsetInCU: 0x19C5, offset: 0x97F30, size: 0x8, addend: 0x0, symName: __ZN4core3ops8function6FnOnce9call_once17he21027e942b49966E, symObjAddr: 0x4C4, symBinAddr: 0x1C42C, symSize: 0x3C }
  - { offsetInCU: 0x1A09, offset: 0x97F74, size: 0x8, addend: 0x0, symName: __ZN4core3ops8function6FnOnce9call_once17he8f5d5322b3b5d61E, symObjAddr: 0x500, symBinAddr: 0x1C468, symSize: 0x3C }
  - { offsetInCU: 0x1A4D, offset: 0x97FB8, size: 0x8, addend: 0x0, symName: __ZN4core3ops8function6FnOnce9call_once17hed2cabb3812e2da1E, symObjAddr: 0x53C, symBinAddr: 0x1C4A4, symSize: 0x3C }
  - { offsetInCU: 0x1A91, offset: 0x97FFC, size: 0x8, addend: 0x0, symName: __ZN4core3ops8function6FnOnce9call_once17hf341aebe976b6886E, symObjAddr: 0x578, symBinAddr: 0x1C4E0, symSize: 0x3C }
  - { offsetInCU: 0x385F, offset: 0x99DCA, size: 0x8, addend: 0x0, symName: '__ZN69_$LT$pyo3..instance..Py$LT$T$GT$$u20$as$u20$core..ops..drop..Drop$GT$4drop17h6eb8fc61216ce813E', symObjAddr: 0x152C, symBinAddr: 0x1D204, symSize: 0x28 }
  - { offsetInCU: 0x3892, offset: 0x99DFD, size: 0x8, addend: 0x0, symName: '__ZN69_$LT$pyo3..instance..Py$LT$T$GT$$u20$as$u20$core..ops..drop..Drop$GT$4drop17ha32f83675704e591E', symObjAddr: 0x1554, symBinAddr: 0x1D22C, symSize: 0x28 }
  - { offsetInCU: 0x38C5, offset: 0x99E30, size: 0x8, addend: 0x0, symName: '__ZN69_$LT$pyo3..instance..Py$LT$T$GT$$u20$as$u20$core..ops..drop..Drop$GT$4drop17hc186da5a02a417c9E', symObjAddr: 0x157C, symBinAddr: 0x1D254, symSize: 0x28 }
  - { offsetInCU: 0x38FE, offset: 0x99E69, size: 0x8, addend: 0x0, symName: '__ZN72_$LT$pyo3..instance..Bound$LT$T$GT$$u20$as$u20$core..ops..drop..Drop$GT$4drop17h1c6005e52be4c395E', symObjAddr: 0x1684, symBinAddr: 0x1D338, symSize: 0x1A8 }
  - { offsetInCU: 0x396D, offset: 0x99ED8, size: 0x8, addend: 0x0, symName: '__ZN72_$LT$pyo3..instance..Bound$LT$T$GT$$u20$as$u20$core..ops..drop..Drop$GT$4drop17h30990cabea9d30bcE', symObjAddr: 0x182C, symBinAddr: 0x1D4E0, symSize: 0x1A8 }
  - { offsetInCU: 0x39DC, offset: 0x99F47, size: 0x8, addend: 0x0, symName: '__ZN72_$LT$pyo3..instance..Bound$LT$T$GT$$u20$as$u20$core..ops..drop..Drop$GT$4drop17h346d5f8ed483d5e0E', symObjAddr: 0x19D4, symBinAddr: 0x1D688, symSize: 0x1A8 }
  - { offsetInCU: 0x3D2D, offset: 0x9A298, size: 0x8, addend: 0x0, symName: '__ZN70_$LT$pyo3..pycell..PyRef$LT$T$GT$$u20$as$u20$core..ops..drop..Drop$GT$4drop17haec25ac09dbd8e69E', symObjAddr: 0x1600, symBinAddr: 0x1D2B4, symSize: 0x2C }
  - { offsetInCU: 0x3D60, offset: 0x9A2CB, size: 0x8, addend: 0x0, symName: '__ZN70_$LT$pyo3..pycell..PyRef$LT$T$GT$$u20$as$u20$core..ops..drop..Drop$GT$4drop17hd7d08790567a4fb3E', symObjAddr: 0x162C, symBinAddr: 0x1D2E0, symSize: 0x2C }
  - { offsetInCU: 0x3D93, offset: 0x9A2FE, size: 0x8, addend: 0x0, symName: '__ZN70_$LT$pyo3..pycell..PyRef$LT$T$GT$$u20$as$u20$core..ops..drop..Drop$GT$4drop17hffc9c17f56a34af9E', symObjAddr: 0x1658, symBinAddr: 0x1D30C, symSize: 0x2C }
  - { offsetInCU: 0x45D8, offset: 0x9AB43, size: 0x8, addend: 0x0, symName: '__ZN70_$LT$alloc..vec..Vec$LT$T$C$A$GT$$u20$as$u20$core..ops..drop..Drop$GT$4drop17hfcd21128da447eb1E', symObjAddr: 0x15C8, symBinAddr: 0x1D27C, symSize: 0x38 }
  - { offsetInCU: 0x4872, offset: 0x9ADDD, size: 0x8, addend: 0x0, symName: '__ZN77_$LT$alloc..raw_vec..RawVec$LT$T$C$A$GT$$u20$as$u20$core..ops..drop..Drop$GT$4drop17hc04a9772b4b6c9beE', symObjAddr: 0x1C48, symBinAddr: 0x1D830, symSize: 0x34 }
  - { offsetInCU: 0x48CE, offset: 0x9AE39, size: 0x8, addend: 0x0, symName: '__ZN160_$LT$$LT$T$u20$as$u20$alloc..slice..$LT$impl$u20$$u5b$T$u5d$$GT$..to_vec_in..ConvertVec$GT$..to_vec..DropGuard$LT$T$C$A$GT$$u20$as$u20$core..ops..drop..Drop$GT$4drop17hc89267742015d76fE', symObjAddr: 0x0, symBinAddr: 0x1BF8C, symSize: 0x20 }
  - { offsetInCU: 0x1E, offset: 0x9C03C, size: 0x8, addend: 0x0, symName: __ZN5alloc3fmt6format17hd7071f17797761c1E, symObjAddr: 0x0, symBinAddr: 0x1D864, symSize: 0xD4 }
  - { offsetInCU: 0x5B9, offset: 0x9C5D7, size: 0x8, addend: 0x0, symName: __ZN5alloc3fmt6format17hd7071f17797761c1E, symObjAddr: 0x0, symBinAddr: 0x1D864, symSize: 0xD4 }
  - { offsetInCU: 0x1E, offset: 0x9C730, size: 0x8, addend: 0x0, symName: '__ZN63_$LT$serde_json..ser..State$u20$as$u20$core..cmp..PartialEq$GT$2eq17h25d28739b7620eaaE', symObjAddr: 0x0, symBinAddr: 0x1D938, symSize: 0x34 }
  - { offsetInCU: 0x58, offset: 0x9C76A, size: 0x8, addend: 0x0, symName: '__ZN63_$LT$serde_json..ser..State$u20$as$u20$core..cmp..PartialEq$GT$2eq17h25d28739b7620eaaE', symObjAddr: 0x0, symBinAddr: 0x1D938, symSize: 0x34 }
  - { offsetInCU: 0x1E, offset: 0x9C826, size: 0x8, addend: 0x0, symName: __ZN4core4iter6traits8iterator8Iterator12try_for_each17h48c7317d35f6b332E, symObjAddr: 0x0, symBinAddr: 0x1D96C, symSize: 0x2C }
  - { offsetInCU: 0xF2C, offset: 0x9D734, size: 0x8, addend: 0x0, symName: __ZN4core4iter6traits8iterator8Iterator12try_for_each17h48c7317d35f6b332E, symObjAddr: 0x0, symBinAddr: 0x1D96C, symSize: 0x2C }
  - { offsetInCU: 0xF84, offset: 0x9D78C, size: 0x8, addend: 0x0, symName: __ZN4core4iter6traits8iterator8Iterator3map17hc48a9c64cdcf9a39E, symObjAddr: 0x2C, symBinAddr: 0x1D998, symSize: 0x30 }
  - { offsetInCU: 0xFF1, offset: 0x9D7F9, size: 0x8, addend: 0x0, symName: __ZN4core4iter6traits8iterator8Iterator6copied17h044b5f36c9f5e3f9E, symObjAddr: 0x5C, symBinAddr: 0x1D9C8, symSize: 0x1C }
  - { offsetInCU: 0x1031, offset: 0x9D839, size: 0x8, addend: 0x0, symName: __ZN4core4iter6traits8iterator8Iterator8try_fold17h49ec628f7e8de562E, symObjAddr: 0x78, symBinAddr: 0x1D9E4, symSize: 0x148 }
  - { offsetInCU: 0x10E4, offset: 0x9D8EC, size: 0x8, addend: 0x0, symName: __ZN4core4iter6traits8iterator8Iterator8try_fold17hd313a03b0bfddde8E, symObjAddr: 0x1C0, symBinAddr: 0x1DB2C, symSize: 0x160 }
  - { offsetInCU: 0x1345, offset: 0x9DB4D, size: 0x8, addend: 0x0, symName: '__ZN91_$LT$core..slice..iter..Iter$LT$T$GT$$u20$as$u20$core..iter..traits..iterator..Iterator$GT$4next17h025c9a1475ebe7b9E', symObjAddr: 0x370, symBinAddr: 0x1DCDC, symSize: 0xB0 }
  - { offsetInCU: 0x147F, offset: 0x9DC87, size: 0x8, addend: 0x0, symName: '__ZN91_$LT$core..slice..iter..Iter$LT$T$GT$$u20$as$u20$core..iter..traits..iterator..Iterator$GT$4next17hcfee775c6a9208b7E', symObjAddr: 0x420, symBinAddr: 0x1DD8C, symSize: 0xB0 }
  - { offsetInCU: 0x15B9, offset: 0x9DDC1, size: 0x8, addend: 0x0, symName: '__ZN91_$LT$core..slice..iter..Iter$LT$T$GT$$u20$as$u20$core..iter..traits..iterator..Iterator$GT$8position17h2956d3b6406caa45E', symObjAddr: 0x4D0, symBinAddr: 0x1DE3C, symSize: 0x188 }
  - { offsetInCU: 0x1677, offset: 0x9DE7F, size: 0x8, addend: 0x0, symName: '__ZN91_$LT$core..slice..iter..Iter$LT$T$GT$$u20$as$u20$core..iter..traits..iterator..Iterator$GT$8position17h991b3d904c5c5521E', symObjAddr: 0x658, symBinAddr: 0x1DFC4, symSize: 0x188 }
  - { offsetInCU: 0x1735, offset: 0x9DF3D, size: 0x8, addend: 0x0, symName: '__ZN91_$LT$core..slice..iter..Iter$LT$T$GT$$u20$as$u20$core..iter..traits..iterator..Iterator$GT$9size_hint17hcbe80f17eca791bcE', symObjAddr: 0x7E0, symBinAddr: 0x1E14C, symSize: 0x70 }
  - { offsetInCU: 0x3568, offset: 0x9FD70, size: 0x8, addend: 0x0, symName: '__ZN4core5slice4iter13Iter$LT$T$GT$3new17hecea720d2921db9dE', symObjAddr: 0x320, symBinAddr: 0x1DC8C, symSize: 0x50 }
  - { offsetInCU: 0x1E, offset: 0xA0208, size: 0x8, addend: 0x0, symName: '__ZN4core4hash5impls52_$LT$impl$u20$core..hash..Hash$u20$for$u20$isize$GT$4hash17hf976734eac5e0838E', symObjAddr: 0x0, symBinAddr: 0x1E1BC, symSize: 0x38 }
  - { offsetInCU: 0x3F, offset: 0xA0229, size: 0x8, addend: 0x0, symName: '__ZN4core4hash5impls52_$LT$impl$u20$core..hash..Hash$u20$for$u20$isize$GT$4hash17hf976734eac5e0838E', symObjAddr: 0x0, symBinAddr: 0x1E1BC, symSize: 0x38 }
  - { offsetInCU: 0x1E, offset: 0xA03BD, size: 0x8, addend: 0x0, symName: '__ZN100_$LT$$RF$mut$u20$serde_json..ser..Serializer$LT$W$C$F$GT$$u20$as$u20$serde_core..ser..Serializer$GT$13serialize_map17h3963d0522318bffdE', symObjAddr: 0x0, symBinAddr: 0x1E1F4, symSize: 0x134 }
  - { offsetInCU: 0x58, offset: 0xA03F7, size: 0x8, addend: 0x0, symName: '__ZN100_$LT$$RF$mut$u20$serde_json..ser..Serializer$LT$W$C$F$GT$$u20$as$u20$serde_core..ser..Serializer$GT$13serialize_map17h3963d0522318bffdE', symObjAddr: 0x0, symBinAddr: 0x1E1F4, symSize: 0x134 }
  - { offsetInCU: 0xE3, offset: 0xA0482, size: 0x8, addend: 0x0, symName: '__ZN100_$LT$$RF$mut$u20$serde_json..ser..Serializer$LT$W$C$F$GT$$u20$as$u20$serde_core..ser..Serializer$GT$13serialize_seq17h266a39d19664e3f4E', symObjAddr: 0x134, symBinAddr: 0x1E328, symSize: 0x134 }
  - { offsetInCU: 0x16E, offset: 0xA050D, size: 0x8, addend: 0x0, symName: '__ZN100_$LT$$RF$mut$u20$serde_json..ser..Serializer$LT$W$C$F$GT$$u20$as$u20$serde_core..ser..Serializer$GT$13serialize_str17h0388724f80ec627bE', symObjAddr: 0x268, symBinAddr: 0x1E45C, symSize: 0x48 }
  - { offsetInCU: 0x1BA, offset: 0xA0559, size: 0x8, addend: 0x0, symName: '__ZN100_$LT$$RF$mut$u20$serde_json..ser..Serializer$LT$W$C$F$GT$$u20$as$u20$serde_core..ser..Serializer$GT$14serialize_none17haed0d05d96ac925fE', symObjAddr: 0x2B0, symBinAddr: 0x1E4A4, symSize: 0x24 }
  - { offsetInCU: 0x1FA, offset: 0xA0599, size: 0x8, addend: 0x0, symName: '__ZN100_$LT$$RF$mut$u20$serde_json..ser..Serializer$LT$W$C$F$GT$$u20$as$u20$serde_core..ser..Serializer$GT$14serialize_some17h5beec5d2205028f0E', symObjAddr: 0x2D4, symBinAddr: 0x1E4C8, symSize: 0x38 }
  - { offsetInCU: 0x252, offset: 0xA05F1, size: 0x8, addend: 0x0, symName: '__ZN100_$LT$$RF$mut$u20$serde_json..ser..Serializer$LT$W$C$F$GT$$u20$as$u20$serde_core..ser..Serializer$GT$14serialize_unit17haee8f2e351500e6dE', symObjAddr: 0x30C, symBinAddr: 0x1E500, symSize: 0x30 }
  - { offsetInCU: 0x290, offset: 0xA062F, size: 0x8, addend: 0x0, symName: '__ZN100_$LT$$RF$mut$u20$serde_json..ser..Serializer$LT$W$C$F$GT$$u20$as$u20$serde_core..ser..Serializer$GT$16serialize_struct17ha1a56461090d961aE', symObjAddr: 0x33C, symBinAddr: 0x1E530, symSize: 0x44 }
  - { offsetInCU: 0x2EE, offset: 0xA068D, size: 0x8, addend: 0x0, symName: '__ZN100_$LT$$RF$mut$u20$serde_json..ser..Serializer$LT$W$C$F$GT$$u20$as$u20$serde_core..ser..Serializer$GT$22serialize_unit_variant17h948012dea8f1b557E', symObjAddr: 0x380, symBinAddr: 0x1E574, symSize: 0x4C }
  - { offsetInCU: 0x357, offset: 0xA06F6, size: 0x8, addend: 0x0, symName: __ZN10serde_json3ser13to_vec_pretty17h3c7855931616a52dE, symObjAddr: 0x7A8, symBinAddr: 0x1E99C, symSize: 0xE4 }
  - { offsetInCU: 0x3C2, offset: 0xA0761, size: 0x8, addend: 0x0, symName: __ZN10serde_json3ser16to_string_pretty17h75d26e271c68eb14E, symObjAddr: 0x88C, symBinAddr: 0x1EA80, symSize: 0x108 }
  - { offsetInCU: 0x46B, offset: 0xA080A, size: 0x8, addend: 0x0, symName: __ZN10serde_json3ser16to_writer_pretty17h1d2e57850aafd4abE, symObjAddr: 0x994, symBinAddr: 0x1EB88, symSize: 0x64 }
  - { offsetInCU: 0x4D8, offset: 0xA0877, size: 0x8, addend: 0x0, symName: __ZN10serde_json3ser18format_escaped_str17h81865c0105624b67E, symObjAddr: 0x9F8, symBinAddr: 0x1EBEC, symSize: 0xC8 }
  - { offsetInCU: 0x61C, offset: 0xA09BB, size: 0x8, addend: 0x0, symName: __ZN10serde_json3ser27format_escaped_str_contents17h13fec3c4a6715213E, symObjAddr: 0xAE8, symBinAddr: 0x1ECDC, symSize: 0x390 }
  - { offsetInCU: 0x7C1, offset: 0xA0B60, size: 0x8, addend: 0x0, symName: __ZN10serde_json3ser6indent17h15736dc8f9b6fc8fE, symObjAddr: 0xEF8, symBinAddr: 0x1F0EC, symSize: 0xA0 }
  - { offsetInCU: 0x84F, offset: 0xA0BEE, size: 0x8, addend: 0x0, symName: __ZN10serde_json3ser9Formatter10end_string17h8ef5981a25237007E, symObjAddr: 0xF98, symBinAddr: 0x1F18C, symSize: 0x40 }
  - { offsetInCU: 0x89E, offset: 0xA0C3D, size: 0x8, addend: 0x0, symName: __ZN10serde_json3ser9Formatter10write_null17h6bd4aaeda9c4e484E, symObjAddr: 0xFD8, symBinAddr: 0x1F1CC, symSize: 0x40 }
  - { offsetInCU: 0x8ED, offset: 0xA0C8C, size: 0x8, addend: 0x0, symName: __ZN10serde_json3ser9Formatter12begin_string17h8304438e358002f0E, symObjAddr: 0x1018, symBinAddr: 0x1F20C, symSize: 0x40 }
  - { offsetInCU: 0x93C, offset: 0xA0CDB, size: 0x8, addend: 0x0, symName: __ZN10serde_json3ser9Formatter14end_object_key17hb4a002181a6d95d8E, symObjAddr: 0x1058, symBinAddr: 0x1F24C, symSize: 0x1C }
  - { offsetInCU: 0x98B, offset: 0xA0D2A, size: 0x8, addend: 0x0, symName: __ZN10serde_json3ser9Formatter17write_char_escape17h4d4899c1571592c8E, symObjAddr: 0x1074, symBinAddr: 0x1F268, symSize: 0x254 }
  - { offsetInCU: 0xA3B, offset: 0xA0DDA, size: 0x8, addend: 0x0, symName: __ZN10serde_json3ser9Formatter21write_string_fragment17h27a7350a3774447cE, symObjAddr: 0x12C8, symBinAddr: 0x1F4BC, symSize: 0x50 }
  - { offsetInCU: 0xA9F, offset: 0xA0E3E, size: 0x8, addend: 0x0, symName: '__ZN79_$LT$serde_json..ser..PrettyFormatter$u20$as$u20$serde_json..ser..Formatter$GT$10end_object17hc8e1636ca3e0d8c5E', symObjAddr: 0x1318, symBinAddr: 0x1F50C, symSize: 0x10C }
  - { offsetInCU: 0xB21, offset: 0xA0EC0, size: 0x8, addend: 0x0, symName: '__ZN79_$LT$serde_json..ser..PrettyFormatter$u20$as$u20$serde_json..ser..Formatter$GT$11begin_array17hcc8ce51f89f9f912E', symObjAddr: 0x1424, symBinAddr: 0x1F618, symSize: 0x78 }
  - { offsetInCU: 0xB67, offset: 0xA0F06, size: 0x8, addend: 0x0, symName: '__ZN79_$LT$serde_json..ser..PrettyFormatter$u20$as$u20$serde_json..ser..Formatter$GT$12begin_object17hc1a8c07b020521ffE', symObjAddr: 0x149C, symBinAddr: 0x1F690, symSize: 0x78 }
  - { offsetInCU: 0xBAD, offset: 0xA0F4C, size: 0x8, addend: 0x0, symName: '__ZN79_$LT$serde_json..ser..PrettyFormatter$u20$as$u20$serde_json..ser..Formatter$GT$15end_array_value17hee755aebc546fd6fE', symObjAddr: 0x1514, symBinAddr: 0x1F708, symSize: 0x28 }
  - { offsetInCU: 0xBF3, offset: 0xA0F92, size: 0x8, addend: 0x0, symName: '__ZN79_$LT$serde_json..ser..PrettyFormatter$u20$as$u20$serde_json..ser..Formatter$GT$16begin_object_key17h80a517126d451753E', symObjAddr: 0x153C, symBinAddr: 0x1F730, symSize: 0xC0 }
  - { offsetInCU: 0xC66, offset: 0xA1005, size: 0x8, addend: 0x0, symName: '__ZN79_$LT$serde_json..ser..PrettyFormatter$u20$as$u20$serde_json..ser..Formatter$GT$16end_object_value17hb94c42b98893516aE', symObjAddr: 0x15FC, symBinAddr: 0x1F7F0, symSize: 0x28 }
  - { offsetInCU: 0xCAC, offset: 0xA104B, size: 0x8, addend: 0x0, symName: '__ZN79_$LT$serde_json..ser..PrettyFormatter$u20$as$u20$serde_json..ser..Formatter$GT$17begin_array_value17h75352d380a689a56E', symObjAddr: 0x1624, symBinAddr: 0x1F818, symSize: 0xC0 }
  - { offsetInCU: 0xD1F, offset: 0xA10BE, size: 0x8, addend: 0x0, symName: '__ZN79_$LT$serde_json..ser..PrettyFormatter$u20$as$u20$serde_json..ser..Formatter$GT$18begin_object_value17h29021f41058c05f2E', symObjAddr: 0x16E4, symBinAddr: 0x1F8D8, symSize: 0x40 }
  - { offsetInCU: 0xD65, offset: 0xA1104, size: 0x8, addend: 0x0, symName: '__ZN79_$LT$serde_json..ser..PrettyFormatter$u20$as$u20$serde_json..ser..Formatter$GT$9end_array17ha1ceeba0b244fc85E', symObjAddr: 0x1724, symBinAddr: 0x1F918, symSize: 0x10C }
  - { offsetInCU: 0xDED, offset: 0xA118C, size: 0x8, addend: 0x0, symName: '__ZN88_$LT$serde_json..ser..Compound$LT$W$C$F$GT$$u20$as$u20$serde_core..ser..SerializeMap$GT$13serialize_key17he0c8049713b4b00fE', symObjAddr: 0x1830, symBinAddr: 0x1FA24, symSize: 0x118 }
  - { offsetInCU: 0xEAF, offset: 0xA124E, size: 0x8, addend: 0x0, symName: '__ZN88_$LT$serde_json..ser..Compound$LT$W$C$F$GT$$u20$as$u20$serde_core..ser..SerializeMap$GT$15serialize_value17h032101e952598502E', symObjAddr: 0x1948, symBinAddr: 0x1FB3C, symSize: 0xCC }
  - { offsetInCU: 0xF61, offset: 0xA1300, size: 0x8, addend: 0x0, symName: '__ZN88_$LT$serde_json..ser..Compound$LT$W$C$F$GT$$u20$as$u20$serde_core..ser..SerializeMap$GT$15serialize_value17h0c1b93db518ced5eE', symObjAddr: 0x1A14, symBinAddr: 0x1FC08, symSize: 0xCC }
  - { offsetInCU: 0x1013, offset: 0xA13B2, size: 0x8, addend: 0x0, symName: '__ZN88_$LT$serde_json..ser..Compound$LT$W$C$F$GT$$u20$as$u20$serde_core..ser..SerializeMap$GT$15serialize_value17h152179e503a23795E', symObjAddr: 0x1AE0, symBinAddr: 0x1FCD4, symSize: 0xCC }
  - { offsetInCU: 0x10C5, offset: 0xA1464, size: 0x8, addend: 0x0, symName: '__ZN88_$LT$serde_json..ser..Compound$LT$W$C$F$GT$$u20$as$u20$serde_core..ser..SerializeMap$GT$15serialize_value17ha56087f1bbb028faE', symObjAddr: 0x1BAC, symBinAddr: 0x1FDA0, symSize: 0xCC }
  - { offsetInCU: 0x1177, offset: 0xA1516, size: 0x8, addend: 0x0, symName: '__ZN88_$LT$serde_json..ser..Compound$LT$W$C$F$GT$$u20$as$u20$serde_core..ser..SerializeMap$GT$3end17h91869ca70ccb9154E', symObjAddr: 0x1C78, symBinAddr: 0x1FE6C, symSize: 0x68 }
  - { offsetInCU: 0x11EB, offset: 0xA158A, size: 0x8, addend: 0x0, symName: '__ZN88_$LT$serde_json..ser..Compound$LT$W$C$F$GT$$u20$as$u20$serde_core..ser..SerializeSeq$GT$17serialize_element17h69baee8f406c28bcE', symObjAddr: 0x1CE0, symBinAddr: 0x1FED4, symSize: 0x10C }
  - { offsetInCU: 0x12AD, offset: 0xA164C, size: 0x8, addend: 0x0, symName: '__ZN88_$LT$serde_json..ser..Compound$LT$W$C$F$GT$$u20$as$u20$serde_core..ser..SerializeSeq$GT$3end17hc934b9b208babb75E', symObjAddr: 0x1DEC, symBinAddr: 0x1FFE0, symSize: 0x68 }
  - { offsetInCU: 0x1321, offset: 0xA16C0, size: 0x8, addend: 0x0, symName: '__ZN91_$LT$serde_json..ser..Compound$LT$W$C$F$GT$$u20$as$u20$serde_core..ser..SerializeStruct$GT$15serialize_field17h1cd27372317b2c9dE', symObjAddr: 0x1E54, symBinAddr: 0x20048, symSize: 0x38 }
  - { offsetInCU: 0x1388, offset: 0xA1727, size: 0x8, addend: 0x0, symName: '__ZN91_$LT$serde_json..ser..Compound$LT$W$C$F$GT$$u20$as$u20$serde_core..ser..SerializeStruct$GT$15serialize_field17h3cdccf87c3d849a3E', symObjAddr: 0x1E8C, symBinAddr: 0x20080, symSize: 0x38 }
  - { offsetInCU: 0x13EF, offset: 0xA178E, size: 0x8, addend: 0x0, symName: '__ZN91_$LT$serde_json..ser..Compound$LT$W$C$F$GT$$u20$as$u20$serde_core..ser..SerializeStruct$GT$15serialize_field17h81f74fa8728666c7E', symObjAddr: 0x1EC4, symBinAddr: 0x200B8, symSize: 0x38 }
  - { offsetInCU: 0x1456, offset: 0xA17F5, size: 0x8, addend: 0x0, symName: '__ZN91_$LT$serde_json..ser..Compound$LT$W$C$F$GT$$u20$as$u20$serde_core..ser..SerializeStruct$GT$15serialize_field17he5a0cd5694159138E', symObjAddr: 0x1EFC, symBinAddr: 0x200F0, symSize: 0x38 }
  - { offsetInCU: 0x14BD, offset: 0xA185C, size: 0x8, addend: 0x0, symName: '__ZN91_$LT$serde_json..ser..Compound$LT$W$C$F$GT$$u20$as$u20$serde_core..ser..SerializeStruct$GT$3end17h12a89cc4cd20287fE', symObjAddr: 0x1F34, symBinAddr: 0x20128, symSize: 0x28 }
  - { offsetInCU: 0x1503, offset: 0xA18A2, size: 0x8, addend: 0x0, symName: '__ZN94_$LT$serde_json..ser..MapKeySerializer$LT$W$C$F$GT$$u20$as$u20$serde_core..ser..Serializer$GT$13serialize_str17h18300c418e444de5E', symObjAddr: 0x1F5C, symBinAddr: 0x20150, symSize: 0x30 }
  - { offsetInCU: 0x1C37, offset: 0xA1FD6, size: 0x8, addend: 0x0, symName: __ZN10serde_core3ser10Serializer11collect_seq17h53de73872b6f0203E, symObjAddr: 0x3CC, symBinAddr: 0x1E5C0, symSize: 0x1CC }
  - { offsetInCU: 0x1D12, offset: 0xA20B1, size: 0x8, addend: 0x0, symName: __ZN10serde_core3ser12SerializeMap15serialize_entry17h17fdc53714814da6E, symObjAddr: 0x598, symBinAddr: 0x1E78C, symSize: 0x7C }
  - { offsetInCU: 0x1D96, offset: 0xA2135, size: 0x8, addend: 0x0, symName: __ZN10serde_core3ser12SerializeMap15serialize_entry17h37f684575b581746E, symObjAddr: 0x614, symBinAddr: 0x1E808, symSize: 0x7C }
  - { offsetInCU: 0x1E1A, offset: 0xA21B9, size: 0x8, addend: 0x0, symName: __ZN10serde_core3ser12SerializeMap15serialize_entry17h41d1f3c6729761d4E, symObjAddr: 0x690, symBinAddr: 0x1E884, symSize: 0x7C }
  - { offsetInCU: 0x1E9E, offset: 0xA223D, size: 0x8, addend: 0x0, symName: __ZN10serde_core3ser12SerializeMap15serialize_entry17h4a5fa25193b4c11bE, symObjAddr: 0x70C, symBinAddr: 0x1E900, symSize: 0x7C }
  - { offsetInCU: 0x1F28, offset: 0xA22C7, size: 0x8, addend: 0x0, symName: __ZN10serde_core3ser15SerializeStruct10skip_field17h7ded5ffbd1ae9325E, symObjAddr: 0x788, symBinAddr: 0x1E97C, symSize: 0x20 }
  - { offsetInCU: 0x269D, offset: 0xA2A3C, size: 0x8, addend: 0x0, symName: '__ZN10serde_json3ser23Serializer$LT$W$C$F$GT$14with_formatter17h4f8a557f5b795c77E', symObjAddr: 0xAC0, symBinAddr: 0x1ECB4, symSize: 0x28 }
  - { offsetInCU: 0x2750, offset: 0xA2AEF, size: 0x8, addend: 0x0, symName: '__ZN10serde_json3ser54Serializer$LT$W$C$serde_json..ser..PrettyFormatter$GT$6pretty17he8f252309ecd4f8fE', symObjAddr: 0xE78, symBinAddr: 0x1F06C, symSize: 0x80 }
  - { offsetInCU: 0x1E, offset: 0xA2CC8, size: 0x8, addend: 0x0, symName: '__ZN106_$LT$pyo3..impl_..extract_argument..NoVarargs$u20$as$u20$pyo3..impl_..extract_argument..VarargsHandler$GT$20handle_varargs_tuple17h5bb96ce75de3234fE', symObjAddr: 0x0, symBinAddr: 0x20180, symSize: 0xA0 }
  - { offsetInCU: 0x18D9, offset: 0xA4583, size: 0x8, addend: 0x0, symName: '__ZN106_$LT$pyo3..impl_..extract_argument..NoVarargs$u20$as$u20$pyo3..impl_..extract_argument..VarargsHandler$GT$20handle_varargs_tuple17h5bb96ce75de3234fE', symObjAddr: 0x0, symBinAddr: 0x20180, symSize: 0xA0 }
  - { offsetInCU: 0x1952, offset: 0xA45FC, size: 0x8, addend: 0x0, symName: '__ZN106_$LT$pyo3..impl_..extract_argument..NoVarargs$u20$as$u20$pyo3..impl_..extract_argument..VarargsHandler$GT$23handle_varargs_fastcall17hf6d863a4ffb21c28E', symObjAddr: 0xA0, symBinAddr: 0x20220, symSize: 0xB4 }
  - { offsetInCU: 0x19C6, offset: 0xA4670, size: 0x8, addend: 0x0, symName: '__ZN114_$LT$pyo3..impl_..extract_argument..NoVarkeywords$u20$as$u20$pyo3..impl_..extract_argument..VarkeywordsHandler$GT$17handle_varkeyword17h46a52e5b24235cefE', symObjAddr: 0x154, symBinAddr: 0x202D4, symSize: 0x6C }
  - { offsetInCU: 0x1B05, offset: 0xA47AF, size: 0x8, addend: 0x0, symName: __ZN4pyo35impl_16extract_argument24unwrap_required_argument17hcd09be21a52a4b50E, symObjAddr: 0x57C, symBinAddr: 0x206FC, symSize: 0x64 }
  - { offsetInCU: 0x1E78, offset: 0xA4B22, size: 0x8, addend: 0x0, symName: __ZN4pyo35impl_16extract_argument19FunctionDescription36find_keyword_parameter_in_positional17h47641417cac6053cE, symObjAddr: 0x1C0, symBinAddr: 0x20340, symSize: 0x5C }
  - { offsetInCU: 0x1EAA, offset: 0xA4B54, size: 0x8, addend: 0x0, symName: __ZN4pyo35impl_16extract_argument19FunctionDescription38find_keyword_parameter_in_keyword_only17hbc48361b671a552aE, symObjAddr: 0x21C, symBinAddr: 0x2039C, symSize: 0x5C }
  - { offsetInCU: 0x2586, offset: 0xA5230, size: 0x8, addend: 0x0, symName: __ZN4pyo35impl_16extract_argument19FunctionDescription44ensure_no_missing_required_keyword_arguments17h07e1a3fc8a083e79E, symObjAddr: 0x278, symBinAddr: 0x203F8, symSize: 0x160 }
  - { offsetInCU: 0x2652, offset: 0xA52FC, size: 0x8, addend: 0x0, symName: __ZN4pyo35impl_16extract_argument19FunctionDescription47ensure_no_missing_required_positional_arguments17h07549f7ec6773e65E, symObjAddr: 0x3D8, symBinAddr: 0x20558, symSize: 0x1A4 }
  - { offsetInCU: 0x1E, offset: 0xA5497, size: 0x8, addend: 0x0, symName: '__ZN109_$LT$pyo3..types..dict..borrowed_iter..BorrowedDictIter$u20$as$u20$core..iter..traits..iterator..Iterator$GT$4next17h9ea086842ad82787E', symObjAddr: 0x0, symBinAddr: 0x20760, symSize: 0xE4 }
  - { offsetInCU: 0x120D, offset: 0xA6686, size: 0x8, addend: 0x0, symName: '__ZN109_$LT$pyo3..types..dict..borrowed_iter..BorrowedDictIter$u20$as$u20$core..iter..traits..iterator..Iterator$GT$4next17h9ea086842ad82787E', symObjAddr: 0x0, symBinAddr: 0x20760, symSize: 0xE4 }
  - { offsetInCU: 0x1E, offset: 0xA6DA7, size: 0x8, addend: 0x0, symName: __ZN4core5slice3raw14from_raw_parts17h6123cf6cfface58eE, symObjAddr: 0x0, symBinAddr: 0x20844, symSize: 0x58 }
  - { offsetInCU: 0x811, offset: 0xA759A, size: 0x8, addend: 0x0, symName: __ZN4core5slice3raw14from_raw_parts17h6123cf6cfface58eE, symObjAddr: 0x0, symBinAddr: 0x20844, symSize: 0x58 }
  - { offsetInCU: 0x854, offset: 0xA75DD, size: 0x8, addend: 0x0, symName: __ZN4core5slice3raw14from_raw_parts17h740d3c1cbd293f7dE, symObjAddr: 0x58, symBinAddr: 0x2089C, symSize: 0x58 }
  - { offsetInCU: 0x1E, offset: 0xA8631, size: 0x8, addend: 0x0, symName: '__ZN100_$LT$core..iter..adapters..take..Take$LT$I$GT$$u20$as$u20$core..iter..traits..iterator..Iterator$GT$4next17ha28e78b335a288e4E', symObjAddr: 0x0, symBinAddr: 0x208F4, symSize: 0x58 }
  - { offsetInCU: 0x81B, offset: 0xA8E2E, size: 0x8, addend: 0x0, symName: '__ZN100_$LT$core..iter..adapters..take..Take$LT$I$GT$$u20$as$u20$core..iter..traits..iterator..Iterator$GT$4next17ha28e78b335a288e4E', symObjAddr: 0x0, symBinAddr: 0x208F4, symSize: 0x58 }
  - { offsetInCU: 0x850, offset: 0xA8E63, size: 0x8, addend: 0x0, symName: '__ZN100_$LT$core..iter..adapters..take..Take$LT$I$GT$$u20$as$u20$core..iter..traits..iterator..Iterator$GT$8try_fold17hf499c194d9324638E', symObjAddr: 0x58, symBinAddr: 0x2094C, symSize: 0x11C }
  - { offsetInCU: 0x91F, offset: 0xA8F32, size: 0x8, addend: 0x0, symName: '__ZN100_$LT$core..iter..adapters..take..Take$LT$I$GT$$u20$as$u20$core..iter..traits..iterator..Iterator$GT$8try_fold5check28_$u7b$$u7b$closure$u7d$$u7d$17hfd28dbe22187b5b2E', symObjAddr: 0x174, symBinAddr: 0x20A68, symSize: 0x138 }
  - { offsetInCU: 0xAE6, offset: 0xA90F9, size: 0x8, addend: 0x0, symName: __ZN4core4iter6traits8iterator8Iterator9enumerate17hbe71ed8b42800425E, symObjAddr: 0x2AC, symBinAddr: 0x20BA0, symSize: 0x18 }
  - { offsetInCU: 0xB17, offset: 0xA912A, size: 0x8, addend: 0x0, symName: __ZN4core4iter6traits8iterator8Iterator9enumerate17hbe71ed8b42800425E, symObjAddr: 0x2AC, symBinAddr: 0x20BA0, symSize: 0x18 }
  - { offsetInCU: 0x1E, offset: 0xAAC93, size: 0x8, addend: 0x0, symName: '__ZN4core3ptr9const_ptr33_$LT$impl$u20$$BP$const$u20$T$GT$20offset_from_unsigned18precondition_check17he7635211086df2ddE', symObjAddr: 0x0, symBinAddr: 0x20BB8, symSize: 0xAC }
  - { offsetInCU: 0x308, offset: 0xAAF7D, size: 0x8, addend: 0x0, symName: '__ZN4core3ptr9const_ptr33_$LT$impl$u20$$BP$const$u20$T$GT$20offset_from_unsigned18precondition_check17he7635211086df2ddE', symObjAddr: 0x0, symBinAddr: 0x20BB8, symSize: 0xAC }
  - { offsetInCU: 0x406, offset: 0xAB07B, size: 0x8, addend: 0x0, symName: '__ZN4core3ptr9const_ptr33_$LT$impl$u20$$BP$const$u20$T$GT$6offset18precondition_check17h6d637cf0c7ee456aE', symObjAddr: 0xAC, symBinAddr: 0x20C64, symSize: 0x10C }
  - { offsetInCU: 0x1E, offset: 0xAB5F8, size: 0x8, addend: 0x0, symName: '__ZN10serde_core3ser10Serializer11collect_seq28_$u7b$$u7b$closure$u7d$$u7d$17h15f9c6758c35596bE', symObjAddr: 0x0, symBinAddr: 0x20D70, symSize: 0x58 }
  - { offsetInCU: 0x617, offset: 0xABBF1, size: 0x8, addend: 0x0, symName: '__ZN10serde_core3ser10Serializer11collect_seq28_$u7b$$u7b$closure$u7d$$u7d$17h15f9c6758c35596bE', symObjAddr: 0x0, symBinAddr: 0x20D70, symSize: 0x58 }
  - { offsetInCU: 0x66B, offset: 0xABC45, size: 0x8, addend: 0x0, symName: __ZN10serde_core3ser17iterator_len_hint17hb1ae9d70291364c2E, symObjAddr: 0x58, symBinAddr: 0x20DC8, symSize: 0x8C }
  - { offsetInCU: 0x1E, offset: 0xAC1D2, size: 0x8, addend: 0x0, symName: '__ZN4pyo34sync20GILOnceCell$LT$T$GT$15get_or_try_init17h5fa48399658a5225E', symObjAddr: 0x0, symBinAddr: 0x20E54, symSize: 0xB4 }
  - { offsetInCU: 0x1953, offset: 0xADB07, size: 0x8, addend: 0x0, symName: '__ZN4pyo34sync20GILOnceCell$LT$T$GT$3set28_$u7b$$u7b$closure$u7d$$u7d$17h922bcbf1f8b69584E', symObjAddr: 0x388, symBinAddr: 0x211DC, symSize: 0xFC }
  - { offsetInCU: 0x23D5, offset: 0xAE589, size: 0x8, addend: 0x0, symName: '__ZN4pyo34sync20GILOnceCell$LT$T$GT$15get_or_try_init17h5fa48399658a5225E', symObjAddr: 0x0, symBinAddr: 0x20E54, symSize: 0xB4 }
  - { offsetInCU: 0x244E, offset: 0xAE602, size: 0x8, addend: 0x0, symName: '__ZN4pyo34sync20GILOnceCell$LT$T$GT$15get_or_try_init17had358942efcce0d3E', symObjAddr: 0xB4, symBinAddr: 0x20F08, symSize: 0xB4 }
  - { offsetInCU: 0x24C7, offset: 0xAE67B, size: 0x8, addend: 0x0, symName: '__ZN4pyo34sync20GILOnceCell$LT$T$GT$15get_or_try_init17haff438b6ee61cfffE', symObjAddr: 0x168, symBinAddr: 0x20FBC, symSize: 0xB4 }
  - { offsetInCU: 0x2540, offset: 0xAE6F4, size: 0x8, addend: 0x0, symName: '__ZN4pyo34sync20GILOnceCell$LT$T$GT$3get17h8f36ce6c6316be74E', symObjAddr: 0x21C, symBinAddr: 0x21070, symSize: 0xA8 }
  - { offsetInCU: 0x2584, offset: 0xAE738, size: 0x8, addend: 0x0, symName: '__ZN4pyo34sync20GILOnceCell$LT$T$GT$3set17h9a22c9467c50ecf4E', symObjAddr: 0x2C4, symBinAddr: 0x21118, symSize: 0xC4 }
  - { offsetInCU: 0x26F9, offset: 0xAE8AD, size: 0x8, addend: 0x0, symName: '__ZN4pyo34sync20GILOnceCell$LT$T$GT$4init17h055945efce0801edE', symObjAddr: 0x484, symBinAddr: 0xA428C, symSize: 0x188 }
  - { offsetInCU: 0x27CB, offset: 0xAE97F, size: 0x8, addend: 0x0, symName: '__ZN4pyo34sync20GILOnceCell$LT$T$GT$4init17h084dbc047fb33c7dE', symObjAddr: 0x60C, symBinAddr: 0xA4414, symSize: 0x188 }
  - { offsetInCU: 0x289D, offset: 0xAEA51, size: 0x8, addend: 0x0, symName: '__ZN4pyo34sync20GILOnceCell$LT$T$GT$4init17haad919b7088467e4E', symObjAddr: 0x794, symBinAddr: 0xA459C, symSize: 0x188 }
  - { offsetInCU: 0x1E, offset: 0xAEB55, size: 0x8, addend: 0x0, symName: '__ZN10serde_core2de5impls66_$LT$impl$u20$serde_core..de..Deserialize$u20$for$u20$$LP$$RP$$GT$11deserialize17hdd6024122b444d63E', symObjAddr: 0x0, symBinAddr: 0x212D8, symSize: 0x24 }
  - { offsetInCU: 0x2A4, offset: 0xAEDDB, size: 0x8, addend: 0x0, symName: '__ZN10serde_core2de5impls66_$LT$impl$u20$serde_core..de..Deserialize$u20$for$u20$$LP$$RP$$GT$11deserialize17hdd6024122b444d63E', symObjAddr: 0x0, symBinAddr: 0x212D8, symSize: 0x24 }
  - { offsetInCU: 0x2E9, offset: 0xAEE20, size: 0x8, addend: 0x0, symName: '__ZN182_$LT$serde_core..de..impls..$LT$impl$u20$serde_core..de..Deserialize$u20$for$u20$alloc..vec..Vec$LT$T$GT$$GT$..deserialize..VecVisitor$LT$T$GT$$u20$as$u20$serde_core..de..Visitor$GT$9expecting17h850c2bd444601cdcE', symObjAddr: 0x24, symBinAddr: 0x212FC, symSize: 0x40 }
  - { offsetInCU: 0x32F, offset: 0xAEE66, size: 0x8, addend: 0x0, symName: '__ZN182_$LT$serde_core..de..impls..$LT$impl$u20$serde_core..de..Deserialize$u20$for$u20$alloc..vec..Vec$LT$T$GT$$GT$..deserialize..VecVisitor$LT$T$GT$$u20$as$u20$serde_core..de..Visitor$GT$9visit_seq17h6ce2d16efe52dfd3E', symObjAddr: 0x64, symBinAddr: 0x2133C, symSize: 0x1CC }
  - { offsetInCU: 0x437, offset: 0xAEF6E, size: 0x8, addend: 0x0, symName: '__ZN89_$LT$serde_core..de..impls..OptionVisitor$LT$T$GT$$u20$as$u20$serde_core..de..Visitor$GT$10visit_none17h3207c1fc6e7be54eE', symObjAddr: 0x288, symBinAddr: 0x21560, symSize: 0x28 }
  - { offsetInCU: 0x483, offset: 0xAEFBA, size: 0x8, addend: 0x0, symName: '__ZN89_$LT$serde_core..de..impls..OptionVisitor$LT$T$GT$$u20$as$u20$serde_core..de..Visitor$GT$10visit_some17h08e32419b32a3f6bE', symObjAddr: 0x2B0, symBinAddr: 0x21588, symSize: 0x3C }
  - { offsetInCU: 0x50B, offset: 0xAF042, size: 0x8, addend: 0x0, symName: '__ZN46_$LT$T$u20$as$u20$serde_core..de..Expected$GT$3fmt17h5079835e10759b1dE', symObjAddr: 0x230, symBinAddr: 0x21508, symSize: 0x2C }
  - { offsetInCU: 0x551, offset: 0xAF088, size: 0x8, addend: 0x0, symName: '__ZN46_$LT$T$u20$as$u20$serde_core..de..Expected$GT$3fmt17hdc5deaf713d23240E', symObjAddr: 0x25C, symBinAddr: 0x21534, symSize: 0x2C }
  - { offsetInCU: 0x1E, offset: 0xAFAC8, size: 0x8, addend: 0x0, symName: __ZN4pyo33err5PyErr16write_unraisable17haed74cd65fcca76cE, symObjAddr: 0x0, symBinAddr: 0x215C4, symSize: 0x34 }
  - { offsetInCU: 0x1CEB, offset: 0xB1795, size: 0x8, addend: 0x0, symName: __ZN4pyo33err5PyErr16write_unraisable17haed74cd65fcca76cE, symObjAddr: 0x0, symBinAddr: 0x215C4, symSize: 0x34 }
  - { offsetInCU: 0x1D39, offset: 0xB17E3, size: 0x8, addend: 0x0, symName: __ZN4pyo33err5PyErr7restore17hd42cc91769804c0aE, symObjAddr: 0x34, symBinAddr: 0x215F8, symSize: 0x38 }
  - { offsetInCU: 0x1E, offset: 0xB1840, size: 0x8, addend: 0x0, symName: '__ZN4pyo310conversion12IntoPyObject31borrowed_sequence_into_pyobject28_$u7b$$u7b$closure$u7d$$u7d$17h94ec9683c0665a97E', symObjAddr: 0x0, symBinAddr: 0x21630, symSize: 0x30 }
  - { offsetInCU: 0x1565, offset: 0xB2D87, size: 0x8, addend: 0x0, symName: '__ZN4pyo310conversion12IntoPyObject31borrowed_sequence_into_pyobject28_$u7b$$u7b$closure$u7d$$u7d$17h94ec9683c0665a97E', symObjAddr: 0x0, symBinAddr: 0x21630, symSize: 0x30 }
  - { offsetInCU: 0x15D6, offset: 0xB2DF8, size: 0x8, addend: 0x0, symName: __ZN4pyo310conversion15IntoPyObjectExt11into_py_any17ha211985b16f72596E, symObjAddr: 0x30, symBinAddr: 0x21660, symSize: 0x4C }
  - { offsetInCU: 0x1E, offset: 0xB38D7, size: 0x8, addend: 0x0, symName: '__ZN4core5slice29_$LT$impl$u20$$u5b$T$u5d$$GT$18split_at_unchecked18precondition_check17h094db18e03f03962E', symObjAddr: 0x0, symBinAddr: 0x216AC, symSize: 0xAC }
  - { offsetInCU: 0x345, offset: 0xB3BFE, size: 0x8, addend: 0x0, symName: '__ZN4core5slice29_$LT$impl$u20$$u5b$T$u5d$$GT$18split_at_unchecked18precondition_check17h094db18e03f03962E', symObjAddr: 0x0, symBinAddr: 0x216AC, symSize: 0xAC }
  - { offsetInCU: 0x1E, offset: 0xB3E0D, size: 0x8, addend: 0x0, symName: '__ZN4core3cmp5impls69_$LT$impl$u20$core..cmp..PartialEq$LT$$RF$B$GT$$u20$for$u20$$RF$A$GT$2eq17h661e97a32605e125E', symObjAddr: 0x0, symBinAddr: 0x21758, symSize: 0x34 }
  - { offsetInCU: 0x5E, offset: 0xB3E4D, size: 0x8, addend: 0x0, symName: '__ZN79_$LT$slickit_py..ComponentKind$u20$as$u20$pyo3..impl_..pyclass..PyClassImpl$GT$3doc28_$u7b$$u7b$closure$u7d$$u7d$17h5a638fc82abc2015E', symObjAddr: 0x664, symBinAddr: 0x21DBC, symSize: 0x58 }
  - { offsetInCU: 0xB6, offset: 0xB3EA5, size: 0x8, addend: 0x0, symName: '__ZN10slickit_py13ComponentKind24__pymethod___richcmp____28_$u7b$$u7b$closure$u7d$$u7d$17h6a98a43416f825d8E', symObjAddr: 0x6BC, symBinAddr: 0x21E14, symSize: 0x2C }
  - { offsetInCU: 0xEC, offset: 0xB3EDB, size: 0x8, addend: 0x0, symName: '__ZN62_$LT$slickit_py..ComponentKind$u20$as$u20$core..hash..Hash$GT$4hash17h829104fea9c1ceafE', symObjAddr: 0x6E8, symBinAddr: 0x21E40, symSize: 0x38 }
  - { offsetInCU: 0x158, offset: 0xB3F47, size: 0x8, addend: 0x0, symName: '__ZN83_$LT$slickit_py..ComponentManifest$u20$as$u20$pyo3..impl_..pyclass..PyClassImpl$GT$10items_iter15INTRINSIC_ITEMS28_$u7b$$u7b$closure$u7d$$u7d$17h61da210900cd73aaE', symObjAddr: 0x720, symBinAddr: 0x21E78, symSize: 0x44 }
  - { offsetInCU: 0x180, offset: 0xB3F6F, size: 0x8, addend: 0x0, symName: '__ZN83_$LT$slickit_py..ComponentManifest$u20$as$u20$pyo3..impl_..pyclass..PyClassImpl$GT$10items_iter15INTRINSIC_ITEMS28_$u7b$$u7b$closure$u7d$$u7d$17h39ff5d290c8ec733E', symObjAddr: 0x764, symBinAddr: 0x21EBC, symSize: 0x44 }
  - { offsetInCU: 0x1A8, offset: 0xB3F97, size: 0x8, addend: 0x0, symName: '__ZN83_$LT$slickit_py..ComponentManifest$u20$as$u20$pyo3..impl_..pyclass..PyClassImpl$GT$10items_iter15INTRINSIC_ITEMS28_$u7b$$u7b$closure$u7d$$u7d$17hf32ebf93f217db79E', symObjAddr: 0x7A8, symBinAddr: 0x21F00, symSize: 0x44 }
  - { offsetInCU: 0x1D0, offset: 0xB3FBF, size: 0x8, addend: 0x0, symName: '__ZN83_$LT$slickit_py..ComponentManifest$u20$as$u20$pyo3..impl_..pyclass..PyClassImpl$GT$10items_iter15INTRINSIC_ITEMS28_$u7b$$u7b$closure$u7d$$u7d$17hb1a1d463de94776cE', symObjAddr: 0x7EC, symBinAddr: 0x21F44, symSize: 0x44 }
  - { offsetInCU: 0x1F8, offset: 0xB3FE7, size: 0x8, addend: 0x0, symName: '__ZN83_$LT$slickit_py..ComponentManifest$u20$as$u20$pyo3..impl_..pyclass..PyClassImpl$GT$10items_iter15INTRINSIC_ITEMS28_$u7b$$u7b$closure$u7d$$u7d$17h2b0fa3bcf78947f6E', symObjAddr: 0x830, symBinAddr: 0x21F88, symSize: 0x44 }
  - { offsetInCU: 0x24A, offset: 0xB4039, size: 0x8, addend: 0x0, symName: '__ZN83_$LT$slickit_py..ComponentManifest$u20$as$u20$pyo3..impl_..pyclass..PyClassImpl$GT$3doc28_$u7b$$u7b$closure$u7d$$u7d$17h6cb1f0e5bd409046E', symObjAddr: 0x874, symBinAddr: 0x21FCC, symSize: 0x54 }
  - { offsetInCU: 0x2A2, offset: 0xB4091, size: 0x8, addend: 0x0, symName: '__ZN10slickit_py17ComponentManifest7to_json28_$u7b$$u7b$closure$u7d$$u7d$17h4f054bf2acd259a3E', symObjAddr: 0x8C8, symBinAddr: 0x22020, symSize: 0xB8 }
  - { offsetInCU: 0x31F, offset: 0xB410E, size: 0x8, addend: 0x0, symName: '__ZN10slickit_py17ComponentManifest9from_json28_$u7b$$u7b$closure$u7d$$u7d$17h1f623d3803214469E', symObjAddr: 0x980, symBinAddr: 0x220D8, symSize: 0x74 }
  - { offsetInCU: 0x368, offset: 0xB4157, size: 0x8, addend: 0x0, symName: '__ZN10slickit_py17ComponentManifest20__pymethod___new____28_$u7b$$u7b$closure$u7d$$u7d$17h6e3a78a56a67bc90E', symObjAddr: 0x9F4, symBinAddr: 0x2214C, symSize: 0x2C }
  - { offsetInCU: 0x390, offset: 0xB417F, size: 0x8, addend: 0x0, symName: '__ZN10slickit_py17ComponentManifest20__pymethod___new____28_$u7b$$u7b$closure$u7d$$u7d$17h062ee5b1b3a70a58E', symObjAddr: 0xA20, symBinAddr: 0x22178, symSize: 0x2C }
  - { offsetInCU: 0x3D7, offset: 0xB41C6, size: 0x8, addend: 0x0, symName: '__ZN77_$LT$slickit_py..TypedConfig$u20$as$u20$pyo3..impl_..pyclass..PyClassImpl$GT$10items_iter15INTRINSIC_ITEMS28_$u7b$$u7b$closure$u7d$$u7d$17h68d15312f4e190c8E', symObjAddr: 0xA4C, symBinAddr: 0x221A4, symSize: 0x44 }
  - { offsetInCU: 0x3FF, offset: 0xB41EE, size: 0x8, addend: 0x0, symName: '__ZN77_$LT$slickit_py..TypedConfig$u20$as$u20$pyo3..impl_..pyclass..PyClassImpl$GT$10items_iter15INTRINSIC_ITEMS28_$u7b$$u7b$closure$u7d$$u7d$17h673a4dbbd7dcb726E', symObjAddr: 0xA90, symBinAddr: 0x221E8, symSize: 0x44 }
  - { offsetInCU: 0x43C, offset: 0xB422B, size: 0x8, addend: 0x0, symName: '__ZN77_$LT$slickit_py..TypedConfig$u20$as$u20$pyo3..impl_..pyclass..PyClassImpl$GT$3doc28_$u7b$$u7b$closure$u7d$$u7d$17h2e80a6ac36f92abeE', symObjAddr: 0xAD4, symBinAddr: 0x2222C, symSize: 0x54 }
  - { offsetInCU: 0x494, offset: 0xB4283, size: 0x8, addend: 0x0, symName: '__ZN10slickit_py11TypedConfig3new28_$u7b$$u7b$closure$u7d$$u7d$17h68b69247b2341387E', symObjAddr: 0xB28, symBinAddr: 0x22280, symSize: 0xB8 }
  - { offsetInCU: 0xD81, offset: 0xB4B70, size: 0x8, addend: 0x0, symName: '__ZN4core3cmp5impls69_$LT$impl$u20$core..cmp..PartialEq$LT$$RF$B$GT$$u20$for$u20$$RF$A$GT$2eq17h661e97a32605e125E', symObjAddr: 0x0, symBinAddr: 0x21758, symSize: 0x34 }
  - { offsetInCU: 0xDD0, offset: 0xB4BBF, size: 0x8, addend: 0x0, symName: '__ZN4core3cmp5impls69_$LT$impl$u20$core..cmp..PartialEq$LT$$RF$B$GT$$u20$for$u20$$RF$A$GT$2ne17h4cefe76ed2ff8364E', symObjAddr: 0x34, symBinAddr: 0x2178C, symSize: 0x34 }
  - { offsetInCU: 0xE26, offset: 0xB4C15, size: 0x8, addend: 0x0, symName: __ZN4core3cmp9PartialEq2ne17h6e51e09821662863E, symObjAddr: 0x68, symBinAddr: 0x217C0, symSize: 0x30 }
  - { offsetInCU: 0xE81, offset: 0xB4C70, size: 0x8, addend: 0x0, symName: '__ZN50_$LT$T$u20$as$u20$core..convert..Into$LT$U$GT$$GT$4into17h09b211981bffa56aE', symObjAddr: 0x408, symBinAddr: 0x21B60, symSize: 0x14 }
  - { offsetInCU: 0xEC2, offset: 0xB4CB1, size: 0x8, addend: 0x0, symName: '__ZN50_$LT$T$u20$as$u20$core..convert..Into$LT$U$GT$$GT$4into17h6e64c71dc5ba5b52E', symObjAddr: 0x41C, symBinAddr: 0x21B74, symSize: 0x14 }
  - { offsetInCU: 0xF03, offset: 0xB4CF2, size: 0x8, addend: 0x0, symName: '__ZN50_$LT$T$u20$as$u20$core..convert..Into$LT$U$GT$$GT$4into17h7dda58b6ff766cd3E', symObjAddr: 0x430, symBinAddr: 0x21B88, symSize: 0x20 }
  - { offsetInCU: 0xF43, offset: 0xB4D32, size: 0x8, addend: 0x0, symName: '__ZN50_$LT$T$u20$as$u20$core..convert..Into$LT$U$GT$$GT$4into17hcee57eef82e64688E', symObjAddr: 0x450, symBinAddr: 0x21BA8, symSize: 0x20 }
  - { offsetInCU: 0x2905, offset: 0xB66F4, size: 0x8, addend: 0x0, symName: __ZN4pyo310conversion15IntoPyObjectExt11into_py_any17hb449a64c73724a8dE, symObjAddr: 0x98, symBinAddr: 0x217F0, symSize: 0xB0 }
  - { offsetInCU: 0x298E, offset: 0xB677D, size: 0x8, addend: 0x0, symName: __ZN4pyo310conversion15IntoPyObjectExt17into_bound_py_any17h9ccf802dc7b2fd56E, symObjAddr: 0x148, symBinAddr: 0x218A0, symSize: 0xAC }
  - { offsetInCU: 0x2A1E, offset: 0xB680D, size: 0x8, addend: 0x0, symName: '__ZN52_$LT$T$u20$as$u20$pyo3..conversion..FromPyObject$GT$13extract_bound17h33bd5596e4e67370E', symObjAddr: 0x470, symBinAddr: 0x21BC8, symSize: 0x12C }
  - { offsetInCU: 0x2ACC, offset: 0xB68BB, size: 0x8, addend: 0x0, symName: '__ZN57_$LT$T$u20$as$u20$pyo3..conversion..FromPyObjectBound$GT$20from_py_object_bound17h55964ef1d028239bE', symObjAddr: 0x608, symBinAddr: 0x21D60, symSize: 0x34 }
  - { offsetInCU: 0x2B0F, offset: 0xB68FE, size: 0x8, addend: 0x0, symName: __ZN4pyo311type_object10PyTypeInfo10is_type_of17h684eda55657e208bE, symObjAddr: 0x1F4, symBinAddr: 0x2194C, symSize: 0x50 }
  - { offsetInCU: 0x2B44, offset: 0xB6933, size: 0x8, addend: 0x0, symName: __ZN4pyo311type_object10PyTypeInfo10is_type_of17h849adf98e3ecede2E, symObjAddr: 0x244, symBinAddr: 0x2199C, symSize: 0x50 }
  - { offsetInCU: 0x2B79, offset: 0xB6968, size: 0x8, addend: 0x0, symName: __ZN4pyo311type_object10PyTypeInfo10is_type_of17hc4c3512870a3b827E, symObjAddr: 0x294, symBinAddr: 0x219EC, symSize: 0x50 }
  - { offsetInCU: 0x2BB4, offset: 0xB69A3, size: 0x8, addend: 0x0, symName: '__ZN52_$LT$T$u20$as$u20$pyo3..type_object..PyTypeCheck$GT$10type_check17h6bbcf9df781e668aE', symObjAddr: 0x59C, symBinAddr: 0x21CF4, symSize: 0x24 }
  - { offsetInCU: 0x2BE9, offset: 0xB69D8, size: 0x8, addend: 0x0, symName: '__ZN52_$LT$T$u20$as$u20$pyo3..type_object..PyTypeCheck$GT$10type_check17h797f540610e216fcE', symObjAddr: 0x5C0, symBinAddr: 0x21D18, symSize: 0x24 }
  - { offsetInCU: 0x2C1E, offset: 0xB6A0D, size: 0x8, addend: 0x0, symName: '__ZN52_$LT$T$u20$as$u20$pyo3..type_object..PyTypeCheck$GT$10type_check17hb10845237f382542E', symObjAddr: 0x5E4, symBinAddr: 0x21D3C, symSize: 0x24 }
  - { offsetInCU: 0x2C5F, offset: 0xB6A4E, size: 0x8, addend: 0x0, symName: '__ZN4pyo312pyclass_init130_$LT$impl$u20$pyo3..impl_..callback..IntoPyCallbackOutput$LT$pyo3..pyclass_init..PyClassInitializer$LT$T$GT$$GT$$u20$for$u20$U$GT$7convert17h25767bd9287e879bE', symObjAddr: 0x2E4, symBinAddr: 0x21A3C, symSize: 0x44 }
  - { offsetInCU: 0x2CBB, offset: 0xB6AAA, size: 0x8, addend: 0x0, symName: '__ZN4pyo312pyclass_init130_$LT$impl$u20$pyo3..impl_..callback..IntoPyCallbackOutput$LT$pyo3..pyclass_init..PyClassInitializer$LT$T$GT$$GT$$u20$for$u20$U$GT$7convert17heb3ac3b75c723b59E', symObjAddr: 0x328, symBinAddr: 0x21A80, symSize: 0x50 }
  - { offsetInCU: 0x2EFC, offset: 0xB6CEB, size: 0x8, addend: 0x0, symName: __ZN4pyo35impl_7pyclass11PyClassImpl11dict_offset17h427935012034da0bE, symObjAddr: 0x378, symBinAddr: 0x21AD0, symSize: 0x18 }
  - { offsetInCU: 0x2F23, offset: 0xB6D12, size: 0x8, addend: 0x0, symName: __ZN4pyo35impl_7pyclass11PyClassImpl11dict_offset17hdf4600a265b5ef82E, symObjAddr: 0x390, symBinAddr: 0x21AE8, symSize: 0x18 }
  - { offsetInCU: 0x2F4A, offset: 0xB6D39, size: 0x8, addend: 0x0, symName: __ZN4pyo35impl_7pyclass11PyClassImpl11dict_offset17hf6c0c0f6814f3737E, symObjAddr: 0x3A8, symBinAddr: 0x21B00, symSize: 0x18 }
  - { offsetInCU: 0x2F71, offset: 0xB6D60, size: 0x8, addend: 0x0, symName: __ZN4pyo35impl_7pyclass11PyClassImpl15weaklist_offset17h69a49078f629feddE, symObjAddr: 0x3C0, symBinAddr: 0x21B18, symSize: 0x18 }
  - { offsetInCU: 0x2F98, offset: 0xB6D87, size: 0x8, addend: 0x0, symName: __ZN4pyo35impl_7pyclass11PyClassImpl15weaklist_offset17h8fb37c6f68ccf2abE, symObjAddr: 0x3D8, symBinAddr: 0x21B30, symSize: 0x18 }
  - { offsetInCU: 0x2FBF, offset: 0xB6DAE, size: 0x8, addend: 0x0, symName: __ZN4pyo35impl_7pyclass11PyClassImpl15weaklist_offset17hf5489fd9271112aeE, symObjAddr: 0x3F0, symBinAddr: 0x21B48, symSize: 0x18 }
  - { offsetInCU: 0x304C, offset: 0xB6E3B, size: 0x8, addend: 0x0, symName: '__ZN80_$LT$T$u20$as$u20$pyo3..impl_..extract_argument..PyFunctionArgument$LT$_$GT$$GT$7extract17hff4a0ce575376760E', symObjAddr: 0x63C, symBinAddr: 0x21D94, symSize: 0x28 }
  - { offsetInCU: 0x6D, offset: 0xB81C7, size: 0x8, addend: 0x0, symName: '__ZN180_$LT$slick..manifest.._..$LT$impl$u20$serde_core..de..Deserialize$u20$for$u20$slick..manifest..ComponentKind$GT$..deserialize..__FieldVisitor$u20$as$u20$serde_core..de..Visitor$GT$9expecting17h48cf1b3a52c0ea16E', symObjAddr: 0x110, symBinAddr: 0x22350, symSize: 0x40 }
  - { offsetInCU: 0xAD, offset: 0xB8207, size: 0x8, addend: 0x0, symName: '__ZN179_$LT$slick..manifest.._..$LT$impl$u20$serde_core..de..Deserialize$u20$for$u20$slick..manifest..ComponentManifest$GT$..deserialize..__Visitor$u20$as$u20$serde_core..de..Visitor$GT$9expecting17h09e84754f29c673bE', symObjAddr: 0x1D0, symBinAddr: 0x22390, symSize: 0x40 }
  - { offsetInCU: 0x1E, offset: 0xB86E9, size: 0x8, addend: 0x0, symName: '__ZN280_$LT$alloc..collections..btree..node..Handle$LT$alloc..collections..btree..node..NodeRef$LT$alloc..collections..btree..node..marker..Dying$C$K$C$V$C$NodeType$GT$$C$alloc..collections..btree..node..marker..KV$GT$..drop_key_val..Dropper$LT$T$GT$$u20$as$u20$core..ops..drop..Drop$GT$4drop17hb66f5f868846db3eE', symObjAddr: 0x0, symBinAddr: 0x223D0, symSize: 0x2C }
  - { offsetInCU: 0x3B2D, offset: 0xBC1F8, size: 0x8, addend: 0x0, symName: '__ZN280_$LT$alloc..collections..btree..node..Handle$LT$alloc..collections..btree..node..NodeRef$LT$alloc..collections..btree..node..marker..Dying$C$K$C$V$C$NodeType$GT$$C$alloc..collections..btree..node..marker..KV$GT$..drop_key_val..Dropper$LT$T$GT$$u20$as$u20$core..ops..drop..Drop$GT$4drop17hb66f5f868846db3eE', symObjAddr: 0x0, symBinAddr: 0x223D0, symSize: 0x2C }
  - { offsetInCU: 0x4B8E, offset: 0xBD259, size: 0x8, addend: 0x0, symName: '__ZN5alloc11collections5btree4node127NodeRef$LT$alloc..collections..btree..node..marker..Owned$C$K$C$V$C$alloc..collections..btree..node..marker..LeafOrInternal$GT$19push_internal_level28_$u7b$$u7b$closure$u7d$$u7d$17h32987fa7f24e6ae1E', symObjAddr: 0xA28, symBinAddr: 0x22DF8, symSize: 0x34 }
  - { offsetInCU: 0x4BE9, offset: 0xBD2B4, size: 0x8, addend: 0x0, symName: __ZN5alloc11collections5btree4node12slice_insert17h4e6ed421042016c9E, symObjAddr: 0xA5C, symBinAddr: 0x22E2C, symSize: 0x11C }
  - { offsetInCU: 0x4D6D, offset: 0xBD438, size: 0x8, addend: 0x0, symName: __ZN5alloc11collections5btree4node12slice_insert17hc3389d0f0d795047E, symObjAddr: 0xB78, symBinAddr: 0x22F48, symSize: 0x144 }
  - { offsetInCU: 0x4EF4, offset: 0xBD5BF, size: 0x8, addend: 0x0, symName: __ZN5alloc11collections5btree4node12slice_insert17hcb24d9450de3cd92E, symObjAddr: 0xCBC, symBinAddr: 0x2308C, symSize: 0x158 }
  - { offsetInCU: 0x507B, offset: 0xBD746, size: 0x8, addend: 0x0, symName: __ZN5alloc11collections5btree4node13move_to_slice17h530a4d891818b53cE, symObjAddr: 0xE14, symBinAddr: 0x231E4, symSize: 0xB8 }
  - { offsetInCU: 0x5127, offset: 0xBD7F2, size: 0x8, addend: 0x0, symName: __ZN5alloc11collections5btree4node13move_to_slice17hb6ba3d99b5e1a8f2E, symObjAddr: 0xECC, symBinAddr: 0x2329C, symSize: 0xB0 }
  - { offsetInCU: 0x51D3, offset: 0xBD89E, size: 0x8, addend: 0x0, symName: __ZN5alloc11collections5btree4node13move_to_slice17hf00eff4825aa3e23E, symObjAddr: 0xF7C, symBinAddr: 0x2334C, symSize: 0xB4 }
  - { offsetInCU: 0x793E, offset: 0xC0009, size: 0x8, addend: 0x0, symName: '__ZN5alloc11collections5btree4node115NodeRef$LT$alloc..collections..btree..node..marker..Mut$C$K$C$V$C$alloc..collections..btree..node..marker..Leaf$GT$16push_with_handle17h066f027f0762835eE', symObjAddr: 0x2C, symBinAddr: 0x223FC, symSize: 0x240 }
  - { offsetInCU: 0x7D09, offset: 0xC03D4, size: 0x8, addend: 0x0, symName: '__ZN5alloc11collections5btree4node117NodeRef$LT$alloc..collections..btree..node..marker..Owned$C$K$C$V$C$alloc..collections..btree..node..marker..Leaf$GT$8new_leaf17hd8b3c184b3230adaE', symObjAddr: 0x26C, symBinAddr: 0x2263C, symSize: 0x38 }
  - { offsetInCU: 0x7E3A, offset: 0xC0505, size: 0x8, addend: 0x0, symName: '__ZN5alloc11collections5btree4node119NodeRef$LT$alloc..collections..btree..node..marker..Mut$C$K$C$V$C$alloc..collections..btree..node..marker..Internal$GT$30correct_childrens_parent_links17h01935efe4c7ee8d4E', symObjAddr: 0x2A4, symBinAddr: 0x22674, symSize: 0xB4 }
  - { offsetInCU: 0x7F71, offset: 0xC063C, size: 0x8, addend: 0x0, symName: '__ZN5alloc11collections5btree4node119NodeRef$LT$alloc..collections..btree..node..marker..Mut$C$K$C$V$C$alloc..collections..btree..node..marker..Internal$GT$30correct_childrens_parent_links17h869bcab32cadd8b4E', symObjAddr: 0x358, symBinAddr: 0x22728, symSize: 0xB4 }
  - { offsetInCU: 0x83F4, offset: 0xC0ABF, size: 0x8, addend: 0x0, symName: '__ZN5alloc11collections5btree4node119NodeRef$LT$alloc..collections..btree..node..marker..Mut$C$K$C$V$C$alloc..collections..btree..node..marker..Internal$GT$4push17h2c8cf5eb3a7ff026E', symObjAddr: 0x40C, symBinAddr: 0x227DC, symSize: 0x33C }
  - { offsetInCU: 0x892D, offset: 0xC0FF8, size: 0x8, addend: 0x0, symName: '__ZN5alloc11collections5btree4node121NodeRef$LT$alloc..collections..btree..node..marker..Owned$C$K$C$V$C$alloc..collections..btree..node..marker..Internal$GT$12new_internal17hbd3553d6a1f4872fE', symObjAddr: 0x748, symBinAddr: 0x22B18, symSize: 0x98 }
  - { offsetInCU: 0x8B2C, offset: 0xC11F7, size: 0x8, addend: 0x0, symName: '__ZN5alloc11collections5btree4node121NodeRef$LT$alloc..collections..btree..node..marker..Owned$C$K$C$V$C$alloc..collections..btree..node..marker..Internal$GT$17from_new_internal17h17ae8d2e4912f3f0E', symObjAddr: 0x7E0, symBinAddr: 0x22BB0, symSize: 0xC0 }
  - { offsetInCU: 0x8E21, offset: 0xC14EC, size: 0x8, addend: 0x0, symName: '__ZN5alloc11collections5btree4node127NodeRef$LT$alloc..collections..btree..node..marker..Dying$C$K$C$V$C$alloc..collections..btree..node..marker..LeafOrInternal$GT$21deallocate_and_ascend17h3e1c7ededd63be67E', symObjAddr: 0x8A0, symBinAddr: 0x22C70, symSize: 0x188 }
  - { offsetInCU: 0x91A3, offset: 0xC186E, size: 0x8, addend: 0x0, symName: '__ZN5alloc11collections5btree4node171Handle$LT$alloc..collections..btree..node..NodeRef$LT$alloc..collections..btree..node..marker..Mut$C$K$C$V$C$NodeType$GT$$C$alloc..collections..btree..node..marker..KV$GT$12into_val_mut17h62ef4744441deb3fE', symObjAddr: 0x1030, symBinAddr: 0x23400, symSize: 0x80 }
  - { offsetInCU: 0x9549, offset: 0xC1C14, size: 0x8, addend: 0x0, symName: '__ZN5alloc11collections5btree4node171Handle$LT$alloc..collections..btree..node..NodeRef$LT$alloc..collections..btree..node..marker..Mut$C$K$C$V$C$NodeType$GT$$C$alloc..collections..btree..node..marker..KV$GT$15split_leaf_data17h231ef0e275f879a2E', symObjAddr: 0x10B0, symBinAddr: 0x23480, symSize: 0x40C }
  - { offsetInCU: 0x9F15, offset: 0xC25E0, size: 0x8, addend: 0x0, symName: '__ZN5alloc11collections5btree4node171Handle$LT$alloc..collections..btree..node..NodeRef$LT$alloc..collections..btree..node..marker..Mut$C$K$C$V$C$NodeType$GT$$C$alloc..collections..btree..node..marker..KV$GT$15split_leaf_data17h24449a85e8a74b33E', symObjAddr: 0x14BC, symBinAddr: 0x2388C, symSize: 0x40C }
  - { offsetInCU: 0xA74D, offset: 0xC2E18, size: 0x8, addend: 0x0, symName: '__ZN5alloc11collections5btree4node171Handle$LT$alloc..collections..btree..node..NodeRef$LT$alloc..collections..btree..node..marker..Mut$C$K$C$V$C$NodeType$GT$$C$alloc..collections..btree..node..marker..KV$GT$6kv_mut17hcddf6e12323888b2E', symObjAddr: 0x18C8, symBinAddr: 0x23C98, symSize: 0xFC }
  - { offsetInCU: 0xA9D5, offset: 0xC30A0, size: 0x8, addend: 0x0, symName: '__ZN5alloc11collections5btree4node173Handle$LT$alloc..collections..btree..node..NodeRef$LT$alloc..collections..btree..node..marker..Dying$C$K$C$V$C$NodeType$GT$$C$alloc..collections..btree..node..marker..KV$GT$12drop_key_val17h04a548a186b4ed94E', symObjAddr: 0x19C4, symBinAddr: 0x23D94, symSize: 0x128 }
  - { offsetInCU: 0xAD19, offset: 0xC33E4, size: 0x8, addend: 0x0, symName: '__ZN5alloc11collections5btree4node180Handle$LT$alloc..collections..btree..node..NodeRef$LT$BorrowType$C$K$C$V$C$alloc..collections..btree..node..marker..Internal$GT$$C$alloc..collections..btree..node..marker..Edge$GT$7descend17h9e43a54beb6d68c2E', symObjAddr: 0x1C70, symBinAddr: 0x23EBC, symSize: 0x9C }
  - { offsetInCU: 0xAECC, offset: 0xC3597, size: 0x8, addend: 0x0, symName: '__ZN5alloc11collections5btree4node180Handle$LT$alloc..collections..btree..node..NodeRef$LT$BorrowType$C$K$C$V$C$alloc..collections..btree..node..marker..Internal$GT$$C$alloc..collections..btree..node..marker..Edge$GT$7descend17he6d49971ee96a9a2E', symObjAddr: 0x1D0C, symBinAddr: 0x23F58, symSize: 0x9C }
  - { offsetInCU: 0xB047, offset: 0xC3712, size: 0x8, addend: 0x0, symName: '__ZN5alloc11collections5btree4node208Handle$LT$alloc..collections..btree..node..NodeRef$LT$alloc..collections..btree..node..marker..Mut$C$K$C$V$C$alloc..collections..btree..node..marker..Leaf$GT$$C$alloc..collections..btree..node..marker..KV$GT$5split17h91b0a1b77143eb3dE', symObjAddr: 0x1DA8, symBinAddr: 0x23FF4, symSize: 0x108 }
  - { offsetInCU: 0xB2EA, offset: 0xC39B5, size: 0x8, addend: 0x0, symName: '__ZN5alloc11collections5btree4node210Handle$LT$alloc..collections..btree..node..NodeRef$LT$alloc..collections..btree..node..marker..Mut$C$K$C$V$C$alloc..collections..btree..node..marker..Leaf$GT$$C$alloc..collections..btree..node..marker..Edge$GT$10insert_fit17h29bcb38bdfcdd0bdE', symObjAddr: 0x1EB0, symBinAddr: 0x240FC, symSize: 0x20C }
  - { offsetInCU: 0xB738, offset: 0xC3E03, size: 0x8, addend: 0x0, symName: '__ZN5alloc11collections5btree4node210Handle$LT$alloc..collections..btree..node..NodeRef$LT$alloc..collections..btree..node..marker..Mut$C$K$C$V$C$alloc..collections..btree..node..marker..Leaf$GT$$C$alloc..collections..btree..node..marker..Edge$GT$16insert_recursing17h758ff712f0c942b2E', symObjAddr: 0x20BC, symBinAddr: 0x24308, symSize: 0x550 }
  - { offsetInCU: 0xBBB5, offset: 0xC4280, size: 0x8, addend: 0x0, symName: '__ZN5alloc11collections5btree4node210Handle$LT$alloc..collections..btree..node..NodeRef$LT$alloc..collections..btree..node..marker..Mut$C$K$C$V$C$alloc..collections..btree..node..marker..Leaf$GT$$C$alloc..collections..btree..node..marker..Edge$GT$6insert17h446c7d38109cfa39E', symObjAddr: 0x260C, symBinAddr: 0x24858, symSize: 0x54C }
  - { offsetInCU: 0xBF7C, offset: 0xC4647, size: 0x8, addend: 0x0, symName: '__ZN5alloc11collections5btree4node212Handle$LT$alloc..collections..btree..node..NodeRef$LT$alloc..collections..btree..node..marker..Mut$C$K$C$V$C$alloc..collections..btree..node..marker..Internal$GT$$C$alloc..collections..btree..node..marker..KV$GT$5split17hc02348ed4126e485E', symObjAddr: 0x2B58, symBinAddr: 0x24DA4, symSize: 0x268 }
  - { offsetInCU: 0xC481, offset: 0xC4B4C, size: 0x8, addend: 0x0, symName: '__ZN5alloc11collections5btree4node214Handle$LT$alloc..collections..btree..node..NodeRef$LT$alloc..collections..btree..node..marker..Mut$C$K$C$V$C$alloc..collections..btree..node..marker..Internal$GT$$C$alloc..collections..btree..node..marker..Edge$GT$10insert_fit17hc2139236a799b906E', symObjAddr: 0x2DC0, symBinAddr: 0x2500C, symSize: 0x2AC }
  - { offsetInCU: 0xC9E8, offset: 0xC50B3, size: 0x8, addend: 0x0, symName: '__ZN5alloc11collections5btree4node214Handle$LT$alloc..collections..btree..node..NodeRef$LT$alloc..collections..btree..node..marker..Mut$C$K$C$V$C$alloc..collections..btree..node..marker..Internal$GT$$C$alloc..collections..btree..node..marker..Edge$GT$19correct_parent_link17h7afdd49644f1a4aaE', symObjAddr: 0x306C, symBinAddr: 0x252B8, symSize: 0xAC }
  - { offsetInCU: 0xCC7C, offset: 0xC5347, size: 0x8, addend: 0x0, symName: '__ZN5alloc11collections5btree4node214Handle$LT$alloc..collections..btree..node..NodeRef$LT$alloc..collections..btree..node..marker..Mut$C$K$C$V$C$alloc..collections..btree..node..marker..Internal$GT$$C$alloc..collections..btree..node..marker..Edge$GT$6insert17h59a471a2f2f6576aE', symObjAddr: 0x3118, symBinAddr: 0x25364, symSize: 0x54C }
  - { offsetInCU: 0xCF6C, offset: 0xC5637, size: 0x8, addend: 0x0, symName: '__ZN5alloc11collections5btree4node21LeafNode$LT$K$C$V$GT$3new17h43dff74bbb2112abE', symObjAddr: 0x3664, symBinAddr: 0x258B0, symSize: 0x70 }
  - { offsetInCU: 0xD1A1, offset: 0xC586C, size: 0x8, addend: 0x0, symName: '__ZN5alloc11collections5btree4node25InternalNode$LT$K$C$V$GT$3new17h04719c25fcb6f98dE', symObjAddr: 0x36D4, symBinAddr: 0x25920, symSize: 0x70 }
  - { offsetInCU: 0xD447, offset: 0xC5B12, size: 0x8, addend: 0x0, symName: '__ZN5alloc11collections5btree4node40NodeRef$LT$BorrowType$C$K$C$V$C$Type$GT$6ascend17h5701ff6aa787fb1dE', symObjAddr: 0x38A4, symBinAddr: 0x25990, symSize: 0x160 }
  - { offsetInCU: 0xD68B, offset: 0xC5D56, size: 0x8, addend: 0x0, symName: '__ZN5alloc11collections5btree4node40NodeRef$LT$BorrowType$C$K$C$V$C$Type$GT$6ascend17h83b58de276d3075fE', symObjAddr: 0x3A04, symBinAddr: 0x25AF0, symSize: 0x160 }
  - { offsetInCU: 0xD892, offset: 0xC5F5D, size: 0x8, addend: 0x0, symName: '__ZN5alloc11collections5btree4node76NodeRef$LT$alloc..collections..btree..node..marker..Immut$C$K$C$V$C$Type$GT$4keys17h113b910965ba3a0aE', symObjAddr: 0x3B64, symBinAddr: 0x25C50, symSize: 0xA8 }
  - { offsetInCU: 0xDB96, offset: 0xC6261, size: 0x8, addend: 0x0, symName: '__ZN5alloc11collections5btree6search142_$LT$impl$u20$alloc..collections..btree..node..NodeRef$LT$BorrowType$C$K$C$V$C$alloc..collections..btree..node..marker..LeafOrInternal$GT$$GT$11search_tree17ha4acfabbec4f5997E', symObjAddr: 0x4344, symBinAddr: 0x25CF8, symSize: 0x260 }
  - { offsetInCU: 0xDE7F, offset: 0xC654A, size: 0x8, addend: 0x0, symName: '__ZN5alloc11collections5btree6search91_$LT$impl$u20$alloc..collections..btree..node..NodeRef$LT$BorrowType$C$K$C$V$C$Type$GT$$GT$14find_key_index17h754fb8047f3f6a8bE', symObjAddr: 0x4790, symBinAddr: 0x25F58, symSize: 0x1EC }
  - { offsetInCU: 0xE3D9, offset: 0xC6AA4, size: 0x8, addend: 0x0, symName: '__ZN5alloc11collections5btree8navigate235_$LT$impl$u20$alloc..collections..btree..node..Handle$LT$alloc..collections..btree..node..NodeRef$LT$BorrowType$C$K$C$V$C$alloc..collections..btree..node..marker..LeafOrInternal$GT$$C$alloc..collections..btree..node..marker..KV$GT$$GT$14next_leaf_edge17h65769fe0f97e3d15E', symObjAddr: 0x4F08, symBinAddr: 0x26144, symSize: 0x210 }
  - { offsetInCU: 0xE68F, offset: 0xC6D5A, size: 0x8, addend: 0x0, symName: '__ZN5alloc11collections5btree8navigate263_$LT$impl$u20$alloc..collections..btree..node..Handle$LT$alloc..collections..btree..node..NodeRef$LT$alloc..collections..btree..node..marker..Dying$C$K$C$V$C$alloc..collections..btree..node..marker..Leaf$GT$$C$alloc..collections..btree..node..marker..Edge$GT$$GT$16deallocating_end17ha9274b0b6030cf96E', symObjAddr: 0x5328, symBinAddr: 0x26354, symSize: 0xD4 }
  - { offsetInCU: 0xE8F6, offset: 0xC6FC1, size: 0x8, addend: 0x0, symName: '__ZN5alloc11collections5btree8navigate263_$LT$impl$u20$alloc..collections..btree..node..Handle$LT$alloc..collections..btree..node..NodeRef$LT$alloc..collections..btree..node..marker..Dying$C$K$C$V$C$alloc..collections..btree..node..marker..Leaf$GT$$C$alloc..collections..btree..node..marker..Edge$GT$$GT$17deallocating_next17h4d5ff560a94cda76E', symObjAddr: 0x53FC, symBinAddr: 0x26428, symSize: 0x254 }
  - { offsetInCU: 0x43, offset: 0xC71EB, size: 0x8, addend: 0x0, symName: __ZN10serde_json2de5POW1017hf9af18f39fb8730fE, symObjAddr: 0xB6E0, symBinAddr: 0xB7D00, symSize: 0x0 }
  - { offsetInCU: 0x4DD, offset: 0xC7685, size: 0x8, addend: 0x0, symName: '__ZN10serde_json2de21Deserializer$LT$R$GT$12fix_position28_$u7b$$u7b$closure$u7d$$u7d$17hec8bd9160520bacdE', symObjAddr: 0x2EC0, symBinAddr: 0x27DB0, symSize: 0x24 }
  - { offsetInCU: 0x52C, offset: 0xC76D4, size: 0x8, addend: 0x0, symName: '__ZN98_$LT$$RF$mut$u20$serde_json..de..Deserializer$LT$R$GT$$u20$as$u20$serde_core..de..Deserializer$GT$15deserialize_any17ha7581cc2c0e23bffE', symObjAddr: 0x4A6C, symBinAddr: 0x291D0, symSize: 0xBE8 }
  - { offsetInCU: 0x7E4, offset: 0xC798C, size: 0x8, addend: 0x0, symName: '__ZN80_$LT$serde_json..de..SeqAccess$LT$R$GT$$u20$as$u20$serde_core..de..SeqAccess$GT$17next_element_seed17h6f997450fd165fe4E', symObjAddr: 0x5BBC, symBinAddr: 0x29DD4, symSize: 0x16C }
  - { offsetInCU: 0x874, offset: 0xC7A1C, size: 0x8, addend: 0x0, symName: '__ZN80_$LT$serde_json..de..SeqAccess$LT$R$GT$$u20$as$u20$serde_core..de..SeqAccess$GT$17next_element_seed16has_next_element17ha40d2f9b3e91777bE', symObjAddr: 0x5D28, symBinAddr: 0x29F40, symSize: 0x220 }
  - { offsetInCU: 0x94D, offset: 0xC7AF5, size: 0x8, addend: 0x0, symName: '__ZN80_$LT$serde_json..de..MapAccess$LT$R$GT$$u20$as$u20$serde_core..de..MapAccess$GT$13next_key_seed17h7fd94f8013229c37E', symObjAddr: 0x5F64, symBinAddr: 0x2A17C, symSize: 0x170 }
  - { offsetInCU: 0x9D8, offset: 0xC7B80, size: 0x8, addend: 0x0, symName: '__ZN80_$LT$serde_json..de..MapAccess$LT$R$GT$$u20$as$u20$serde_core..de..MapAccess$GT$13next_key_seed17hbead86d5d0620d0dE', symObjAddr: 0x60D4, symBinAddr: 0x2A2EC, symSize: 0x170 }
  - { offsetInCU: 0xA68, offset: 0xC7C10, size: 0x8, addend: 0x0, symName: '__ZN80_$LT$serde_json..de..MapAccess$LT$R$GT$$u20$as$u20$serde_core..de..MapAccess$GT$13next_key_seed12has_next_key17h2c27dd6bb152994dE', symObjAddr: 0x6244, symBinAddr: 0x2A45C, symSize: 0x2A4 }
  - { offsetInCU: 0xAF2, offset: 0xC7C9A, size: 0x8, addend: 0x0, symName: '__ZN80_$LT$serde_json..de..MapAccess$LT$R$GT$$u20$as$u20$serde_core..de..MapAccess$GT$15next_value_seed17h0ff2032a20681460E', symObjAddr: 0x64E8, symBinAddr: 0x2A700, symSize: 0xC0 }
  - { offsetInCU: 0xB65, offset: 0xC7D0D, size: 0x8, addend: 0x0, symName: '__ZN80_$LT$serde_json..de..MapKey$LT$R$GT$$u20$as$u20$serde_core..de..Deserializer$GT$15deserialize_any17h067c2545317726f8E', symObjAddr: 0x65A8, symBinAddr: 0x2A7C0, symSize: 0x11C }
  - { offsetInCU: 0xC06, offset: 0xC7DAE, size: 0x8, addend: 0x0, symName: '__ZN80_$LT$serde_json..de..MapKey$LT$R$GT$$u20$as$u20$serde_core..de..Deserializer$GT$15deserialize_any17h2d754843caf03139E', symObjAddr: 0x66C4, symBinAddr: 0x2A8DC, symSize: 0x11C }
  - { offsetInCU: 0xCA7, offset: 0xC7E4F, size: 0x8, addend: 0x0, symName: '__ZN80_$LT$serde_json..de..MapKey$LT$R$GT$$u20$as$u20$serde_core..de..Deserializer$GT$15deserialize_str17h41794cc14a926eb7E', symObjAddr: 0xAAF0, symBinAddr: 0x2AC60, symSize: 0x24 }
  - { offsetInCU: 0xCF3, offset: 0xC7E9B, size: 0x8, addend: 0x0, symName: '__ZN80_$LT$serde_json..de..MapKey$LT$R$GT$$u20$as$u20$serde_core..de..Deserializer$GT$18deserialize_string17h3a72e54a074172ceE', symObjAddr: 0xAB14, symBinAddr: 0x2AC84, symSize: 0x24 }
  - { offsetInCU: 0xD40, offset: 0xC7EE8, size: 0x8, addend: 0x0, symName: __ZN10serde_json2de10from_trait17h57547e3b144df458E, symObjAddr: 0x694C, symBinAddr: 0x2A9F8, symSize: 0x174 }
  - { offsetInCU: 0xE09, offset: 0xC7FB1, size: 0x8, addend: 0x0, symName: __ZN10serde_json2de8from_str17hc32cb4fbfd2bf4b0E, symObjAddr: 0x6B00, symBinAddr: 0x2AB6C, symSize: 0x40 }
  - { offsetInCU: 0xEA9, offset: 0xC8051, size: 0x8, addend: 0x0, symName: __ZN10serde_json3ser9Formatter17write_char_escape10HEX_DIGITS17h35ff0e628c505c97E, symObjAddr: 0xB3A8, symBinAddr: 0xB79C8, symSize: 0x0 }
  - { offsetInCU: 0xEC6, offset: 0xC806E, size: 0x8, addend: 0x0, symName: __ZN10serde_json3ser6ESCAPE17he9ccd902700299efE, symObjAddr: 0xB3B8, symBinAddr: 0xB79D8, symSize: 0x0 }
  - { offsetInCU: 0x121F, offset: 0xC83C7, size: 0x8, addend: 0x0, symName: '__ZN77_$LT$serde_json..number..Number$u20$as$u20$core..convert..From$LT$u64$GT$$GT$4from17h5c2350229d8a6afeE', symObjAddr: 0xABE0, symBinAddr: 0x2ACA8, symSize: 0x20 }
  - { offsetInCU: 0x1271, offset: 0xC8419, size: 0x8, addend: 0x0, symName: '__ZN77_$LT$serde_json..number..Number$u20$as$u20$core..convert..From$LT$i64$GT$$GT$4from17h003ac045159037e1E', symObjAddr: 0xAD60, symBinAddr: 0x2ACC8, symSize: 0x58 }
  - { offsetInCU: 0x172C, offset: 0xC88D4, size: 0x8, addend: 0x0, symName: '__ZN83_$LT$alloc..vec..set_len_on_drop..SetLenOnDrop$u20$as$u20$core..ops..drop..Drop$GT$4drop17he9b1a14feed257f2E', symObjAddr: 0x2114, symBinAddr: 0x277FC, symSize: 0x20 }
  - { offsetInCU: 0x1A82, offset: 0xC8C2A, size: 0x8, addend: 0x0, symName: '__ZN119_$LT$alloc..collections..btree..map..BTreeMap$LT$K$C$V$C$A$GT$$u20$as$u20$core..iter..traits..collect..IntoIterator$GT$9into_iter17hc343391f03dd2343E', symObjAddr: 0x82C, symBinAddr: 0x268F4, symSize: 0x190 }
  - { offsetInCU: 0x1C0A, offset: 0xC8DB2, size: 0x8, addend: 0x0, symName: '__ZN174_$LT$$LT$alloc..collections..btree..map..IntoIter$LT$K$C$V$C$A$GT$$u20$as$u20$core..ops..drop..Drop$GT$..drop..DropGuard$LT$K$C$V$C$A$GT$$u20$as$u20$core..ops..drop..Drop$GT$4drop17h157cc8c8509f8578E', symObjAddr: 0x9BC, symBinAddr: 0x26A84, symSize: 0x64 }
  - { offsetInCU: 0x1C9F, offset: 0xC8E47, size: 0x8, addend: 0x0, symName: '__ZN99_$LT$alloc..collections..btree..map..IntoIter$LT$K$C$V$C$A$GT$$u20$as$u20$core..ops..drop..Drop$GT$4drop17h9e7291d99d16d45eE', symObjAddr: 0x230C, symBinAddr: 0x278B0, symSize: 0x9C }
  - { offsetInCU: 0x1F4A, offset: 0xC90F2, size: 0x8, addend: 0x0, symName: '__ZN99_$LT$alloc..collections..btree..map..BTreeMap$LT$K$C$V$C$A$GT$$u20$as$u20$core..ops..drop..Drop$GT$4drop17h6e4d419b1f0153ebE', symObjAddr: 0x22C0, symBinAddr: 0x27864, symSize: 0x4C }
  - { offsetInCU: 0x282D, offset: 0xC99D5, size: 0x8, addend: 0x0, symName: __ZN5alloc11collections5btree3mem7replace17h15f749efb7b47702E, symObjAddr: 0x1E18, symBinAddr: 0x27678, symSize: 0x90 }
  - { offsetInCU: 0x2916, offset: 0xC9ABE, size: 0x8, addend: 0x0, symName: __ZN5alloc11collections5btree3mem7replace17h338ee0ba30c80959E, symObjAddr: 0x1EA8, symBinAddr: 0x27708, symSize: 0xCC }
  - { offsetInCU: 0x2A0B, offset: 0xC9BB3, size: 0x8, addend: 0x0, symName: '__ZN5alloc11collections5btree3mem8take_mut28_$u7b$$u7b$closure$u7d$$u7d$17h66d27304a132093dE', symObjAddr: 0x2038, symBinAddr: 0x277D4, symSize: 0x28 }
  - { offsetInCU: 0x2C2C, offset: 0xC9DD4, size: 0x8, addend: 0x0, symName: __ZN4core3ptr19copy_nonoverlapping18precondition_check17h98ecde291c268087E, symObjAddr: 0xCA0, symBinAddr: 0x26AE8, symSize: 0x36C }
  - { offsetInCU: 0x2EDF, offset: 0xCA087, size: 0x8, addend: 0x0, symName: __ZN4core3ptr4copy18precondition_check17h0b964c00f668e5a5E, symObjAddr: 0x100C, symBinAddr: 0x26E54, symSize: 0x240 }
  - { offsetInCU: 0x4AD2, offset: 0xCBC7A, size: 0x8, addend: 0x0, symName: '__ZN4core3str21_$LT$impl$u20$str$GT$11starts_with17hccfd014fc783134fE', symObjAddr: 0x1290, symBinAddr: 0x27094, symSize: 0x4C }
  - { offsetInCU: 0x4B18, offset: 0xCBCC0, size: 0x8, addend: 0x0, symName: '__ZN4core3str21_$LT$impl$u20$str$GT$3len17h639b3f65edd0725aE', symObjAddr: 0x12DC, symBinAddr: 0x270E0, symSize: 0x1C }
  - { offsetInCU: 0x4B51, offset: 0xCBCF9, size: 0x8, addend: 0x0, symName: '__ZN4core3str21_$LT$impl$u20$str$GT$5rfind17h5a492a2e5c2f9becE', symObjAddr: 0x1320, symBinAddr: 0x270FC, symSize: 0xD8 }
  - { offsetInCU: 0x4FF4, offset: 0xCC19C, size: 0x8, addend: 0x0, symName: __ZN10serde_core2de9MapAccess10next_entry17h778993b78c4fa7c3E, symObjAddr: 0xEC, symBinAddr: 0x2667C, symSize: 0x24 }
  - { offsetInCU: 0x503D, offset: 0xCC1E5, size: 0x8, addend: 0x0, symName: __ZN10serde_core2de9MapAccess10next_value17h6165087266ca8d30E, symObjAddr: 0x110, symBinAddr: 0x266A0, symSize: 0x24 }
  - { offsetInCU: 0x507D, offset: 0xCC225, size: 0x8, addend: 0x0, symName: __ZN10serde_core2de9MapAccess15next_entry_seed17ha594c28193e0ad78E, symObjAddr: 0x134, symBinAddr: 0x266C4, symSize: 0x20C }
  - { offsetInCU: 0x515A, offset: 0xCC302, size: 0x8, addend: 0x0, symName: __ZN10serde_core2de9SeqAccess12next_element17hb3b6342ef258e35eE, symObjAddr: 0x340, symBinAddr: 0x268D0, symSize: 0x24 }
  - { offsetInCU: 0x51A0, offset: 0xCC348, size: 0x8, addend: 0x0, symName: '__ZN86_$LT$core..marker..PhantomData$LT$T$GT$$u20$as$u20$serde_core..de..DeserializeSeed$GT$11deserialize17h0e6ad72917fe8ee6E', symObjAddr: 0x2134, symBinAddr: 0x2781C, symSize: 0x24 }
  - { offsetInCU: 0x51FB, offset: 0xCC3A3, size: 0x8, addend: 0x0, symName: '__ZN86_$LT$core..marker..PhantomData$LT$T$GT$$u20$as$u20$serde_core..de..DeserializeSeed$GT$11deserialize17ha8cb14882a272076E', symObjAddr: 0x2158, symBinAddr: 0x27840, symSize: 0x24 }
  - { offsetInCU: 0x572A, offset: 0xCC8D2, size: 0x8, addend: 0x0, symName: '__ZN5alloc11collections5btree3map21BTreeMap$LT$K$C$V$GT$3new17hcae104c67fc310acE', symObjAddr: 0x14C0, symBinAddr: 0x271D4, symSize: 0x24 }
  - { offsetInCU: 0x5875, offset: 0xCCA1D, size: 0x8, addend: 0x0, symName: '__ZN5alloc11collections5btree3map25BTreeMap$LT$K$C$V$C$A$GT$5entry17h70bf03b2be16e01aE', symObjAddr: 0x17DC, symBinAddr: 0x271F8, symSize: 0x27C }
  - { offsetInCU: 0x5A16, offset: 0xCCBBE, size: 0x8, addend: 0x0, symName: '__ZN5alloc11collections5btree3map25BTreeMap$LT$K$C$V$C$A$GT$6insert17h63961ba946c0c8b2E', symObjAddr: 0x1A58, symBinAddr: 0x27474, symSize: 0x174 }
  - { offsetInCU: 0x5ADF, offset: 0xCCC87, size: 0x8, addend: 0x0, symName: '__ZN5alloc11collections5btree3map25IntoIter$LT$K$C$V$C$A$GT$10dying_next17h803d05e76e58951fE', symObjAddr: 0x1D88, symBinAddr: 0x275E8, symSize: 0x90 }
  - { offsetInCU: 0x5B2A, offset: 0xCCCD2, size: 0x8, addend: 0x0, symName: '__ZN10serde_json2de21Deserializer$LT$R$GT$3new17h81b4f32c79ac63cbE', symObjAddr: 0x23A8, symBinAddr: 0x2794C, symSize: 0x7C }
  - { offsetInCU: 0x5BEA, offset: 0xCCD92, size: 0x8, addend: 0x0, symName: __ZN10serde_json2de12ParserNumber5visit17hbae9e7d606e58083E, symObjAddr: 0x2520, symBinAddr: 0x279C8, symSize: 0x8C }
  - { offsetInCU: 0x5CC3, offset: 0xCCE6B, size: 0x8, addend: 0x0, symName: __ZN10serde_json2de12ParserNumber12invalid_type17h6f612aafdfe007e5E, symObjAddr: 0x25AC, symBinAddr: 0x27A54, symSize: 0xE4 }
  - { offsetInCU: 0x5D58, offset: 0xCCF00, size: 0x8, addend: 0x0, symName: '__ZN10serde_json2de21Deserializer$LT$R$GT$3end17h963ec358654af51aE', symObjAddr: 0x2690, symBinAddr: 0x27B38, symSize: 0x98 }
  - { offsetInCU: 0x5DA1, offset: 0xCCF49, size: 0x8, addend: 0x0, symName: '__ZN10serde_json2de21Deserializer$LT$R$GT$4peek17h4c04dc9822369d06E', symObjAddr: 0x2728, symBinAddr: 0x27BD0, symSize: 0x24 }
  - { offsetInCU: 0x5DCC, offset: 0xCCF74, size: 0x8, addend: 0x0, symName: '__ZN10serde_json2de21Deserializer$LT$R$GT$12peek_or_null17hff862f3dc080321bE', symObjAddr: 0x274C, symBinAddr: 0x27BF4, symSize: 0x88 }
  - { offsetInCU: 0x5E15, offset: 0xCCFBD, size: 0x8, addend: 0x0, symName: '__ZN10serde_json2de21Deserializer$LT$R$GT$8eat_char17h45468e4b24d5dbbfE', symObjAddr: 0x27D4, symBinAddr: 0x27C7C, symSize: 0x24 }
  - { offsetInCU: 0x5E40, offset: 0xCCFE8, size: 0x8, addend: 0x0, symName: '__ZN10serde_json2de21Deserializer$LT$R$GT$9next_char17h911524da0272f45aE', symObjAddr: 0x27F8, symBinAddr: 0x27CA0, symSize: 0x24 }
  - { offsetInCU: 0x5E78, offset: 0xCD020, size: 0x8, addend: 0x0, symName: '__ZN10serde_json2de21Deserializer$LT$R$GT$5error17he2557b6ed4c59dbcE', symObjAddr: 0x281C, symBinAddr: 0xA4724, symSize: 0xB0 }
  - { offsetInCU: 0x5ECF, offset: 0xCD077, size: 0x8, addend: 0x0, symName: '__ZN10serde_json2de21Deserializer$LT$R$GT$10peek_error17hbd9cd3f645c7a1bcE', symObjAddr: 0x28CC, symBinAddr: 0xA47D4, symSize: 0xB0 }
  - { offsetInCU: 0x5F26, offset: 0xCD0CE, size: 0x8, addend: 0x0, symName: '__ZN10serde_json2de21Deserializer$LT$R$GT$16parse_whitespace17h164658116619050aE', symObjAddr: 0x297C, symBinAddr: 0x27CC4, symSize: 0xEC }
  - { offsetInCU: 0x5F8D, offset: 0xCD135, size: 0x8, addend: 0x0, symName: '__ZN10serde_json2de21Deserializer$LT$R$GT$17peek_invalid_type17h89b3da0769bfdb05E', symObjAddr: 0x2A68, symBinAddr: 0xA4884, symSize: 0x420 }
  - { offsetInCU: 0x60E1, offset: 0xCD289, size: 0x8, addend: 0x0, symName: '__ZN10serde_json2de21Deserializer$LT$R$GT$12fix_position17hf0ff9030db615d35E', symObjAddr: 0x2E88, symBinAddr: 0xA4CA4, symSize: 0x38 }
  - { offsetInCU: 0x611C, offset: 0xCD2C4, size: 0x8, addend: 0x0, symName: '__ZN10serde_json2de21Deserializer$LT$R$GT$11parse_ident17hf729c94fcdd247b5E', symObjAddr: 0x2EE4, symBinAddr: 0x27DD4, symSize: 0x120 }
  - { offsetInCU: 0x61B7, offset: 0xCD35F, size: 0x8, addend: 0x0, symName: '__ZN10serde_json2de21Deserializer$LT$R$GT$13parse_integer17habe1a7fcc188630eE', symObjAddr: 0x3004, symBinAddr: 0x27EF4, symSize: 0x3D8 }
  - { offsetInCU: 0x62FC, offset: 0xCD4A4, size: 0x8, addend: 0x0, symName: '__ZN10serde_json2de21Deserializer$LT$R$GT$12parse_number17h0b63ee5d80d6521eE', symObjAddr: 0x33DC, symBinAddr: 0x282CC, symSize: 0x1C4 }
  - { offsetInCU: 0x63EC, offset: 0xCD594, size: 0x8, addend: 0x0, symName: '__ZN10serde_json2de21Deserializer$LT$R$GT$13parse_decimal17h8749252b5de4d221E', symObjAddr: 0x35A0, symBinAddr: 0x28490, symSize: 0x3B0 }
  - { offsetInCU: 0x6531, offset: 0xCD6D9, size: 0x8, addend: 0x0, symName: '__ZN10serde_json2de21Deserializer$LT$R$GT$14parse_exponent17h7aec839465caaa65E', symObjAddr: 0x3950, symBinAddr: 0x28840, symSize: 0x444 }
  - { offsetInCU: 0x6712, offset: 0xCD8BA, size: 0x8, addend: 0x0, symName: '__ZN10serde_json2de21Deserializer$LT$R$GT$14f64_from_parts17hc80f5127b4f1743bE', symObjAddr: 0x3D94, symBinAddr: 0x28C84, symSize: 0x1C8 }
  - { offsetInCU: 0x6797, offset: 0xCD93F, size: 0x8, addend: 0x0, symName: '__ZN10serde_json2de21Deserializer$LT$R$GT$18parse_long_integer17hdc0d2e48af868e3aE', symObjAddr: 0x3F5C, symBinAddr: 0xA4CDC, symSize: 0x178 }
  - { offsetInCU: 0x6815, offset: 0xCD9BD, size: 0x8, addend: 0x0, symName: '__ZN10serde_json2de21Deserializer$LT$R$GT$22parse_decimal_overflow17h70ba288d962e50cfE', symObjAddr: 0x40D4, symBinAddr: 0xA4E54, symSize: 0x140 }
  - { offsetInCU: 0x68AA, offset: 0xCDA52, size: 0x8, addend: 0x0, symName: '__ZN10serde_json2de21Deserializer$LT$R$GT$23parse_exponent_overflow17h52108fb7a54bdf3dE', symObjAddr: 0x4214, symBinAddr: 0xA4F94, symSize: 0x120 }
  - { offsetInCU: 0x6921, offset: 0xCDAC9, size: 0x8, addend: 0x0, symName: '__ZN10serde_json2de21Deserializer$LT$R$GT$16parse_any_number17he9d910707c0b8997E', symObjAddr: 0x4664, symBinAddr: 0x28E4C, symSize: 0x28 }
  - { offsetInCU: 0x695C, offset: 0xCDB04, size: 0x8, addend: 0x0, symName: '__ZN10serde_json2de21Deserializer$LT$R$GT$18parse_object_colon17h233e9dece4a6e07eE', symObjAddr: 0x468C, symBinAddr: 0x28E74, symSize: 0xC8 }
  - { offsetInCU: 0x69A6, offset: 0xCDB4E, size: 0x8, addend: 0x0, symName: '__ZN10serde_json2de21Deserializer$LT$R$GT$7end_seq17h8091c64a30eb63aeE', symObjAddr: 0x4754, symBinAddr: 0x28F3C, symSize: 0x19C }
  - { offsetInCU: 0x69F0, offset: 0xCDB98, size: 0x8, addend: 0x0, symName: '__ZN10serde_json2de21Deserializer$LT$R$GT$7end_map17h6647f2e4e583cdeaE', symObjAddr: 0x48F0, symBinAddr: 0x290D8, symSize: 0xF8 }
  - { offsetInCU: 0x6A3A, offset: 0xCDBE2, size: 0x8, addend: 0x0, symName: '__ZN10serde_json2de18SeqAccess$LT$R$GT$3new17hfe53647dc55dca78E', symObjAddr: 0x5BA0, symBinAddr: 0x29DB8, symSize: 0x1C }
  - { offsetInCU: 0x6A66, offset: 0xCDC0E, size: 0x8, addend: 0x0, symName: '__ZN10serde_json2de18MapAccess$LT$R$GT$3new17h7567ce36778789d1E', symObjAddr: 0x5F48, symBinAddr: 0x2A160, symSize: 0x1C }
  - { offsetInCU: 0x6A92, offset: 0xCDC3A, size: 0x8, addend: 0x0, symName: __ZN10serde_json3ser15PrettyFormatter3new17h6a349c726e4a1558E, symObjAddr: 0x8940, symBinAddr: 0x2ABAC, symSize: 0x24 }
  - { offsetInCU: 0x6AA5, offset: 0xCDC4D, size: 0x8, addend: 0x0, symName: __ZN10serde_json3ser15PrettyFormatter11with_indent17h933d9517f7007550E, symObjAddr: 0x8964, symBinAddr: 0x2ABD0, symSize: 0x28 }
  - { offsetInCU: 0x6AE2, offset: 0xCDC8A, size: 0x8, addend: 0x0, symName: __ZN10serde_json6number6Number8from_f6417h5acdf347b3901e63E, symObjAddr: 0xA280, symBinAddr: 0x2ABF8, symSize: 0x68 }
  - { offsetInCU: 0x206, offset: 0xCDF6C, size: 0x8, addend: 0x0, symName: '__ZN78_$LT$std..io..error..repr_bitpacked..Repr$u20$as$u20$core..ops..drop..Drop$GT$4drop28_$u7b$$u7b$closure$u7d$$u7d$17hd53217a877e527f0E', symObjAddr: 0x2A88, symBinAddr: 0x2CAF4, symSize: 0x3C }
  - { offsetInCU: 0x2BB, offset: 0xCE021, size: 0x8, addend: 0x0, symName: '__ZN78_$LT$std..io..error..repr_bitpacked..Repr$u20$as$u20$core..ops..drop..Drop$GT$4drop17hdcbd056d439844c6E', symObjAddr: 0x2A50, symBinAddr: 0x2CABC, symSize: 0x38 }
  - { offsetInCU: 0x2E4, offset: 0xCE04A, size: 0x8, addend: 0x0, symName: __ZN3std2io5error14repr_bitpacked11decode_repr17hf33500a4405f8156E, symObjAddr: 0x534, symBinAddr: 0x2AEB8, symSize: 0x1DC }
  - { offsetInCU: 0x540, offset: 0xCE2A6, size: 0x8, addend: 0x0, symName: __ZN3std2io5error14repr_bitpacked14kind_from_prim17h68e7bcc3b5305fc5E, symObjAddr: 0x710, symBinAddr: 0x2B094, symSize: 0x758 }
  - { offsetInCU: 0x22FC, offset: 0xD0062, size: 0x8, addend: 0x0, symName: '__ZN106_$LT$core..ops..range..Range$LT$usize$GT$$u20$as$u20$core..slice..index..SliceIndex$LT$$u5b$T$u5d$$GT$$GT$13get_unchecked18precondition_check17hc182181ab36c2258E', symObjAddr: 0x1C0, symBinAddr: 0x2AD20, symSize: 0xCC }
  - { offsetInCU: 0x2378, offset: 0xD00DE, size: 0x8, addend: 0x0, symName: '__ZN106_$LT$core..ops..range..Range$LT$usize$GT$$u20$as$u20$core..slice..index..SliceIndex$LT$$u5b$T$u5d$$GT$$GT$17get_unchecked_mut18precondition_check17h0c210cd7528a74daE', symObjAddr: 0x28C, symBinAddr: 0x2ADEC, symSize: 0xCC }
  - { offsetInCU: 0x245A, offset: 0xD01C0, size: 0x8, addend: 0x0, symName: '__ZN75_$LT$usize$u20$as$u20$core..slice..index..SliceIndex$LT$$u5b$T$u5d$$GT$$GT$13get_unchecked18precondition_check17h8a316ded645f86c6E', symObjAddr: 0x2814, symBinAddr: 0x2C918, symSize: 0xAC }
  - { offsetInCU: 0x24C8, offset: 0xD022E, size: 0x8, addend: 0x0, symName: '__ZN75_$LT$usize$u20$as$u20$core..slice..index..SliceIndex$LT$$u5b$T$u5d$$GT$$GT$17get_unchecked_mut18precondition_check17h9aeb311cf865c489E', symObjAddr: 0x28C0, symBinAddr: 0x2C9C4, symSize: 0xAC }
  - { offsetInCU: 0x2531, offset: 0xD0297, size: 0x8, addend: 0x0, symName: '__ZN75_$LT$usize$u20$as$u20$core..slice..index..SliceIndex$LT$$u5b$T$u5d$$GT$$GT$3get17h6ecc4646129b9f7dE', symObjAddr: 0x296C, symBinAddr: 0x2CA70, symSize: 0x4C }
  - { offsetInCU: 0x2928, offset: 0xD068E, size: 0x8, addend: 0x0, symName: '__ZN55_$LT$$RF$str$u20$as$u20$core..str..pattern..Pattern$GT$12is_prefix_of17h583c0fd59f3c3bb7E', symObjAddr: 0x1F48, symBinAddr: 0x2C35C, symSize: 0x4C }
  - { offsetInCU: 0x2965, offset: 0xD06CB, size: 0x8, addend: 0x0, symName: '__ZN55_$LT$$RF$str$u20$as$u20$core..str..pattern..Pattern$GT$13into_searcher17hd57e5d3aa1091eaeE', symObjAddr: 0x1F94, symBinAddr: 0x2C3A8, symSize: 0x4C }
  - { offsetInCU: 0x29A8, offset: 0xD070E, size: 0x8, addend: 0x0, symName: '__ZN84_$LT$core..str..pattern..MatchOnly$u20$as$u20$core..str..pattern..TwoWayStrategy$GT$16use_early_reject17hbbbbd305d79cda66E', symObjAddr: 0x3420, symBinAddr: 0x2CB30, symSize: 0xC }
  - { offsetInCU: 0x29C6, offset: 0xD072C, size: 0x8, addend: 0x0, symName: '__ZN84_$LT$core..str..pattern..MatchOnly$u20$as$u20$core..str..pattern..TwoWayStrategy$GT$8matching17h53a966f54b71b43eE', symObjAddr: 0x342C, symBinAddr: 0x2CB3C, symSize: 0x28 }
  - { offsetInCU: 0x2A03, offset: 0xD0769, size: 0x8, addend: 0x0, symName: '__ZN84_$LT$core..str..pattern..MatchOnly$u20$as$u20$core..str..pattern..TwoWayStrategy$GT$9rejecting17hd4a90ceeb11b4182E', symObjAddr: 0x3454, symBinAddr: 0x2CB64, symSize: 0x18 }
  - { offsetInCU: 0x2A46, offset: 0xD07AC, size: 0x8, addend: 0x0, symName: '__ZN87_$LT$core..str..pattern..StrSearcher$u20$as$u20$core..str..pattern..ReverseSearcher$GT$15next_match_back17h1d59b85ca0273dfbE', symObjAddr: 0x346C, symBinAddr: 0x2CB7C, symSize: 0x148 }
  - { offsetInCU: 0x2AD2, offset: 0xD0838, size: 0x8, addend: 0x0, symName: '__ZN87_$LT$core..str..pattern..StrSearcher$u20$as$u20$core..str..pattern..ReverseSearcher$GT$9next_back17hfdeac2f7923be3baE', symObjAddr: 0x35B4, symBinAddr: 0x2CCC4, symSize: 0x43C }
  - { offsetInCU: 0x2DBD, offset: 0xD0B23, size: 0x8, addend: 0x0, symName: '__ZN89_$LT$core..str..pattern..RejectAndMatch$u20$as$u20$core..str..pattern..TwoWayStrategy$GT$16use_early_reject17h878ea8e1207bdb74E', symObjAddr: 0x39F0, symBinAddr: 0x2D100, symSize: 0xC }
  - { offsetInCU: 0x2DDB, offset: 0xD0B41, size: 0x8, addend: 0x0, symName: '__ZN89_$LT$core..str..pattern..RejectAndMatch$u20$as$u20$core..str..pattern..TwoWayStrategy$GT$8matching17ha76cae766bb97ec2E', symObjAddr: 0x39FC, symBinAddr: 0x2D10C, symSize: 0x20 }
  - { offsetInCU: 0x2E18, offset: 0xD0B7E, size: 0x8, addend: 0x0, symName: '__ZN89_$LT$core..str..pattern..RejectAndMatch$u20$as$u20$core..str..pattern..TwoWayStrategy$GT$9rejecting17hcc63e3f76fb4d9bdE', symObjAddr: 0x3A1C, symBinAddr: 0x2D12C, symSize: 0x28 }
  - { offsetInCU: 0x31A4, offset: 0xD0F0A, size: 0x8, addend: 0x0, symName: __ZN4core9ub_checks23maybe_is_nonoverlapping7runtime17h002fb50fd643760bE, symObjAddr: 0x1CE4, symBinAddr: 0x2C284, symSize: 0xD8 }
  - { offsetInCU: 0x3C5E, offset: 0xD19C4, size: 0x8, addend: 0x0, symName: '__ZN5alloc11collections5btree8navigate263_$LT$impl$u20$alloc..collections..btree..node..Handle$LT$alloc..collections..btree..node..NodeRef$LT$alloc..collections..btree..node..marker..Dying$C$K$C$V$C$alloc..collections..btree..node..marker..Leaf$GT$$C$alloc..collections..btree..node..marker..Edge$GT$$GT$27deallocating_next_unchecked28_$u7b$$u7b$closure$u7d$$u7d$17h0cbff60777f513f2E', symObjAddr: 0x2018, symBinAddr: 0x2C3F4, symSize: 0x58 }
  - { offsetInCU: 0x42CC, offset: 0xD2032, size: 0x8, addend: 0x0, symName: __ZN4core3str7pattern14TwoWaySearcher9next_back17h7296745a8d3b626eE, symObjAddr: 0xE7C, symBinAddr: 0x2B7EC, symSize: 0x54C }
  - { offsetInCU: 0x465B, offset: 0xD23C1, size: 0x8, addend: 0x0, symName: __ZN4core3str7pattern14TwoWaySearcher9next_back17h7f9e8e9aedb7f51bE, symObjAddr: 0x13C8, symBinAddr: 0x2BD38, symSize: 0x54C }
  - { offsetInCU: 0x4C06, offset: 0xD296C, size: 0x8, addend: 0x0, symName: '__ZN5alloc11collections5btree8navigate39LazyLeafRange$LT$BorrowType$C$K$C$V$GT$10init_front17hc4c93bd81552c5d8E', symObjAddr: 0x2150, symBinAddr: 0x2C44C, symSize: 0x1C8 }
  - { offsetInCU: 0x4F04, offset: 0xD2C6A, size: 0x8, addend: 0x0, symName: '__ZN5alloc11collections5btree8navigate75LazyLeafRange$LT$alloc..collections..btree..node..marker..Dying$C$K$C$V$GT$10take_front17h1df4fe20b845e926E', symObjAddr: 0x24E0, symBinAddr: 0x2C614, symSize: 0x1C4 }
  - { offsetInCU: 0x50FB, offset: 0xD2E61, size: 0x8, addend: 0x0, symName: '__ZN5alloc11collections5btree8navigate75LazyLeafRange$LT$alloc..collections..btree..node..marker..Dying$C$K$C$V$GT$16deallocating_end17h03e0e54176eee069E', symObjAddr: 0x26A4, symBinAddr: 0x2C7D8, symSize: 0x98 }
  - { offsetInCU: 0x51C0, offset: 0xD2F26, size: 0x8, addend: 0x0, symName: '__ZN5alloc11collections5btree8navigate75LazyLeafRange$LT$alloc..collections..btree..node..marker..Dying$C$K$C$V$GT$27deallocating_next_unchecked17h68c740bb94c1ac95E', symObjAddr: 0x273C, symBinAddr: 0x2C870, symSize: 0xA8 }
  - { offsetInCU: 0x1E, offset: 0xD313D, size: 0x8, addend: 0x0, symName: '__ZN106_$LT$core..slice..iter..Iter$LT$T$GT$$u20$as$u20$core..iter..traits..double_ended..DoubleEndedIterator$GT$9next_back17h517e1001b02fbe6fE', symObjAddr: 0x0, symBinAddr: 0x2D154, symSize: 0x108 }
  - { offsetInCU: 0x2B9, offset: 0xD33D8, size: 0x8, addend: 0x0, symName: '__ZN106_$LT$core..slice..iter..Iter$LT$T$GT$$u20$as$u20$core..iter..traits..double_ended..DoubleEndedIterator$GT$9next_back17h517e1001b02fbe6fE', symObjAddr: 0x0, symBinAddr: 0x2D154, symSize: 0x108 }
  - { offsetInCU: 0x41B, offset: 0xD353A, size: 0x8, addend: 0x0, symName: '__ZN91_$LT$core..slice..iter..Iter$LT$T$GT$$u20$as$u20$core..iter..traits..iterator..Iterator$GT$4next17h36654704e992061eE', symObjAddr: 0x1568, symBinAddr: 0x2D9D0, symSize: 0xB0 }
  - { offsetInCU: 0x55B, offset: 0xD367A, size: 0x8, addend: 0x0, symName: '__ZN98_$LT$core..slice..iter..ChunksExact$LT$T$GT$$u20$as$u20$core..iter..traits..iterator..Iterator$GT$4next17h0774caa2c4048563E', symObjAddr: 0x17A8, symBinAddr: 0x2DA80, symSize: 0x140 }
  - { offsetInCU: 0x746, offset: 0xD3865, size: 0x8, addend: 0x0, symName: __ZN4core5slice3raw14from_raw_parts17h5e3fc12e020f8fd6E, symObjAddr: 0xAFC, symBinAddr: 0x2D590, symSize: 0x58 }
  - { offsetInCU: 0x78E, offset: 0xD38AD, size: 0x8, addend: 0x0, symName: __ZN4core5slice3raw14from_raw_parts18precondition_check17h5be2fe58b00af7c8E, symObjAddr: 0xB54, symBinAddr: 0x2D5E8, symSize: 0x1DC }
  - { offsetInCU: 0x912, offset: 0xD3A31, size: 0x8, addend: 0x0, symName: __ZN4core5slice3raw18from_raw_parts_mut18precondition_check17h100a5a637a3a756eE, symObjAddr: 0xD30, symBinAddr: 0x2D7C4, symSize: 0x1DC }
  - { offsetInCU: 0x1632, offset: 0xD4751, size: 0x8, addend: 0x0, symName: '__ZN110_$LT$core..iter..adapters..enumerate..Enumerate$LT$I$GT$$u20$as$u20$core..iter..traits..iterator..Iterator$GT$4next17h0e7b8760a44e2c41E', symObjAddr: 0x244, symBinAddr: 0x2D25C, symSize: 0xE0 }
  - { offsetInCU: 0x1750, offset: 0xD486F, size: 0x8, addend: 0x0, symName: '__ZN63_$LT$I$u20$as$u20$core..iter..traits..collect..IntoIterator$GT$9into_iter17he97da215a920fce5E', symObjAddr: 0x11C8, symBinAddr: 0x2D9A0, symSize: 0x30 }
  - { offsetInCU: 0x1796, offset: 0xD48B5, size: 0x8, addend: 0x0, symName: '__ZN4core3f6421_$LT$impl$u20$f64$GT$11is_infinite17h6051fb2938e3aa1cE', symObjAddr: 0x324, symBinAddr: 0x2D33C, symSize: 0x34 }
  - { offsetInCU: 0x17C4, offset: 0xD48E3, size: 0x8, addend: 0x0, symName: '__ZN4core3f6421_$LT$impl$u20$f64$GT$7to_bits17had4b84267ecfb2caE', symObjAddr: 0x358, symBinAddr: 0x2D370, symSize: 0x14 }
  - { offsetInCU: 0x1810, offset: 0xD492F, size: 0x8, addend: 0x0, symName: '__ZN4core3f6421_$LT$impl$u20$f64$GT$9is_finite17h0160769b6d30b26eE', symObjAddr: 0x41C, symBinAddr: 0x2D384, symSize: 0x2C }
  - { offsetInCU: 0x214A, offset: 0xD5269, size: 0x8, addend: 0x0, symName: '__ZN4core3str6traits108_$LT$impl$u20$core..slice..index..SliceIndex$LT$str$GT$$u20$for$u20$core..ops..range..Range$LT$usize$GT$$GT$13get_unchecked18precondition_check17h906dea5d856b2b37E', symObjAddr: 0x5D4, symBinAddr: 0x2D460, symSize: 0xCC }
  - { offsetInCU: 0x21C7, offset: 0xD52E6, size: 0x8, addend: 0x0, symName: '__ZN4core3str6traits54_$LT$impl$u20$core..cmp..PartialEq$u20$for$u20$str$GT$2eq17h7c70ad2fb673e7d2E', symObjAddr: 0x794, symBinAddr: 0x2D52C, symSize: 0x64 }
  - { offsetInCU: 0x2449, offset: 0xD5568, size: 0x8, addend: 0x0, symName: __ZN10serde_json4read4HEX017ha7026b4f9d197537E, symObjAddr: 0x7460, symBinAddr: 0xB8E0E, symSize: 0x0 }
  - { offsetInCU: 0x2464, offset: 0xD5583, size: 0x8, addend: 0x0, symName: __ZN10serde_json4read4HEX117h58825a1d72156296E, symObjAddr: 0x7660, symBinAddr: 0xB900E, symSize: 0x0 }
  - { offsetInCU: 0x247B, offset: 0xD559A, size: 0x8, addend: 0x0, symName: __ZN10serde_json4read9Reference8Borrowed17h06cf2ddec8ecda6dE, symObjAddr: 0x2A0C, symBinAddr: 0x2DBC0, symSize: 0x24 }
  - { offsetInCU: 0x24B2, offset: 0xD55D1, size: 0x8, addend: 0x0, symName: __ZN10serde_json4read9Reference6Copied17ha203becbf5545352E, symObjAddr: 0x2A54, symBinAddr: 0x2DBE4, symSize: 0x2C }
  - { offsetInCU: 0x24EA, offset: 0xD5609, size: 0x8, addend: 0x0, symName: '__ZN80_$LT$serde_json..read..Reference$LT$T$GT$$u20$as$u20$core..ops..deref..Deref$GT$5deref17ha65d784849381953E', symObjAddr: 0x2AAC, symBinAddr: 0x2DC10, symSize: 0x6C }
  - { offsetInCU: 0x26AD, offset: 0xD57CC, size: 0x8, addend: 0x0, symName: '__ZN70_$LT$serde_json..read..SliceRead$u20$as$u20$serde_json..read..Read$GT$4next17h49612cd171b67647E', symObjAddr: 0x468C, symBinAddr: 0x2E9F0, symSize: 0xF4 }
  - { offsetInCU: 0x26F1, offset: 0xD5810, size: 0x8, addend: 0x0, symName: '__ZN70_$LT$serde_json..read..SliceRead$u20$as$u20$serde_json..read..Read$GT$4peek17hff1561e4ea7c6a6aE', symObjAddr: 0x4780, symBinAddr: 0x2EAE4, symSize: 0xB8 }
  - { offsetInCU: 0x271F, offset: 0xD583E, size: 0x8, addend: 0x0, symName: '__ZN70_$LT$serde_json..read..SliceRead$u20$as$u20$serde_json..read..Read$GT$7discard17hd9983fe34a9d109eE', symObjAddr: 0x4838, symBinAddr: 0x2EB9C, symSize: 0x54 }
  - { offsetInCU: 0x2749, offset: 0xD5868, size: 0x8, addend: 0x0, symName: '__ZN70_$LT$serde_json..read..SliceRead$u20$as$u20$serde_json..read..Read$GT$8position17h4c912a4c95be36c8E', symObjAddr: 0x488C, symBinAddr: 0x2EBF0, symSize: 0x28 }
  - { offsetInCU: 0x2777, offset: 0xD5896, size: 0x8, addend: 0x0, symName: '__ZN70_$LT$serde_json..read..SliceRead$u20$as$u20$serde_json..read..Read$GT$13peek_position17hb92218ea823ac0e3E', symObjAddr: 0x48B4, symBinAddr: 0x2EC18, symSize: 0x68 }
  - { offsetInCU: 0x27A5, offset: 0xD58C4, size: 0x8, addend: 0x0, symName: '__ZN70_$LT$serde_json..read..SliceRead$u20$as$u20$serde_json..read..Read$GT$10ignore_str17ha7381c6e5ba1b30eE', symObjAddr: 0x49C0, symBinAddr: 0x2EC80, symSize: 0x190 }
  - { offsetInCU: 0x27F1, offset: 0xD5910, size: 0x8, addend: 0x0, symName: '__ZN70_$LT$serde_json..read..SliceRead$u20$as$u20$serde_json..read..Read$GT$17decode_hex_escape17hd2e9ad7cf2114e32E', symObjAddr: 0x4B50, symBinAddr: 0x2EE10, symSize: 0x14C }
  - { offsetInCU: 0x2997, offset: 0xD5AB6, size: 0x8, addend: 0x0, symName: '__ZN68_$LT$serde_json..read..StrRead$u20$as$u20$serde_json..read..Read$GT$9parse_str28_$u7b$$u7b$closure$u7d$$u7d$17h2906f948f60ad150E', symObjAddr: 0x4DF8, symBinAddr: 0x2F094, symSize: 0x48 }
  - { offsetInCU: 0x29DC, offset: 0xD5AFB, size: 0x8, addend: 0x0, symName: '__ZN68_$LT$serde_json..read..StrRead$u20$as$u20$serde_json..read..Read$GT$4next17h83d6549b455c9228E', symObjAddr: 0x4CEC, symBinAddr: 0x2EFAC, symSize: 0x24 }
  - { offsetInCU: 0x2A0A, offset: 0xD5B29, size: 0x8, addend: 0x0, symName: '__ZN68_$LT$serde_json..read..StrRead$u20$as$u20$serde_json..read..Read$GT$4peek17h7d5e673e7f7e5049E', symObjAddr: 0x4D10, symBinAddr: 0x2EFD0, symSize: 0x24 }
  - { offsetInCU: 0x2A38, offset: 0xD5B57, size: 0x8, addend: 0x0, symName: '__ZN68_$LT$serde_json..read..StrRead$u20$as$u20$serde_json..read..Read$GT$7discard17h34fe3e156d66f5bfE', symObjAddr: 0x4D34, symBinAddr: 0x2EFF4, symSize: 0x24 }
  - { offsetInCU: 0x2A62, offset: 0xD5B81, size: 0x8, addend: 0x0, symName: '__ZN68_$LT$serde_json..read..StrRead$u20$as$u20$serde_json..read..Read$GT$8position17hdefc9b47c27c3284E', symObjAddr: 0x4D58, symBinAddr: 0x2F018, symSize: 0x24 }
  - { offsetInCU: 0x2A90, offset: 0xD5BAF, size: 0x8, addend: 0x0, symName: '__ZN68_$LT$serde_json..read..StrRead$u20$as$u20$serde_json..read..Read$GT$13peek_position17hc8fd5f8865ec5a57E', symObjAddr: 0x4D7C, symBinAddr: 0x2F03C, symSize: 0x24 }
  - { offsetInCU: 0x2ABE, offset: 0xD5BDD, size: 0x8, addend: 0x0, symName: '__ZN68_$LT$serde_json..read..StrRead$u20$as$u20$serde_json..read..Read$GT$9parse_str17hcea3f121d5c49c0eE', symObjAddr: 0x4DC4, symBinAddr: 0x2F060, symSize: 0x34 }
  - { offsetInCU: 0x2AFB, offset: 0xD5C1A, size: 0x8, addend: 0x0, symName: '__ZN68_$LT$serde_json..read..StrRead$u20$as$u20$serde_json..read..Read$GT$10ignore_str17h77f9e954498f6b4fE', symObjAddr: 0x4E6C, symBinAddr: 0x2F0DC, symSize: 0x24 }
  - { offsetInCU: 0x2B55, offset: 0xD5C74, size: 0x8, addend: 0x0, symName: __ZN10serde_json4read9is_escape17hbc4b68483e878379E, symObjAddr: 0x4EB4, symBinAddr: 0x2F100, symSize: 0x80 }
  - { offsetInCU: 0x2B92, offset: 0xD5CB1, size: 0x8, addend: 0x0, symName: __ZN10serde_json4read11next_or_eof17hfd67cf092e3dfdaaE, symObjAddr: 0x4F34, symBinAddr: 0x2F180, symSize: 0xB0 }
  - { offsetInCU: 0x2C05, offset: 0xD5D24, size: 0x8, addend: 0x0, symName: __ZN10serde_json4read11peek_or_eof17h15c350b015c255ecE, symObjAddr: 0x4FE4, symBinAddr: 0x2F230, symSize: 0xB0 }
  - { offsetInCU: 0x2C78, offset: 0xD5D97, size: 0x8, addend: 0x0, symName: __ZN10serde_json4read5error17h5a029157d773ad83E, symObjAddr: 0x5094, symBinAddr: 0x2F2E0, symSize: 0xB8 }
  - { offsetInCU: 0x2CE6, offset: 0xD5E05, size: 0x8, addend: 0x0, symName: __ZN10serde_json4read5error17h6ea9b6a8d951ae04E, symObjAddr: 0x514C, symBinAddr: 0x2F398, symSize: 0xC4 }
  - { offsetInCU: 0x2D54, offset: 0xD5E73, size: 0x8, addend: 0x0, symName: __ZN10serde_json4read5error17h8c7dd94c27c5f2a0E, symObjAddr: 0x52D4, symBinAddr: 0x2F45C, symSize: 0xC4 }
  - { offsetInCU: 0x2DC2, offset: 0xD5EE1, size: 0x8, addend: 0x0, symName: __ZN10serde_json4read5error17hcf8e1edf31d0aa52E, symObjAddr: 0x5458, symBinAddr: 0x2F520, symSize: 0xC4 }
  - { offsetInCU: 0x2E30, offset: 0xD5F4F, size: 0x8, addend: 0x0, symName: __ZN10serde_json4read12parse_escape17h68081d12d5425302E, symObjAddr: 0x55A4, symBinAddr: 0x2F5E4, symSize: 0x1F0 }
  - { offsetInCU: 0x2EC1, offset: 0xD5FE0, size: 0x8, addend: 0x0, symName: __ZN10serde_json4read20parse_unicode_escape17hb2b2cf7c6fe1c142E, symObjAddr: 0x5794, symBinAddr: 0xA5184, symSize: 0x3C0 }
  - { offsetInCU: 0x3010, offset: 0xD612F, size: 0x8, addend: 0x0, symName: __ZN10serde_json4read19push_wtf8_codepoint17h5631bdbbd4ca5705E, symObjAddr: 0x5B54, symBinAddr: 0x2F7D4, symSize: 0x32C }
  - { offsetInCU: 0x332F, offset: 0xD644E, size: 0x8, addend: 0x0, symName: __ZN10serde_json4read13ignore_escape17h58feb850530099c1E, symObjAddr: 0x5E80, symBinAddr: 0x2FB00, symSize: 0x144 }
  - { offsetInCU: 0x33B8, offset: 0xD64D7, size: 0x8, addend: 0x0, symName: __ZN10serde_json4read22decode_four_hex_digits17h98689954809a898eE, symObjAddr: 0x5FC4, symBinAddr: 0x2FC44, symSize: 0x1A8 }
  - { offsetInCU: 0x438C, offset: 0xD74AB, size: 0x8, addend: 0x0, symName: __ZN4core3fmt2rt8Argument11new_display17h7552080e6bdc7fd1E, symObjAddr: 0x4CC, symBinAddr: 0x2D3B0, symSize: 0x2C }
  - { offsetInCU: 0x4426, offset: 0xD7545, size: 0x8, addend: 0x0, symName: __ZN4core3fmt2rt8Argument11new_display17hc6d24aa7562f1d5aE, symObjAddr: 0x524, symBinAddr: 0x2D3DC, symSize: 0x2C }
  - { offsetInCU: 0x44E5, offset: 0xD7604, size: 0x8, addend: 0x0, symName: __ZN4core3fmt2rt8Argument11new_display17hf69e07350419ef0cE, symObjAddr: 0x550, symBinAddr: 0x2D408, symSize: 0x2C }
  - { offsetInCU: 0x4510, offset: 0xD762F, size: 0x8, addend: 0x0, symName: __ZN4core3fmt2rt8Argument9new_debug17h43f4c149cfbb9787E, symObjAddr: 0x57C, symBinAddr: 0x2D434, symSize: 0x2C }
  - { offsetInCU: 0x46FD, offset: 0xD781C, size: 0x8, addend: 0x0, symName: __ZN10serde_json4read9SliceRead3new17h19016b3292a5ecadE, symObjAddr: 0x2B18, symBinAddr: 0x2DC7C, symSize: 0x24 }
  - { offsetInCU: 0x472D, offset: 0xD784C, size: 0x8, addend: 0x0, symName: __ZN10serde_json4read9SliceRead17position_of_index17hc3c1915a4033fe72E, symObjAddr: 0x2B3C, symBinAddr: 0x2DCA0, symSize: 0x204 }
  - { offsetInCU: 0x4961, offset: 0xD7A80, size: 0x8, addend: 0x0, symName: __ZN10serde_json4read9SliceRead14skip_to_escape17h52194b977291b78aE, symObjAddr: 0x2D40, symBinAddr: 0x2DEA4, symSize: 0x4B4 }
  - { offsetInCU: 0x4B6E, offset: 0xD7C8D, size: 0x8, addend: 0x0, symName: __ZN10serde_json4read9SliceRead19skip_to_escape_slow17hcaa06c94bdd14e4aE, symObjAddr: 0x31F4, symBinAddr: 0xA50B4, symSize: 0xD0 }
  - { offsetInCU: 0x4BC8, offset: 0xD7CE7, size: 0x8, addend: 0x0, symName: __ZN10serde_json4read9SliceRead15parse_str_bytes17he8262154c3884ed0E, symObjAddr: 0x3FF4, symBinAddr: 0x2E358, symSize: 0x698 }
  - { offsetInCU: 0x4EA1, offset: 0xD7FC0, size: 0x8, addend: 0x0, symName: __ZN10serde_json4read7StrRead3new17hc558c45959e47cbaE, symObjAddr: 0x4C9C, symBinAddr: 0x2EF5C, symSize: 0x50 }
  - { offsetInCU: 0x1E, offset: 0xD8071, size: 0x8, addend: 0x0, symName: '__ZN10serde_core2de5impls79_$LT$impl$u20$serde_core..de..Deserialize$u20$for$u20$alloc..string..String$GT$11deserialize17h6add89233ac13067E', symObjAddr: 0x0, symBinAddr: 0x2FDEC, symSize: 0x24 }
  - { offsetInCU: 0x15A, offset: 0xD81AD, size: 0x8, addend: 0x0, symName: '__ZN56_$LT$alloc..string..String$u20$as$u20$core..cmp..Ord$GT$3cmp17hff7262acd2cf3ac0E', symObjAddr: 0x1D94, symBinAddr: 0x30F70, symSize: 0x2C }
  - { offsetInCU: 0x1D9, offset: 0xD822C, size: 0x8, addend: 0x0, symName: '__ZN65_$LT$alloc..string..String$u20$as$u20$core..ops..deref..Deref$GT$5deref17h3bbb87e8a3d35e15E', symObjAddr: 0x2EF0, symBinAddr: 0x318A4, symSize: 0x24 }
  - { offsetInCU: 0x20D, offset: 0xD8260, size: 0x8, addend: 0x0, symName: '__ZN58_$LT$alloc..string..String$u20$as$u20$core..fmt..Debug$GT$3fmt17h5cc8dcd3cc815a3aE', symObjAddr: 0x1DC0, symBinAddr: 0x30F9C, symSize: 0x88 }
  - { offsetInCU: 0x372, offset: 0xD83C5, size: 0x8, addend: 0x0, symName: '__ZN58_$LT$alloc..string..String$u20$as$u20$core..fmt..Write$GT$10write_char17hee649ddbb19f48d6E', symObjAddr: 0x1E48, symBinAddr: 0x31024, symSize: 0x38 }
  - { offsetInCU: 0x3AF, offset: 0xD8402, size: 0x8, addend: 0x0, symName: '__ZN58_$LT$alloc..string..String$u20$as$u20$core..fmt..Write$GT$9write_str17h31cf9757cab65596E', symObjAddr: 0x1E80, symBinAddr: 0x3105C, symSize: 0x40 }
  - { offsetInCU: 0x3F2, offset: 0xD8445, size: 0x8, addend: 0x0, symName: '__ZN74_$LT$alloc..string..String$u20$as$u20$core..ops..index..Index$LT$I$GT$$GT$5index17h62dc1a8ddd162f08E', symObjAddr: 0x37B8, symBinAddr: 0x31D10, symSize: 0x9C }
  - { offsetInCU: 0x53C, offset: 0xD858F, size: 0x8, addend: 0x0, symName: '__ZN74_$LT$alloc..string..String$u20$as$u20$core..ops..index..Index$LT$I$GT$$GT$5index17hcf09483186706da9E', symObjAddr: 0x3854, symBinAddr: 0x31DAC, symSize: 0x90 }
  - { offsetInCU: 0x68C, offset: 0xD86DF, size: 0x8, addend: 0x0, symName: '__ZN76_$LT$alloc..string..String$u20$as$u20$core..convert..From$LT$$RF$str$GT$$GT$4from17h5289beac6c633f00E', symObjAddr: 0x3B54, symBinAddr: 0x31F9C, symSize: 0x50 }
  - { offsetInCU: 0xC41, offset: 0xD8C94, size: 0x8, addend: 0x0, symName: '__ZN5alloc3str56_$LT$impl$u20$alloc..borrow..ToOwned$u20$for$u20$str$GT$8to_owned17h4f6e6c405e1c16a5E', symObjAddr: 0x2648, symBinAddr: 0x3109C, symSize: 0x50 }
  - { offsetInCU: 0xE21, offset: 0xD8E74, size: 0x8, addend: 0x0, symName: '__ZN87_$LT$T$u20$as$u20$alloc..slice..$LT$impl$u20$$u5b$T$u5d$$GT$..to_vec_in..ConvertVec$GT$6to_vec17h0aebe497e793b568E', symObjAddr: 0x3C00, symBinAddr: 0x32048, symSize: 0xE0 }
  - { offsetInCU: 0x1052, offset: 0xD90A5, size: 0x8, addend: 0x0, symName: '__ZN5alloc5boxed16Box$LT$T$C$A$GT$13new_uninit_in17h33242f62100f60d7E', symObjAddr: 0x26C4, symBinAddr: 0x310EC, symSize: 0x98 }
  - { offsetInCU: 0x1146, offset: 0xD9199, size: 0x8, addend: 0x0, symName: '__ZN5alloc5boxed16Box$LT$T$C$A$GT$13new_uninit_in17hac3dbdfda78d99b7E', symObjAddr: 0x275C, symBinAddr: 0x31184, symSize: 0x98 }
  - { offsetInCU: 0x123A, offset: 0xD928D, size: 0x8, addend: 0x0, symName: '__ZN5alloc5boxed16Box$LT$T$C$A$GT$17try_new_uninit_in17h975207a44339d3cdE', symObjAddr: 0x27F4, symBinAddr: 0x3121C, symSize: 0x13C }
  - { offsetInCU: 0x146A, offset: 0xD94BD, size: 0x8, addend: 0x0, symName: '__ZN5alloc5boxed16Box$LT$T$C$A$GT$17try_new_uninit_in17hc057ae56c0b72079E', symObjAddr: 0x2930, symBinAddr: 0x31358, symSize: 0x13C }
  - { offsetInCU: 0x1788, offset: 0xD97DB, size: 0x8, addend: 0x0, symName: '__ZN72_$LT$alloc..boxed..Box$LT$T$C$A$GT$$u20$as$u20$core..ops..drop..Drop$GT$4drop17h713f8f2b96fde0fdE', symObjAddr: 0x3388, symBinAddr: 0x31964, symSize: 0xB8 }
  - { offsetInCU: 0x18BF, offset: 0xD9912, size: 0x8, addend: 0x0, symName: '__ZN72_$LT$alloc..boxed..Box$LT$T$C$A$GT$$u20$as$u20$core..ops..drop..Drop$GT$4drop17hb3e710e7229a3809E', symObjAddr: 0x3440, symBinAddr: 0x31A1C, symSize: 0xCC }
  - { offsetInCU: 0x19F6, offset: 0xD9A49, size: 0x8, addend: 0x0, symName: '__ZN72_$LT$alloc..boxed..Box$LT$T$C$A$GT$$u20$as$u20$core..ops..drop..Drop$GT$4drop17hb6a3dc1b4d26d315E', symObjAddr: 0x350C, symBinAddr: 0x31AE8, symSize: 0xB8 }
  - { offsetInCU: 0x1B2D, offset: 0xD9B80, size: 0x8, addend: 0x0, symName: '__ZN72_$LT$alloc..boxed..Box$LT$T$C$A$GT$$u20$as$u20$core..ops..drop..Drop$GT$4drop17hd4ebc01c822f123fE', symObjAddr: 0x35C4, symBinAddr: 0x31BA0, symSize: 0xB8 }
  - { offsetInCU: 0x1C64, offset: 0xD9CB7, size: 0x8, addend: 0x0, symName: '__ZN72_$LT$alloc..boxed..Box$LT$T$C$A$GT$$u20$as$u20$core..ops..drop..Drop$GT$4drop17hf39a8c1821174443E', symObjAddr: 0x367C, symBinAddr: 0x31C58, symSize: 0xB8 }
  - { offsetInCU: 0x270C, offset: 0xDA75F, size: 0x8, addend: 0x0, symName: '__ZN4core3ptr9const_ptr33_$LT$impl$u20$$BP$const$u20$T$GT$6offset18precondition_check17h4ccdb060be2d5c95E', symObjAddr: 0xEC4, symBinAddr: 0x30718, symSize: 0x10C }
  - { offsetInCU: 0x2E13, offset: 0xDAE66, size: 0x8, addend: 0x0, symName: '__ZN4core3num21_$LT$impl$u20$i32$GT$12wrapping_abs17ha81cd369a2df0ffaE', symObjAddr: 0x490, symBinAddr: 0x2FE58, symSize: 0x40 }
  - { offsetInCU: 0x2E8B, offset: 0xDAEDE, size: 0x8, addend: 0x0, symName: '__ZN4core3num21_$LT$impl$u20$u64$GT$13from_le_bytes17h5d99fc121df7b3f9E', symObjAddr: 0x510, symBinAddr: 0x2FE98, symSize: 0x1C }
  - { offsetInCU: 0x2EF7, offset: 0xDAF4A, size: 0x8, addend: 0x0, symName: '__ZN4core3num23_$LT$impl$u20$isize$GT$13unchecked_neg18precondition_check17hff331f646fe3a41eE', symObjAddr: 0x5B4, symBinAddr: 0x2FEB4, symSize: 0xB8 }
  - { offsetInCU: 0x3033, offset: 0xDB086, size: 0x8, addend: 0x0, symName: '__ZN4core3num23_$LT$impl$u20$usize$GT$13unchecked_add18precondition_check17h83e8759cd52d9615E', symObjAddr: 0x66C, symBinAddr: 0x2FF6C, symSize: 0xB0 }
  - { offsetInCU: 0x30F1, offset: 0xDB144, size: 0x8, addend: 0x0, symName: '__ZN4core3num23_$LT$impl$u20$usize$GT$13unchecked_mul18precondition_check17h8b8cc001ba1e17c4E', symObjAddr: 0x71C, symBinAddr: 0x3001C, symSize: 0xAC }
  - { offsetInCU: 0x3185, offset: 0xDB1D8, size: 0x8, addend: 0x0, symName: '__ZN4core3num23_$LT$impl$u20$usize$GT$13unchecked_sub18precondition_check17h40e545b798232c6cE', symObjAddr: 0x7C8, symBinAddr: 0x300C8, symSize: 0xAC }
  - { offsetInCU: 0x3325, offset: 0xDB378, size: 0x8, addend: 0x0, symName: '__ZN4core3num23_$LT$impl$u20$usize$GT$16from_ascii_radix17h729092cd72a44774E', symObjAddr: 0x874, symBinAddr: 0x30174, symSize: 0x574 }
  - { offsetInCU: 0x359A, offset: 0xDB5ED, size: 0x8, addend: 0x0, symName: '__ZN4core3num62_$LT$impl$u20$core..str..traits..FromStr$u20$for$u20$usize$GT$8from_str17h287fccb270bc1bd9E', symObjAddr: 0xDE8, symBinAddr: 0x306E8, symSize: 0x30 }
  - { offsetInCU: 0x3C99, offset: 0xDBCEC, size: 0x8, addend: 0x0, symName: '__ZN70_$LT$core..option..Option$LT$T$GT$$u20$as$u20$core..cmp..PartialEq$GT$2eq17ha486441efa67f055E', symObjAddr: 0x3250, symBinAddr: 0x318C8, symSize: 0x9C }
  - { offsetInCU: 0x4151, offset: 0xDC1A4, size: 0x8, addend: 0x0, symName: __ZN4core3fmt5Write9write_fmt17h9ffbdd9cdabda588E, symObjAddr: 0x1D4, symBinAddr: 0x2FE34, symSize: 0x24 }
  - { offsetInCU: 0x419F, offset: 0xDC1F2, size: 0x8, addend: 0x0, symName: '__ZN75_$LT$$RF$mut$u20$W$u20$as$u20$core..fmt..Write..write_fmt..SpecWriteFmt$GT$14spec_write_fmt17h67a63f68fcd5f402E', symObjAddr: 0x38E4, symBinAddr: 0x31E3C, symSize: 0x160 }
  - { offsetInCU: 0x4473, offset: 0xDC4C6, size: 0x8, addend: 0x0, symName: '__ZN153_$LT$core..result..Result$LT$T$C$F$GT$$u20$as$u20$core..ops..try_trait..FromResidual$LT$core..result..Result$LT$core..convert..Infallible$C$E$GT$$GT$$GT$13from_residual17h00179cb6c39061faE', symObjAddr: 0x180, symBinAddr: 0x2FE10, symSize: 0x24 }
  - { offsetInCU: 0x4C31, offset: 0xDCC84, size: 0x8, addend: 0x0, symName: '__ZN79_$LT$core..result..Result$LT$T$C$E$GT$$u20$as$u20$core..ops..try_trait..Try$GT$11from_output17hf339fdf7879187c0E', symObjAddr: 0x3BA4, symBinAddr: 0x31FEC, symSize: 0x14 }
  - { offsetInCU: 0x4C71, offset: 0xDCCC4, size: 0x8, addend: 0x0, symName: '__ZN79_$LT$core..result..Result$LT$T$C$E$GT$$u20$as$u20$core..ops..try_trait..Try$GT$6branch17h2fdd56ed542102afE', symObjAddr: 0x3BB8, symBinAddr: 0x32000, symSize: 0x48 }
  - { offsetInCU: 0x52A2, offset: 0xDD2F5, size: 0x8, addend: 0x0, symName: __ZN4core4char7convert18from_u32_unchecked18precondition_check17hb4178b4975548b63E, symObjAddr: 0xFD0, symBinAddr: 0x30824, symSize: 0x104 }
  - { offsetInCU: 0x53A8, offset: 0xDD3FB, size: 0x8, addend: 0x0, symName: __ZN4core4hint16assert_unchecked18precondition_check17hba6dc25d053e3b75E, symObjAddr: 0x10D4, symBinAddr: 0x30928, symSize: 0xA4 }
  - { offsetInCU: 0x5408, offset: 0xDD45B, size: 0x8, addend: 0x0, symName: __ZN4core4hint21unreachable_unchecked18precondition_check17hfcd7d99c6d9794f8E, symObjAddr: 0x1188, symBinAddr: 0x309CC, symSize: 0x84 }
  - { offsetInCU: 0x56B5, offset: 0xDD708, size: 0x8, addend: 0x0, symName: '__ZN50_$LT$T$u20$as$u20$core..convert..Into$LT$U$GT$$GT$4into17h0407d6394db409d5E', symObjAddr: 0x1C00, symBinAddr: 0x30EF4, symSize: 0x20 }
  - { offsetInCU: 0x56F5, offset: 0xDD748, size: 0x8, addend: 0x0, symName: '__ZN50_$LT$T$u20$as$u20$core..convert..Into$LT$U$GT$$GT$4into17h9c31570f0b1fd4e7E', symObjAddr: 0x1CF8, symBinAddr: 0x30F14, symSize: 0x20 }
  - { offsetInCU: 0x573B, offset: 0xDD78E, size: 0x8, addend: 0x0, symName: '__ZN53_$LT$T$u20$as$u20$core..convert..TryInto$LT$U$GT$$GT$8try_into17h6c11a8811bc5b9a1E', symObjAddr: 0x1D6C, symBinAddr: 0x30F48, symSize: 0x28 }
  - { offsetInCU: 0x5791, offset: 0xDD7E4, size: 0x8, addend: 0x0, symName: '__ZN51_$LT$T$u20$as$u20$core..borrow..Borrow$LT$T$GT$$GT$6borrow17h7e9251815cb1953bE', symObjAddr: 0x1D58, symBinAddr: 0x30F34, symSize: 0x14 }
  - { offsetInCU: 0x64A0, offset: 0xDE4F3, size: 0x8, addend: 0x0, symName: '__ZN10serde_core2de5impls79_$LT$impl$u20$serde_core..de..Deserialize$u20$for$u20$alloc..string..String$GT$11deserialize17h6add89233ac13067E', symObjAddr: 0x0, symBinAddr: 0x2FDEC, symSize: 0x24 }
  - { offsetInCU: 0x674D, offset: 0xDE7A0, size: 0x8, addend: 0x0, symName: '__ZN4core6option15Option$LT$T$GT$11map_or_else17h84a5eb7d6522a77eE', symObjAddr: 0x120C, symBinAddr: 0x30A50, symSize: 0xCC }
  - { offsetInCU: 0x681C, offset: 0xDE86F, size: 0x8, addend: 0x0, symName: '__ZN4core6option15Option$LT$T$GT$6map_or17h641f33719137b76eE', symObjAddr: 0x1340, symBinAddr: 0x30B1C, symSize: 0xD0 }
  - { offsetInCU: 0x68DD, offset: 0xDE930, size: 0x8, addend: 0x0, symName: '__ZN4core6option15Option$LT$T$GT$9unwrap_or17haeb24b4e12d325d9E', symObjAddr: 0x1584, symBinAddr: 0x30BEC, symSize: 0x68 }
  - { offsetInCU: 0x6938, offset: 0xDE98B, size: 0x8, addend: 0x0, symName: '__ZN4core6option15Option$LT$T$GT$9unwrap_or17hbdec70065bf4ff63E', symObjAddr: 0x15EC, symBinAddr: 0x30C54, symSize: 0x48 }
  - { offsetInCU: 0x69A9, offset: 0xDE9FC, size: 0x8, addend: 0x0, symName: '__ZN4core6result19Result$LT$T$C$E$GT$3map17h2cdf73c7960625d4E', symObjAddr: 0x1690, symBinAddr: 0x30C9C, symSize: 0x8C }
  - { offsetInCU: 0x6A3C, offset: 0xDEA8F, size: 0x8, addend: 0x0, symName: '__ZN4core6result19Result$LT$T$C$E$GT$3map17h673004b2cea21920E', symObjAddr: 0x17A8, symBinAddr: 0x30D28, symSize: 0x8C }
  - { offsetInCU: 0x6ACF, offset: 0xDEB22, size: 0x8, addend: 0x0, symName: '__ZN4core6result19Result$LT$T$C$E$GT$6expect17h097a55176faff927E', symObjAddr: 0x1948, symBinAddr: 0x30DB4, symSize: 0x80 }
  - { offsetInCU: 0x6B61, offset: 0xDEBB4, size: 0x8, addend: 0x0, symName: '__ZN4core6result19Result$LT$T$C$E$GT$7map_err17hbf316ee7e1566f9eE', symObjAddr: 0x1A68, symBinAddr: 0x30E34, symSize: 0x50 }
  - { offsetInCU: 0x6BF3, offset: 0xDEC46, size: 0x8, addend: 0x0, symName: '__ZN4core6result19Result$LT$T$C$E$GT$9unwrap_or17h7758b0043d3b5115E', symObjAddr: 0x1B90, symBinAddr: 0x30E84, symSize: 0x70 }
  - { offsetInCU: 0x709D, offset: 0xDF0F0, size: 0x8, addend: 0x0, symName: __ZN5alloc6string6String14into_boxed_str17haa54399987210d69E, symObjAddr: 0x2AE0, symBinAddr: 0x31494, symSize: 0x7C }
  - { offsetInCU: 0x7195, offset: 0xDF1E8, size: 0x8, addend: 0x0, symName: __ZN5alloc6string6String3len17h2049ec86c73e1573E, symObjAddr: 0x2B5C, symBinAddr: 0x31510, symSize: 0x18 }
  - { offsetInCU: 0x72C9, offset: 0xDF31C, size: 0x8, addend: 0x0, symName: __ZN5alloc6string6String4push17hd4c49bc5134aad35E, symObjAddr: 0x2B74, symBinAddr: 0x31528, symSize: 0xF8 }
  - { offsetInCU: 0x7556, offset: 0xDF5A9, size: 0x8, addend: 0x0, symName: __ZN5alloc6string6String6as_str17hd18ce08a12f5dcccE, symObjAddr: 0x2C6C, symBinAddr: 0x31620, symSize: 0x78 }
  - { offsetInCU: 0x7732, offset: 0xDF785, size: 0x8, addend: 0x0, symName: __ZN5alloc6string6String8push_str17he5c206be38285c55E, symObjAddr: 0x2CE4, symBinAddr: 0x31698, symSize: 0x58 }
  - { offsetInCU: 0x7A02, offset: 0xDFA55, size: 0x8, addend: 0x0, symName: __ZN5alloc6string6String8truncate17he7f585f15456cbd2E, symObjAddr: 0x2D3C, symBinAddr: 0x316F0, symSize: 0x1B4 }
  - { offsetInCU: 0x59F, offset: 0xE093D, size: 0x8, addend: 0x0, symName: '__ZN72_$LT$alloc..vec..Vec$LT$T$C$A$GT$$u20$as$u20$core..ops..deref..Deref$GT$5deref17hfcc9a9b6c7e785e5E', symObjAddr: 0x281C, symBinAddr: 0x32C60, symSize: 0x24 }
  - { offsetInCU: 0x5E5, offset: 0xE0983, size: 0x8, addend: 0x0, symName: '__ZN63_$LT$alloc..vec..Vec$LT$T$C$A$GT$$u20$as$u20$core..cmp..Ord$GT$3cmp17he06373602ec52d87E', symObjAddr: 0x2668, symBinAddr: 0x32B4C, symSize: 0xDC }
  - { offsetInCU: 0x874, offset: 0xE0C12, size: 0x8, addend: 0x0, symName: '__ZN70_$LT$alloc..vec..Vec$LT$T$C$A$GT$$u20$as$u20$core..ops..drop..Drop$GT$4drop17h44eab51de6ba5b07E', symObjAddr: 0x27C0, symBinAddr: 0x32C28, symSize: 0x38 }
  - { offsetInCU: 0x217C, offset: 0xE251A, size: 0x8, addend: 0x0, symName: '__ZN48_$LT$A$u20$as$u20$core..slice..cmp..SliceOrd$GT$7compare17hba8306e20c057dc4E', symObjAddr: 0x6F8, symBinAddr: 0x32128, symSize: 0xEC }
  - { offsetInCU: 0x2468, offset: 0xE2806, size: 0x8, addend: 0x0, symName: __ZN4core3str11validations23next_code_point_reverse17h3d56ae309937d4e5E, symObjAddr: 0x8D8, symBinAddr: 0x32214, symSize: 0x244 }
  - { offsetInCU: 0x27E7, offset: 0xE2B85, size: 0x8, addend: 0x0, symName: __ZN4core5alloc6layout6Layout25from_size_align_unchecked18precondition_check17h05406a62a3d27238E, symObjAddr: 0x1414, symBinAddr: 0x32458, symSize: 0xBC }
  - { offsetInCU: 0x28E8, offset: 0xE2C86, size: 0x8, addend: 0x0, symName: __ZN4core9core_arch10arm_shared4neon9generated10vdupq_n_u817hffbe91e78e58389fE, symObjAddr: 0x19F4, symBinAddr: 0x32514, symSize: 0x2C }
  - { offsetInCU: 0x294A, offset: 0xE2CE8, size: 0x8, addend: 0x0, symName: __ZN4core9core_arch10arm_shared4neon9generated19vreinterpret_u64_u817h82e858b64388c326E, symObjAddr: 0x1A20, symBinAddr: 0x32540, symSize: 0xC }
  - { offsetInCU: 0x2978, offset: 0xE2D16, size: 0x8, addend: 0x0, symName: __ZN4core9core_arch10arm_shared4neon9generated20vreinterpretq_u16_u817h141b1776d8459ea2E, symObjAddr: 0x1A2C, symBinAddr: 0x3254C, symSize: 0xC }
  - { offsetInCU: 0x29A6, offset: 0xE2D44, size: 0x8, addend: 0x0, symName: __ZN4core9core_arch10arm_shared4neon9generated20vreinterpretq_u64_u817h1abd12113b6328e9E, symObjAddr: 0x1A38, symBinAddr: 0x32558, symSize: 0xC }
  - { offsetInCU: 0x29D4, offset: 0xE2D72, size: 0x8, addend: 0x0, symName: __ZN4core9core_arch10arm_shared4neon9generated8vceqq_u817h502884a6dc44e6ceE, symObjAddr: 0x1A44, symBinAddr: 0x32564, symSize: 0x14 }
  - { offsetInCU: 0x2A11, offset: 0xE2DAF, size: 0x8, addend: 0x0, symName: __ZN4core9core_arch10arm_shared4neon9generated8vorrq_u817h8c71276ce784cbb6E, symObjAddr: 0x1A58, symBinAddr: 0x32578, symSize: 0x14 }
  - { offsetInCU: 0x3202, offset: 0xE35A0, size: 0x8, addend: 0x0, symName: '__ZN67_$LT$serde_json..error..ErrorCode$u20$as$u20$core..fmt..Display$GT$3fmt17ha339f996ac07768aE', symObjAddr: 0x342C, symBinAddr: 0x32C84, symSize: 0x380 }
  - { offsetInCU: 0x3281, offset: 0xE361F, size: 0x8, addend: 0x0, symName: '__ZN63_$LT$serde_json..error..Error$u20$as$u20$core..fmt..Display$GT$3fmt17h34f894f069972ef1E', symObjAddr: 0x3860, symBinAddr: 0x33004, symSize: 0x80 }
  - { offsetInCU: 0x32C4, offset: 0xE3662, size: 0x8, addend: 0x0, symName: '__ZN67_$LT$serde_json..error..ErrorImpl$u20$as$u20$core..fmt..Display$GT$3fmt17hf751167cd62ec407E', symObjAddr: 0x38E0, symBinAddr: 0x33084, symSize: 0xE0 }
  - { offsetInCU: 0x3345, offset: 0xE36E3, size: 0x8, addend: 0x0, symName: '__ZN66_$LT$serde_json..error..Error$u20$as$u20$serde_core..de..Error$GT$6custom17h97d62ac7696b804fE', symObjAddr: 0x3BBC, symBinAddr: 0xA5820, symSize: 0x50 }
  - { offsetInCU: 0x337D, offset: 0xE371B, size: 0x8, addend: 0x0, symName: '__ZN66_$LT$serde_json..error..Error$u20$as$u20$serde_core..de..Error$GT$12invalid_type17hf4d50f123a57d959E', symObjAddr: 0x3C0C, symBinAddr: 0xA5870, symSize: 0x88 }
  - { offsetInCU: 0x33FE, offset: 0xE379C, size: 0x8, addend: 0x0, symName: '__ZN72_$LT$serde_json..error..JsonUnexpected$u20$as$u20$core..fmt..Display$GT$3fmt17h33eaa4e656d703bcE', symObjAddr: 0x3D1C, symBinAddr: 0x33164, symSize: 0x12C }
  - { offsetInCU: 0x3497, offset: 0xE3835, size: 0x8, addend: 0x0, symName: __ZN10serde_json5error10make_error17hc934e2cef4c456e2E, symObjAddr: 0x3E48, symBinAddr: 0x33290, symSize: 0x180 }
  - { offsetInCU: 0x3513, offset: 0xE38B1, size: 0x8, addend: 0x0, symName: __ZN10serde_json5error14parse_line_col17h2797bbca1760cc22E, symObjAddr: 0x3FC8, symBinAddr: 0x33410, symSize: 0x2C8 }
  - { offsetInCU: 0x35ED, offset: 0xE398B, size: 0x8, addend: 0x0, symName: __ZN10serde_json5error17starts_with_digit17h2fc60b73bc050e57E, symObjAddr: 0x4290, symBinAddr: 0x336D8, symSize: 0x94 }
  - { offsetInCU: 0x3E70, offset: 0xE420E, size: 0x8, addend: 0x0, symName: '__ZN5alloc3vec12Vec$LT$T$GT$3new17h29ddd17d1b9767a4E', symObjAddr: 0x1BA0, symBinAddr: 0x3258C, symSize: 0x14 }
  - { offsetInCU: 0x3E8D, offset: 0xE422B, size: 0x8, addend: 0x0, symName: '__ZN5alloc3vec12Vec$LT$T$GT$3new17hb89b43d011a368f0E', symObjAddr: 0x1BB4, symBinAddr: 0x325A0, symSize: 0x14 }
  - { offsetInCU: 0x3F29, offset: 0xE42C7, size: 0x8, addend: 0x0, symName: '__ZN5alloc3vec16Vec$LT$T$C$A$GT$10as_mut_ptr17h554da970e6f2733eE', symObjAddr: 0x1BC8, symBinAddr: 0x325B4, symSize: 0x18 }
  - { offsetInCU: 0x411A, offset: 0xE44B8, size: 0x8, addend: 0x0, symName: '__ZN5alloc3vec16Vec$LT$T$C$A$GT$13shrink_to_fit17h4e7654bcd39ee65dE', symObjAddr: 0x1C4C, symBinAddr: 0x325CC, symSize: 0xE0 }
  - { offsetInCU: 0x4377, offset: 0xE4715, size: 0x8, addend: 0x0, symName: '__ZN5alloc3vec16Vec$LT$T$C$A$GT$16into_boxed_slice17h85fb0ad06728aa82E', symObjAddr: 0x207C, symBinAddr: 0x326AC, symSize: 0x118 }
  - { offsetInCU: 0x45E2, offset: 0xE4980, size: 0x8, addend: 0x0, symName: '__ZN5alloc3vec16Vec$LT$T$C$A$GT$17extend_from_slice17h014efbe6b881abb9E', symObjAddr: 0x2194, symBinAddr: 0x327C4, symSize: 0x74 }
  - { offsetInCU: 0x472D, offset: 0xE4ACB, size: 0x8, addend: 0x0, symName: '__ZN5alloc3vec16Vec$LT$T$C$A$GT$3len17h94b38916f9d02880E', symObjAddr: 0x2220, symBinAddr: 0x32838, symSize: 0x18 }
  - { offsetInCU: 0x4841, offset: 0xE4BDF, size: 0x8, addend: 0x0, symName: '__ZN5alloc3vec16Vec$LT$T$C$A$GT$4push17h0b5b339e1ad593e5E', symObjAddr: 0x2238, symBinAddr: 0x32850, symSize: 0x100 }
  - { offsetInCU: 0x4AD4, offset: 0xE4E72, size: 0x8, addend: 0x0, symName: '__ZN5alloc3vec16Vec$LT$T$C$A$GT$4push17he84a90a19a1bd419E', symObjAddr: 0x2338, symBinAddr: 0x32950, symSize: 0xDC }
  - { offsetInCU: 0x4D49, offset: 0xE50E7, size: 0x8, addend: 0x0, symName: '__ZN5alloc3vec16Vec$LT$T$C$A$GT$5clear17h9c8ee3d8f5300411E', symObjAddr: 0x2414, symBinAddr: 0x32A2C, symSize: 0x7C }
  - { offsetInCU: 0x4EA8, offset: 0xE5246, size: 0x8, addend: 0x0, symName: '__ZN5alloc3vec16Vec$LT$T$C$A$GT$7set_len17ha0e6e017793b003fE', symObjAddr: 0x2558, symBinAddr: 0x32AA8, symSize: 0x1C }
  - { offsetInCU: 0x4F5C, offset: 0xE52FA, size: 0x8, addend: 0x0, symName: '__ZN5alloc3vec16Vec$LT$T$C$A$GT$8as_slice17h3aea321654a80a00E', symObjAddr: 0x2574, symBinAddr: 0x32AC4, symSize: 0x68 }
  - { offsetInCU: 0x5059, offset: 0xE53F7, size: 0x8, addend: 0x0, symName: '__ZN5alloc3vec16Vec$LT$T$C$A$GT$8is_empty17h24c4d029b9dcfd78E', symObjAddr: 0x2648, symBinAddr: 0x32B2C, symSize: 0x20 }
  - { offsetInCU: 0x51CE, offset: 0xE556C, size: 0x8, addend: 0x0, symName: __ZN10serde_json5error5Error6syntax17h6ef081d7852b36d3E, symObjAddr: 0x3150, symBinAddr: 0xA5544, symSize: 0x90 }
  - { offsetInCU: 0x522E, offset: 0xE55CC, size: 0x8, addend: 0x0, symName: __ZN10serde_json5error5Error2io17h1a175a447f1851b9E, symObjAddr: 0x31E0, symBinAddr: 0xA55D4, symSize: 0x9C }
  - { offsetInCU: 0x527C, offset: 0xE561A, size: 0x8, addend: 0x0, symName: __ZN10serde_json5error5Error12fix_position17h47c02a35485329ffE, symObjAddr: 0x327C, symBinAddr: 0xA5670, symSize: 0x1B0 }
  - { offsetInCU: 0x426, offset: 0xE5BDE, size: 0x8, addend: 0x0, symName: '__ZN4core3ptr8non_null16NonNull$LT$T$GT$13new_unchecked18precondition_check17hff31630da3467cf0E', symObjAddr: 0x4B0, symBinAddr: 0x337FC, symSize: 0xA4 }
  - { offsetInCU: 0x986, offset: 0xE613E, size: 0x8, addend: 0x0, symName: '__ZN44_$LT$$RF$T$u20$as$u20$core..fmt..Display$GT$3fmt17hd5b3b07988c13421E', symObjAddr: 0x394, symBinAddr: 0x33794, symSize: 0x3C }
  - { offsetInCU: 0x1B13, offset: 0xE72CB, size: 0x8, addend: 0x0, symName: '__ZN4core4char7methods22_$LT$impl$u20$char$GT$8to_digit17h3808df4375d686d3E', symObjAddr: 0x75C, symBinAddr: 0x338A0, symSize: 0x14C }
  - { offsetInCU: 0x1BDF, offset: 0xE7397, size: 0x8, addend: 0x0, symName: __ZN4core4char7methods25encode_utf8_raw_unchecked17h955515eacc8e7372E, symObjAddr: 0x8A8, symBinAddr: 0x339EC, symSize: 0x14C }
  - { offsetInCU: 0x1D42, offset: 0xE74FA, size: 0x8, addend: 0x0, symName: __ZN4core9core_arch7aarch644neon9generated8vld1q_u817h6fb680bfa8356087E, symObjAddr: 0xB60, symBinAddr: 0x33B38, symSize: 0x34 }
  - { offsetInCU: 0x1D70, offset: 0xE7528, size: 0x8, addend: 0x0, symName: __ZN4core9core_arch7aarch644neon9generated9vpmaxq_u817h74f0c2bca9c9fe61E, symObjAddr: 0xB94, symBinAddr: 0x33B6C, symSize: 0x14 }
  - { offsetInCU: 0x1EE9, offset: 0xE76A1, size: 0x8, addend: 0x0, symName: '__ZN78_$LT$serde_core..de..impls..UnitVisitor$u20$as$u20$serde_core..de..Visitor$GT$10visit_unit17hf72c2ae823d4edecE', symObjAddr: 0x258C, symBinAddr: 0x34640, symSize: 0x14 }
  - { offsetInCU: 0x1F2F, offset: 0xE76E7, size: 0x8, addend: 0x0, symName: '__ZN80_$LT$serde_core..de..impls..StringVisitor$u20$as$u20$serde_core..de..Visitor$GT$9visit_str17h15dfc393cbb775ceE', symObjAddr: 0x25A0, symBinAddr: 0x34654, symSize: 0x44 }
  - { offsetInCU: 0x1F90, offset: 0xE7748, size: 0x8, addend: 0x0, symName: __ZN10serde_core2de7Visitor18visit_borrowed_str17h69ba353b13fd47afE, symObjAddr: 0x38, symBinAddr: 0x3376C, symSize: 0x28 }
  - { offsetInCU: 0x1FE5, offset: 0xE779D, size: 0x8, addend: 0x0, symName: '__ZN46_$LT$T$u20$as$u20$serde_core..de..Expected$GT$3fmt17h0bdc61f6560879eaE', symObjAddr: 0x3D0, symBinAddr: 0x337D0, symSize: 0x2C }
  - { offsetInCU: 0x28CD, offset: 0xE8085, size: 0x8, addend: 0x0, symName: '__ZN10serde_json5value2de82_$LT$impl$u20$serde_core..de..Deserialize$u20$for$u20$serde_json..value..Value$GT$11deserialize17hd7cbb87fe73b4be2E', symObjAddr: 0x3EAC, symBinAddr: 0x346F4, symSize: 0x24 }
  - { offsetInCU: 0x290E, offset: 0xE80C6, size: 0x8, addend: 0x0, symName: __ZN10serde_json5value5Value6Number17hffe222ff1370e502E, symObjAddr: 0x4E74, symBinAddr: 0x34718, symSize: 0x18 }
  - { offsetInCU: 0x30F0, offset: 0xE88A8, size: 0x8, addend: 0x0, symName: '__ZN59_$LT$alloc..alloc..Global$u20$as$u20$core..clone..Clone$GT$5clone17h80834f227f5624a4E', symObjAddr: 0x1C2C, symBinAddr: 0x33CE0, symSize: 0x10 }
  - { offsetInCU: 0x3146, offset: 0xE88FE, size: 0x8, addend: 0x0, symName: '__ZN63_$LT$alloc..alloc..Global$u20$as$u20$core..alloc..Allocator$GT$10deallocate17h5f642308201ec575E', symObjAddr: 0x2008, symBinAddr: 0x340BC, symSize: 0x80 }
  - { offsetInCU: 0x3266, offset: 0xE8A1E, size: 0x8, addend: 0x0, symName: '__ZN63_$LT$alloc..alloc..Global$u20$as$u20$core..alloc..Allocator$GT$6shrink17h1a9309d9500b5e38E', symObjAddr: 0x2088, symBinAddr: 0x3413C, symSize: 0x4D0 }
  - { offsetInCU: 0x3993, offset: 0xE914B, size: 0x8, addend: 0x0, symName: '__ZN63_$LT$alloc..alloc..Global$u20$as$u20$core..alloc..Allocator$GT$8allocate17h2070ad16f0af9159E', symObjAddr: 0x2558, symBinAddr: 0x3460C, symSize: 0x34 }
  - { offsetInCU: 0x39CE, offset: 0xE9186, size: 0x8, addend: 0x0, symName: __ZN5alloc5alloc15exchange_malloc17h3f138394923faeabE, symObjAddr: 0x1D58, symBinAddr: 0x33E0C, symSize: 0xAC }
  - { offsetInCU: 0x3F62, offset: 0xE971A, size: 0x8, addend: 0x0, symName: __ZN5alloc3fmt6format17h5a40bbc88d7156f4E, symObjAddr: 0x1C3C, symBinAddr: 0x33CF0, symSize: 0xD4 }
  - { offsetInCU: 0x3FC2, offset: 0xE977A, size: 0x8, addend: 0x0, symName: '__ZN5alloc3fmt6format28_$u7b$$u7b$closure$u7d$$u7d$17h78d56ce1ff6c7731E', symObjAddr: 0x1D10, symBinAddr: 0x33DC4, symSize: 0x48 }
  - { offsetInCU: 0x42F2, offset: 0xE9AAA, size: 0x8, addend: 0x0, symName: __ZN4zmij6Buffer13format_finite17h40462871d7e2d597E, symObjAddr: 0x1A0C, symBinAddr: 0x33B80, symSize: 0xC0 }
  - { offsetInCU: 0x43B6, offset: 0xE9B6E, size: 0x8, addend: 0x0, symName: __ZN4zmij6Buffer3new17hb33e9c96a9013e2eE, symObjAddr: 0x1B8C, symBinAddr: 0x33C40, symSize: 0x38 }
  - { offsetInCU: 0x43FD, offset: 0xE9BB5, size: 0x8, addend: 0x0, symName: __ZN4zmij6Buffer6format17heddf1607e81bcabbE, symObjAddr: 0x1BC4, symBinAddr: 0x33C78, symSize: 0x68 }
  - { offsetInCU: 0x4611, offset: 0xE9DC9, size: 0x8, addend: 0x0, symName: __ZN5alloc5alloc6Global10alloc_impl17h2bbdaa2a9f8a5114E, symObjAddr: 0x1E04, symBinAddr: 0x33EB8, symSize: 0x204 }
  - { offsetInCU: 0x4B30, offset: 0xEA2E8, size: 0x8, addend: 0x0, symName: '__ZN10serde_json3map59Map$LT$alloc..string..String$C$serde_json..value..Value$GT$3new17hdc6dd42d7e17322dE', symObjAddr: 0x2608, symBinAddr: 0x34698, symSize: 0x38 }
  - { offsetInCU: 0x4B77, offset: 0xEA32F, size: 0x8, addend: 0x0, symName: '__ZN10serde_json3map59Map$LT$alloc..string..String$C$serde_json..value..Value$GT$6insert17h85bcbe72579c7efdE', symObjAddr: 0x2734, symBinAddr: 0x346D0, symSize: 0x24 }
  - { offsetInCU: 0x1E, offset: 0xEA513, size: 0x8, addend: 0x0, symName: '__ZN106_$LT$core..ops..range..Range$LT$usize$GT$$u20$as$u20$core..slice..index..SliceIndex$LT$$u5b$T$u5d$$GT$$GT$9index_mut17h052adbb254880e29E', symObjAddr: 0x0, symBinAddr: 0x34730, symSize: 0xC8 }
  - { offsetInCU: 0x756, offset: 0xEAC4B, size: 0x8, addend: 0x0, symName: '__ZN4core3ptr100drop_in_place$LT$core..result..Result$LT$serde_json..value..Value$C$serde_json..error..Error$GT$$GT$17h113e01071decae3fE', symObjAddr: 0xBB8, symBinAddr: 0x34EBC, symSize: 0x58 }
  - { offsetInCU: 0x785, offset: 0xEAC7A, size: 0x8, addend: 0x0, symName: '__ZN4core3ptr101drop_in_place$LT$std..io..error..ErrorData$LT$alloc..boxed..Box$LT$std..io..error..Custom$GT$$GT$$GT$17h327c90697fd59478E', symObjAddr: 0xC10, symBinAddr: 0x34F14, symSize: 0x48 }
  - { offsetInCU: 0x7B4, offset: 0xEACA9, size: 0x8, addend: 0x0, symName: '__ZN4core3ptr105drop_in_place$LT$core..option..Option$LT$$LP$alloc..string..String$C$serde_json..value..Value$RP$$GT$$GT$17hed258eb67586c7b0E', symObjAddr: 0xCA4, symBinAddr: 0x34F5C, symSize: 0x48 }
  - { offsetInCU: 0x7E3, offset: 0xEACD8, size: 0x8, addend: 0x0, symName: '__ZN4core3ptr106drop_in_place$LT$core..result..Result$LT$core..option..Option$LT$u8$GT$$C$serde_json..error..Error$GT$$GT$17he4865edb33caf6f8E', symObjAddr: 0xCEC, symBinAddr: 0x34FA4, symSize: 0x40 }
  - { offsetInCU: 0x812, offset: 0xEAD07, size: 0x8, addend: 0x0, symName: '__ZN4core3ptr117drop_in_place$LT$alloc..collections..btree..map..BTreeMap$LT$alloc..string..String$C$serde_json..value..Value$GT$$GT$17h6cadfc643c9d367aE', symObjAddr: 0xD2C, symBinAddr: 0x34FE4, symSize: 0x24 }
  - { offsetInCU: 0x841, offset: 0xEAD36, size: 0x8, addend: 0x0, symName: '__ZN4core3ptr117drop_in_place$LT$alloc..collections..btree..map..IntoIter$LT$alloc..string..String$C$serde_json..value..Value$GT$$GT$17h659fb0015ca2948fE', symObjAddr: 0xD50, symBinAddr: 0x35008, symSize: 0x24 }
  - { offsetInCU: 0x870, offset: 0xEAD65, size: 0x8, addend: 0x0, symName: '__ZN4core3ptr118drop_in_place$LT$alloc..boxed..Box$LT$dyn$u20$core..error..Error$u2b$core..marker..Sync$u2b$core..marker..Send$GT$$GT$17h1ac562bee0867449E', symObjAddr: 0xD74, symBinAddr: 0x3502C, symSize: 0x80 }
  - { offsetInCU: 0x89F, offset: 0xEAD94, size: 0x8, addend: 0x0, symName: '__ZN4core3ptr143drop_in_place$LT$alloc..boxed..Box$LT$alloc..collections..btree..node..LeafNode$LT$alloc..string..String$C$serde_json..value..Value$GT$$GT$$GT$17h6c0ae717f6293e89E', symObjAddr: 0xDF4, symBinAddr: 0x350AC, symSize: 0x2C }
  - { offsetInCU: 0x8CE, offset: 0xEADC3, size: 0x8, addend: 0x0, symName: '__ZN4core3ptr147drop_in_place$LT$alloc..boxed..Box$LT$alloc..collections..btree..node..InternalNode$LT$alloc..string..String$C$serde_json..value..Value$GT$$GT$$GT$17h9cf32f14d09b9875E', symObjAddr: 0xE20, symBinAddr: 0x350D8, symSize: 0x2C }
  - { offsetInCU: 0x8FD, offset: 0xEADF2, size: 0x8, addend: 0x0, symName: '__ZN4core3ptr169drop_in_place$LT$alloc..collections..btree..node..SplitResult$LT$alloc..string..String$C$serde_json..value..Value$C$alloc..collections..btree..node..marker..Leaf$GT$$GT$17hb744b77eafe2e8d4E', symObjAddr: 0xE9C, symBinAddr: 0x35104, symSize: 0x24 }
  - { offsetInCU: 0x92C, offset: 0xEAE21, size: 0x8, addend: 0x0, symName: '__ZN4core3ptr173drop_in_place$LT$alloc..collections..btree..node..SplitResult$LT$alloc..string..String$C$serde_json..value..Value$C$alloc..collections..btree..node..marker..Internal$GT$$GT$17h436c08188029f67fE', symObjAddr: 0xEC0, symBinAddr: 0x35128, symSize: 0x24 }
  - { offsetInCU: 0x95B, offset: 0xEAE50, size: 0x8, addend: 0x0, symName: '__ZN4core3ptr215drop_in_place$LT$$LT$alloc..collections..btree..map..IntoIter$LT$K$C$V$C$A$GT$$u20$as$u20$core..ops..drop..Drop$GT$..drop..DropGuard$LT$alloc..string..String$C$serde_json..value..Value$C$alloc..alloc..Global$GT$$GT$17he3d8b7a131b5b3acE', symObjAddr: 0xEE4, symBinAddr: 0x3514C, symSize: 0x24 }
  - { offsetInCU: 0x98A, offset: 0xEAE7F, size: 0x8, addend: 0x0, symName: '__ZN4core3ptr282drop_in_place$LT$alloc..collections..btree..node..Handle$LT$alloc..collections..btree..node..NodeRef$LT$alloc..collections..btree..node..marker..Dying$C$K$C$V$C$NodeType$GT$$C$alloc..collections..btree..node..marker..KV$GT$..drop_key_val..Dropper$LT$serde_json..value..Value$GT$$GT$17h5d35bec5b45762ddE', symObjAddr: 0xF2C, symBinAddr: 0x35170, symSize: 0x24 }
  - { offsetInCU: 0x9B9, offset: 0xEAEAE, size: 0x8, addend: 0x0, symName: '__ZN4core3ptr42drop_in_place$LT$alloc..string..String$GT$17hb6a579fa3387c64cE', symObjAddr: 0xF98, symBinAddr: 0x35194, symSize: 0x24 }
  - { offsetInCU: 0x9E8, offset: 0xEAEDD, size: 0x8, addend: 0x0, symName: '__ZN4core3ptr42drop_in_place$LT$std..io..error..Error$GT$17h63a0f8ddd0237d4aE', symObjAddr: 0xFBC, symBinAddr: 0x351B8, symSize: 0x24 }
  - { offsetInCU: 0xA17, offset: 0xEAF0C, size: 0x8, addend: 0x0, symName: '__ZN4core3ptr43drop_in_place$LT$std..io..error..Custom$GT$17h2b67104cf0aae6a1E', symObjAddr: 0xFE0, symBinAddr: 0x351DC, symSize: 0x24 }
  - { offsetInCU: 0xA46, offset: 0xEAF3B, size: 0x8, addend: 0x0, symName: '__ZN4core3ptr45drop_in_place$LT$serde_json..error..Error$GT$17hc964d8176fc9c8c1E', symObjAddr: 0x1028, symBinAddr: 0x35200, symSize: 0x24 }
  - { offsetInCU: 0xA75, offset: 0xEAF6A, size: 0x8, addend: 0x0, symName: '__ZN4core3ptr45drop_in_place$LT$serde_json..value..Value$GT$17hb32cec15629bdc50E', symObjAddr: 0x104C, symBinAddr: 0x35224, symSize: 0x8C }
  - { offsetInCU: 0xAA4, offset: 0xEAF99, size: 0x8, addend: 0x0, symName: '__ZN4core3ptr46drop_in_place$LT$alloc..vec..Vec$LT$u8$GT$$GT$17h79eab9ce3e3251c9E', symObjAddr: 0x10D8, symBinAddr: 0x352B0, symSize: 0x5C }
  - { offsetInCU: 0xAD3, offset: 0xEAFC8, size: 0x8, addend: 0x0, symName: '__ZN4core3ptr49drop_in_place$LT$serde_json..error..ErrorCode$GT$17h79006bc2353381f1E', symObjAddr: 0x1158, symBinAddr: 0x3530C, symSize: 0x64 }
  - { offsetInCU: 0xB02, offset: 0xEAFF7, size: 0x8, addend: 0x0, symName: '__ZN4core3ptr49drop_in_place$LT$serde_json..error..ErrorImpl$GT$17h854866cbf9df3afeE', symObjAddr: 0x11BC, symBinAddr: 0x35370, symSize: 0x24 }
  - { offsetInCU: 0xB31, offset: 0xEB026, size: 0x8, addend: 0x0, symName: '__ZN4core3ptr53drop_in_place$LT$alloc..raw_vec..RawVec$LT$u8$GT$$GT$17h2e152cb86357e329E', symObjAddr: 0x11E0, symBinAddr: 0x35394, symSize: 0x24 }
  - { offsetInCU: 0xB60, offset: 0xEB055, size: 0x8, addend: 0x0, symName: '__ZN4core3ptr55drop_in_place$LT$$u5b$serde_json..value..Value$u5d$$GT$17hf37b6c435bc1ead9E', symObjAddr: 0x1204, symBinAddr: 0x353B8, symSize: 0xB4 }
  - { offsetInCU: 0xB8F, offset: 0xEB084, size: 0x8, addend: 0x0, symName: '__ZN4core3ptr57drop_in_place$LT$std..io..error..repr_bitpacked..Repr$GT$17h95cdfd857896aaa9E', symObjAddr: 0x12B8, symBinAddr: 0x3546C, symSize: 0x24 }
  - { offsetInCU: 0xBBE, offset: 0xEB0B3, size: 0x8, addend: 0x0, symName: '__ZN4core3ptr62drop_in_place$LT$alloc..vec..set_len_on_drop..SetLenOnDrop$GT$17hba2289e7744e7a58E', symObjAddr: 0x12DC, symBinAddr: 0x35490, symSize: 0x24 }
  - { offsetInCU: 0xBED, offset: 0xEB0E2, size: 0x8, addend: 0x0, symName: '__ZN4core3ptr68drop_in_place$LT$alloc..boxed..Box$LT$std..io..error..Custom$GT$$GT$17h769c8d1202729bfbE', symObjAddr: 0x1324, symBinAddr: 0x354B4, symSize: 0x60 }
  - { offsetInCU: 0xC1C, offset: 0xEB111, size: 0x8, addend: 0x0, symName: '__ZN4core3ptr68drop_in_place$LT$alloc..vec..Vec$LT$serde_json..value..Value$GT$$GT$17h31b5e633b35e256eE', symObjAddr: 0x1384, symBinAddr: 0x35514, symSize: 0x5C }
  - { offsetInCU: 0xC4B, offset: 0xEB140, size: 0x8, addend: 0x0, symName: '__ZN4core3ptr70drop_in_place$LT$core..option..Option$LT$alloc..string..String$GT$$GT$17hfc106800cf55db37E', symObjAddr: 0x13E0, symBinAddr: 0x35570, symSize: 0x48 }
  - { offsetInCU: 0xC7A, offset: 0xEB16F, size: 0x8, addend: 0x0, symName: '__ZN4core3ptr72drop_in_place$LT$alloc..collections..btree..mem..replace..PanicGuard$GT$17hdb56fe24ca0e3043E', symObjAddr: 0x1428, symBinAddr: 0x355B8, symSize: 0x24 }
  - { offsetInCU: 0xCA9, offset: 0xEB19E, size: 0x8, addend: 0x0, symName: '__ZN4core3ptr73drop_in_place$LT$core..option..Option$LT$serde_json..value..Value$GT$$GT$17hca399183392719ddE', symObjAddr: 0x144C, symBinAddr: 0x355DC, symSize: 0x44 }
  - { offsetInCU: 0xCD8, offset: 0xEB1CD, size: 0x8, addend: 0x0, symName: '__ZN4core3ptr74drop_in_place$LT$alloc..boxed..Box$LT$serde_json..error..ErrorImpl$GT$$GT$17heb9f83f925952170E', symObjAddr: 0x1490, symBinAddr: 0x35620, symSize: 0x60 }
  - { offsetInCU: 0xD07, offset: 0xEB1FC, size: 0x8, addend: 0x0, symName: '__ZN4core3ptr75drop_in_place$LT$alloc..raw_vec..RawVec$LT$serde_json..value..Value$GT$$GT$17hda9f3e2506d8aee5E', symObjAddr: 0x14F0, symBinAddr: 0x35680, symSize: 0x24 }
  - { offsetInCU: 0xD36, offset: 0xEB22B, size: 0x8, addend: 0x0, symName: '__ZN4core3ptr77drop_in_place$LT$$LP$alloc..string..String$C$serde_json..value..Value$RP$$GT$17h675b2a897c4a6000E', symObjAddr: 0x1514, symBinAddr: 0x356A4, symSize: 0x60 }
  - { offsetInCU: 0xD65, offset: 0xEB25A, size: 0x8, addend: 0x0, symName: '__ZN4core3ptr78drop_in_place$LT$core..result..Result$LT$u8$C$serde_json..error..Error$GT$$GT$17haadb1c0d27d289ebE', symObjAddr: 0x1574, symBinAddr: 0x35704, symSize: 0x40 }
  - { offsetInCU: 0xD94, offset: 0xEB289, size: 0x8, addend: 0x0, symName: '__ZN4core3ptr82drop_in_place$LT$serde_json..de..Deserializer$LT$serde_json..read..StrRead$GT$$GT$17h9abf930437d02d99E', symObjAddr: 0x15B4, symBinAddr: 0x35744, symSize: 0x24 }
  - { offsetInCU: 0xDC3, offset: 0xEB2B8, size: 0x8, addend: 0x0, symName: '__ZN4core3ptr84drop_in_place$LT$core..result..Result$LT$$LP$$RP$$C$serde_json..error..Error$GT$$GT$17h3ed3fd9902b9b006E', symObjAddr: 0x15D8, symBinAddr: 0x35768, symSize: 0x44 }
  - { offsetInCU: 0xDF2, offset: 0xEB2E7, size: 0x8, addend: 0x0, symName: '__ZN4core3ptr97drop_in_place$LT$serde_json..map..Map$LT$alloc..string..String$C$serde_json..value..Value$GT$$GT$17he8791b433b69aeb4E', symObjAddr: 0x1664, symBinAddr: 0x357AC, symSize: 0x24 }
  - { offsetInCU: 0x1B77, offset: 0xEC06C, size: 0x8, addend: 0x0, symName: '__ZN106_$LT$core..ops..range..Range$LT$usize$GT$$u20$as$u20$core..slice..index..SliceIndex$LT$$u5b$T$u5d$$GT$$GT$9index_mut17h052adbb254880e29E', symObjAddr: 0x0, symBinAddr: 0x34730, symSize: 0xC8 }
  - { offsetInCU: 0x1C28, offset: 0xEC11D, size: 0x8, addend: 0x0, symName: '__ZN106_$LT$core..ops..range..Range$LT$usize$GT$$u20$as$u20$core..slice..index..SliceIndex$LT$$u5b$T$u5d$$GT$$GT$9index_mut17hbc2de7746d8a7cb2E', symObjAddr: 0xC8, symBinAddr: 0x347F8, symSize: 0xC0 }
  - { offsetInCU: 0x1CD9, offset: 0xEC1CE, size: 0x8, addend: 0x0, symName: '__ZN106_$LT$core..ops..range..Range$LT$usize$GT$$u20$as$u20$core..slice..index..SliceIndex$LT$$u5b$T$u5d$$GT$$GT$9index_mut17hfd2f3725502e71c0E', symObjAddr: 0x188, symBinAddr: 0x348B8, symSize: 0xC0 }
  - { offsetInCU: 0x1E4C, offset: 0xEC341, size: 0x8, addend: 0x0, symName: '__ZN4core5slice29_$LT$impl$u20$$u5b$T$u5d$$GT$11split_first17h65daa1b8a7b05dd0E', symObjAddr: 0x1D2C, symBinAddr: 0x35E5C, symSize: 0x80 }
  - { offsetInCU: 0x1EA7, offset: 0xEC39C, size: 0x8, addend: 0x0, symName: '__ZN4core5slice29_$LT$impl$u20$$u5b$T$u5d$$GT$12chunks_exact17he6c2c22d279dcd86E', symObjAddr: 0x1DAC, symBinAddr: 0x35EDC, symSize: 0x11C }
  - { offsetInCU: 0x1F6D, offset: 0xEC462, size: 0x8, addend: 0x0, symName: '__ZN4core5slice29_$LT$impl$u20$$u5b$T$u5d$$GT$3get17hb0d8c92a4a462db6E', symObjAddr: 0x1EC8, symBinAddr: 0x35FF8, symSize: 0x44 }
  - { offsetInCU: 0x1FBC, offset: 0xEC4B1, size: 0x8, addend: 0x0, symName: '__ZN4core5slice29_$LT$impl$u20$$u5b$T$u5d$$GT$5first17h3ecc8d58eefb51ddE', symObjAddr: 0x1F34, symBinAddr: 0x3603C, symSize: 0x44 }
  - { offsetInCU: 0x2510, offset: 0xECA05, size: 0x8, addend: 0x0, symName: __ZN4core3ops8function2Fn4call17h34dfe889ad903b00E, symObjAddr: 0x9D0, symBinAddr: 0x34DAC, symSize: 0x40 }
  - { offsetInCU: 0x2595, offset: 0xECA8A, size: 0x8, addend: 0x0, symName: __ZN4core3ops8function6FnOnce9call_once17h263f6c75c42d959dE, symObjAddr: 0xA44, symBinAddr: 0x34DEC, symSize: 0x2C }
  - { offsetInCU: 0x25D9, offset: 0xECACE, size: 0x8, addend: 0x0, symName: __ZN4core3ops8function6FnOnce9call_once17h30ab974f1bcd4d96E, symObjAddr: 0xA70, symBinAddr: 0x34E18, symSize: 0x28 }
  - { offsetInCU: 0x261D, offset: 0xECB12, size: 0x8, addend: 0x0, symName: __ZN4core3ops8function6FnOnce9call_once17h395f118e7bcf70c3E, symObjAddr: 0xA98, symBinAddr: 0x34E40, symSize: 0x24 }
  - { offsetInCU: 0x2661, offset: 0xECB56, size: 0x8, addend: 0x0, symName: __ZN4core3ops8function6FnOnce9call_once17h4b3e1e9f2d838300E, symObjAddr: 0xABC, symBinAddr: 0x34E64, symSize: 0x2C }
  - { offsetInCU: 0x26A5, offset: 0xECB9A, size: 0x8, addend: 0x0, symName: __ZN4core3ops8function6FnOnce9call_once17hfcf30ade421430f8E, symObjAddr: 0xB8C, symBinAddr: 0x34E90, symSize: 0x2C }
  - { offsetInCU: 0x27DB, offset: 0xECCD0, size: 0x8, addend: 0x0, symName: '__ZN4core3cmp5impls56_$LT$impl$u20$core..cmp..PartialEq$u20$for$u20$usize$GT$2eq17h1fdc24b99686e4f9E', symObjAddr: 0x624, symBinAddr: 0x34B70, symSize: 0x2C }
  - { offsetInCU: 0x281E, offset: 0xECD13, size: 0x8, addend: 0x0, symName: '__ZN4core3cmp5impls69_$LT$impl$u20$core..cmp..PartialEq$LT$$RF$B$GT$$u20$for$u20$$RF$A$GT$2eq17ha90124b335558606E', symObjAddr: 0x6B8, symBinAddr: 0x34B9C, symSize: 0x44 }
  - { offsetInCU: 0x287F, offset: 0xECD74, size: 0x8, addend: 0x0, symName: '__ZN107_$LT$core..ops..range..RangeInclusive$LT$T$GT$$u20$as$u20$core..iter..range..RangeInclusiveIteratorImpl$GT$9spec_next17h5e1ff2e2f465f26bE', symObjAddr: 0x248, symBinAddr: 0x34978, symSize: 0x100 }
  - { offsetInCU: 0x2980, offset: 0xECE75, size: 0x8, addend: 0x0, symName: '__ZN49_$LT$usize$u20$as$u20$core..iter..range..Step$GT$17forward_unchecked17h073ddebaaaeb7c9aE', symObjAddr: 0x4F0, symBinAddr: 0x34B20, symSize: 0x50 }
  - { offsetInCU: 0x29E5, offset: 0xECEDA, size: 0x8, addend: 0x0, symName: '__ZN4core4iter5range101_$LT$impl$u20$core..iter..traits..iterator..Iterator$u20$for$u20$core..ops..range..Range$LT$A$GT$$GT$4next17h37cde3af28e8ad21E', symObjAddr: 0x1C68, symBinAddr: 0x35D98, symSize: 0x24 }
  - { offsetInCU: 0x2A22, offset: 0xECF17, size: 0x8, addend: 0x0, symName: '__ZN4core4iter5range110_$LT$impl$u20$core..iter..traits..iterator..Iterator$u20$for$u20$core..ops..range..RangeInclusive$LT$A$GT$$GT$4next17h1c42a470bff1e960E', symObjAddr: 0x1C8C, symBinAddr: 0x35DBC, symSize: 0x24 }
  - { offsetInCU: 0x2A5F, offset: 0xECF54, size: 0x8, addend: 0x0, symName: '__ZN89_$LT$core..ops..range..Range$LT$T$GT$$u20$as$u20$core..iter..range..RangeIteratorImpl$GT$9spec_next17h7039a0b5c3698ef6E', symObjAddr: 0x56F8, symBinAddr: 0x39778, symSize: 0x94 }
  - { offsetInCU: 0x2AEB, offset: 0xECFE0, size: 0x8, addend: 0x0, symName: '__ZN63_$LT$I$u20$as$u20$core..iter..traits..collect..IntoIterator$GT$9into_iter17hf801ca00dfc7cad9E', symObjAddr: 0x2CDC, symBinAddr: 0x36D5C, symSize: 0x14 }
  - { offsetInCU: 0x2D92, offset: 0xED287, size: 0x8, addend: 0x0, symName: '__ZN53_$LT$core..fmt..Error$u20$as$u20$core..fmt..Debug$GT$3fmt17h5cc7f7b558196222E', symObjAddr: 0x1F78, symBinAddr: 0x36080, symSize: 0x40 }
  - { offsetInCU: 0x35CB, offset: 0xEDAC0, size: 0x8, addend: 0x0, symName: '__ZN4core3str6traits108_$LT$impl$u20$core..slice..index..SliceIndex$LT$str$GT$$u20$for$u20$core..ops..range..Range$LT$usize$GT$$GT$3get17h88536c018d20b558E', symObjAddr: 0x1688, symBinAddr: 0x357D0, symSize: 0x208 }
  - { offsetInCU: 0x370A, offset: 0xEDBFF, size: 0x8, addend: 0x0, symName: '__ZN4core3str6traits108_$LT$impl$u20$core..slice..index..SliceIndex$LT$str$GT$$u20$for$u20$core..ops..range..Range$LT$usize$GT$$GT$5index17h05da5ed5cbcb863aE', symObjAddr: 0x1890, symBinAddr: 0x359D8, symSize: 0x90 }
  - { offsetInCU: 0x3822, offset: 0xEDD17, size: 0x8, addend: 0x0, symName: '__ZN4core3str6traits110_$LT$impl$u20$core..slice..index..SliceIndex$LT$str$GT$$u20$for$u20$core..ops..range..RangeTo$LT$usize$GT$$GT$3get17h73e557b194a79095E', symObjAddr: 0x1920, symBinAddr: 0x35A68, symSize: 0x140 }
  - { offsetInCU: 0x397B, offset: 0xEDE70, size: 0x8, addend: 0x0, symName: '__ZN4core3str6traits112_$LT$impl$u20$core..slice..index..SliceIndex$LT$str$GT$$u20$for$u20$core..ops..range..RangeFrom$LT$usize$GT$$GT$3get17h95c74057e8aa50b9E', symObjAddr: 0x1A60, symBinAddr: 0x35BA8, symSize: 0x150 }
  - { offsetInCU: 0x3AEA, offset: 0xEDFDF, size: 0x8, addend: 0x0, symName: '__ZN4core3str6traits112_$LT$impl$u20$core..slice..index..SliceIndex$LT$str$GT$$u20$for$u20$core..ops..range..RangeFrom$LT$usize$GT$$GT$5index17hb15ff0617a33c06dE', symObjAddr: 0x1BB0, symBinAddr: 0x35CF8, symSize: 0x88 }
  - { offsetInCU: 0x3B72, offset: 0xEE067, size: 0x8, addend: 0x0, symName: __ZN4core3str8converts19from_utf8_unchecked17h1ae45be80a48db50E, symObjAddr: 0x1C50, symBinAddr: 0x35D80, symSize: 0x18 }
  - { offsetInCU: 0x3BEC, offset: 0xEE0E1, size: 0x8, addend: 0x0, symName: '__ZN4core5array98_$LT$impl$u20$core..convert..TryFrom$LT$$RF$$u5b$T$u5d$$GT$$u20$for$u20$$u5b$T$u3b$$u20$N$u5d$$GT$8try_from17h60f1b4f5f87f04e3E', symObjAddr: 0x1CB0, symBinAddr: 0x35DE0, symSize: 0x7C }
  - { offsetInCU: 0x3CFA, offset: 0xEE1EF, size: 0x8, addend: 0x0, symName: '__ZN67_$LT$core..array..TryFromSliceError$u20$as$u20$core..fmt..Debug$GT$3fmt17h7b4ce0958d825ddcE', symObjAddr: 0x2CF0, symBinAddr: 0x36D70, symSize: 0x54 }
  - { offsetInCU: 0x3ECE, offset: 0xEE3C3, size: 0x8, addend: 0x0, symName: '__ZN45_$LT$T$u20$as$u20$alloc..string..ToString$GT$9to_string17h878f62158059d1a4E', symObjAddr: 0x498, symBinAddr: 0x34AC8, symSize: 0x24 }
  - { offsetInCU: 0x3F0B, offset: 0xEE400, size: 0x8, addend: 0x0, symName: '__ZN68_$LT$core..fmt..Arguments$u20$as$u20$alloc..string..SpecToString$GT$14spec_to_string17hcb83cf49f177506fE', symObjAddr: 0x2D44, symBinAddr: 0x36DC4, symSize: 0x48 }
  - { offsetInCU: 0x42D6, offset: 0xEE7CB, size: 0x8, addend: 0x0, symName: '__ZN77_$LT$alloc..raw_vec..RawVec$LT$T$C$A$GT$$u20$as$u20$core..ops..drop..Drop$GT$4drop17h59121fbe91b2056eE', symObjAddr: 0x5628, symBinAddr: 0x396A8, symSize: 0x34 }
  - { offsetInCU: 0x4D8F, offset: 0xEF284, size: 0x8, addend: 0x0, symName: '__ZN5alloc11collections5btree3map5entry28VacantEntry$LT$K$C$V$C$A$GT$12insert_entry28_$u7b$$u7b$closure$u7d$$u7d$17h99e3720dd33a5608E', symObjAddr: 0x22A8, symBinAddr: 0x363B0, symSize: 0x17C }
  - { offsetInCU: 0x52C3, offset: 0xEF7B8, size: 0x8, addend: 0x0, symName: '__ZN175_$LT$serde_json..value..de..$LT$impl$u20$serde_core..de..Deserialize$u20$for$u20$serde_json..value..Value$GT$..deserialize..ValueVisitor$u20$as$u20$serde_core..de..Visitor$GT$10visit_bool17h842c1479bc781e85E', symObjAddr: 0x57CC, symBinAddr: 0x3980C, symSize: 0x2C }
  - { offsetInCU: 0x5311, offset: 0xEF806, size: 0x8, addend: 0x0, symName: '__ZN175_$LT$serde_json..value..de..$LT$impl$u20$serde_core..de..Deserialize$u20$for$u20$serde_json..value..Value$GT$..deserialize..ValueVisitor$u20$as$u20$serde_core..de..Visitor$GT$9visit_i6417h2df73a498e2b6a82E', symObjAddr: 0x57F8, symBinAddr: 0x39838, symSize: 0x58 }
  - { offsetInCU: 0x535F, offset: 0xEF854, size: 0x8, addend: 0x0, symName: '__ZN175_$LT$serde_json..value..de..$LT$impl$u20$serde_core..de..Deserialize$u20$for$u20$serde_json..value..Value$GT$..deserialize..ValueVisitor$u20$as$u20$serde_core..de..Visitor$GT$9visit_u6417h311b3804ab8cc659E', symObjAddr: 0x5850, symBinAddr: 0x39890, symSize: 0x58 }
  - { offsetInCU: 0x53AD, offset: 0xEF8A2, size: 0x8, addend: 0x0, symName: '__ZN175_$LT$serde_json..value..de..$LT$impl$u20$serde_core..de..Deserialize$u20$for$u20$serde_json..value..Value$GT$..deserialize..ValueVisitor$u20$as$u20$serde_core..de..Visitor$GT$9visit_f6417hed09734fd389f23eE', symObjAddr: 0x58A8, symBinAddr: 0x398E8, symSize: 0x54 }
  - { offsetInCU: 0x53FB, offset: 0xEF8F0, size: 0x8, addend: 0x0, symName: '__ZN175_$LT$serde_json..value..de..$LT$impl$u20$serde_core..de..Deserialize$u20$for$u20$serde_json..value..Value$GT$..deserialize..ValueVisitor$u20$as$u20$serde_core..de..Visitor$GT$9visit_str17h4d2d29059663332cE', symObjAddr: 0x58FC, symBinAddr: 0x3993C, symSize: 0x40 }
  - { offsetInCU: 0x5449, offset: 0xEF93E, size: 0x8, addend: 0x0, symName: '__ZN175_$LT$serde_json..value..de..$LT$impl$u20$serde_core..de..Deserialize$u20$for$u20$serde_json..value..Value$GT$..deserialize..ValueVisitor$u20$as$u20$serde_core..de..Visitor$GT$12visit_string17h5e21972823a64801E', symObjAddr: 0x593C, symBinAddr: 0x3997C, symSize: 0x38 }
  - { offsetInCU: 0x5497, offset: 0xEF98C, size: 0x8, addend: 0x0, symName: '__ZN175_$LT$serde_json..value..de..$LT$impl$u20$serde_core..de..Deserialize$u20$for$u20$serde_json..value..Value$GT$..deserialize..ValueVisitor$u20$as$u20$serde_core..de..Visitor$GT$10visit_unit17hae260669302d45cbE', symObjAddr: 0x5974, symBinAddr: 0x399B4, symSize: 0x20 }
  - { offsetInCU: 0x54D7, offset: 0xEF9CC, size: 0x8, addend: 0x0, symName: '__ZN175_$LT$serde_json..value..de..$LT$impl$u20$serde_core..de..Deserialize$u20$for$u20$serde_json..value..Value$GT$..deserialize..ValueVisitor$u20$as$u20$serde_core..de..Visitor$GT$9visit_seq17h025ddc104c3a190eE', symObjAddr: 0x5994, symBinAddr: 0x399D4, symSize: 0x1A8 }
  - { offsetInCU: 0x558D, offset: 0xEFA82, size: 0x8, addend: 0x0, symName: '__ZN175_$LT$serde_json..value..de..$LT$impl$u20$serde_core..de..Deserialize$u20$for$u20$serde_json..value..Value$GT$..deserialize..ValueVisitor$u20$as$u20$serde_core..de..Visitor$GT$9visit_map17h396d1677fda73b23E', symObjAddr: 0x5B3C, symBinAddr: 0x39B7C, symSize: 0x3E8 }
  - { offsetInCU: 0x56B6, offset: 0xEFBAB, size: 0x8, addend: 0x0, symName: '__ZN88_$LT$serde_json..value..de..KeyClassifier$u20$as$u20$serde_core..de..DeserializeSeed$GT$11deserialize17hbc66ee4b3de14750E', symObjAddr: 0x6310, symBinAddr: 0x39F64, symSize: 0x24 }
  - { offsetInCU: 0x570E, offset: 0xEFC03, size: 0x8, addend: 0x0, symName: '__ZN80_$LT$serde_json..value..de..KeyClassifier$u20$as$u20$serde_core..de..Visitor$GT$9visit_str17h1410f5be6baad054E', symObjAddr: 0x6374, symBinAddr: 0x39F88, symSize: 0x54 }
  - { offsetInCU: 0x5DB0, offset: 0xF02A5, size: 0x8, addend: 0x0, symName: __ZN10serde_core2de7Visitor18visit_borrowed_str17ha6c7ed9c066eafb5E, symObjAddr: 0x348, symBinAddr: 0x34A78, symSize: 0x28 }
  - { offsetInCU: 0x5DFF, offset: 0xF02F4, size: 0x8, addend: 0x0, symName: __ZN10serde_core2de7Visitor18visit_borrowed_str17hafaa8a4623a71ba5E, symObjAddr: 0x370, symBinAddr: 0x34AA0, symSize: 0x28 }
  - { offsetInCU: 0x5E87, offset: 0xF037C, size: 0x8, addend: 0x0, symName: '__ZN45_$LT$f64$u20$as$u20$zmij..private..Sealed$GT$12is_nonfinite17h97a3dac6687c8e5aE', symObjAddr: 0x4BC, symBinAddr: 0x34AEC, symSize: 0x34 }
  - { offsetInCU: 0x6026, offset: 0xF051B, size: 0x8, addend: 0x0, symName: '__ZN4core3fmt2rt38_$LT$impl$u20$core..fmt..Arguments$GT$6new_v117h5edd716503984022E', symObjAddr: 0x75C, symBinAddr: 0x34BE0, symSize: 0x50 }
  - { offsetInCU: 0x60DB, offset: 0xF05D0, size: 0x8, addend: 0x0, symName: __ZN4core3fmt9Formatter9write_fmt17h93e5a2867580972bE, symObjAddr: 0x820, symBinAddr: 0x34C30, symSize: 0x17C }
  - { offsetInCU: 0x640D, offset: 0xF0902, size: 0x8, addend: 0x0, symName: '__ZN6memchr4arch7aarch644neon6memchr3One9count_raw28_$u7b$$u7b$closure$u7d$$u7d$17h6ba2da1db55251feE', symObjAddr: 0x3AE0, symBinAddr: 0x37B60, symSize: 0x30 }
  - { offsetInCU: 0x6506, offset: 0xF09FB, size: 0x8, addend: 0x0, symName: '__ZN6memchr4arch7aarch644neon6memchr3Two8find_raw28_$u7b$$u7b$closure$u7d$$u7d$17h370bd23ef70b4b7bE', symObjAddr: 0x5138, symBinAddr: 0x391B8, symSize: 0x78 }
  - { offsetInCU: 0x66B2, offset: 0xF0BA7, size: 0x8, addend: 0x0, symName: '__ZN6memchr4arch7generic6memchr12One$LT$V$GT$9count_raw28_$u7b$$u7b$closure$u7d$$u7d$17h217767a38bef53abE', symObjAddr: 0x51B0, symBinAddr: 0x39230, symSize: 0x30 }
  - { offsetInCU: 0x6A99, offset: 0xF0F8E, size: 0x8, addend: 0x0, symName: __ZN6memchr6memchr11memchr2_raw17h85698e167129d910E, symObjAddr: 0x51E0, symBinAddr: 0x39260, symSize: 0x9C }
  - { offsetInCU: 0x6B2A, offset: 0xF101F, size: 0x8, addend: 0x0, symName: __ZN6memchr6memchr11memchr_iter17h967239eadef680a2E, symObjAddr: 0x527C, symBinAddr: 0x392FC, symSize: 0x2C }
  - { offsetInCU: 0x6BC3, offset: 0xF10B8, size: 0x8, addend: 0x0, symName: '__ZN6memchr6memchr7memchr228_$u7b$$u7b$closure$u7d$$u7d$17ha7ff40060e80dea2E', symObjAddr: 0x543C, symBinAddr: 0x394BC, symSize: 0x54 }
  - { offsetInCU: 0x6C22, offset: 0xF1117, size: 0x8, addend: 0x0, symName: __ZN6memchr6memchr7memchr217h6c99baf2fafc625eE, symObjAddr: 0x531C, symBinAddr: 0x3939C, symSize: 0x120 }
  - { offsetInCU: 0x6D05, offset: 0xF11FA, size: 0x8, addend: 0x0, symName: __ZN6memchr6memchr7memrchr17h8bbb279d61686902E, symObjAddr: 0x5490, symBinAddr: 0x39510, symSize: 0x10C }
  - { offsetInCU: 0x6DC0, offset: 0xF12B5, size: 0x8, addend: 0x0, symName: __ZN6memchr6memchr9count_raw17h94417abd85f1ec18E, symObjAddr: 0x559C, symBinAddr: 0x3961C, symSize: 0x8C }
  - { offsetInCU: 0x6E57, offset: 0xF134C, size: 0x8, addend: 0x0, symName: '__ZN81_$LT$memchr..memchr..Memchr$u20$as$u20$core..iter..traits..iterator..Iterator$GT$5count28_$u7b$$u7b$closure$u7d$$u7d$17hd87f6f2815ba4a81E', symObjAddr: 0x56BC, symBinAddr: 0x3973C, symSize: 0x3C }
  - { offsetInCU: 0x6EA7, offset: 0xF139C, size: 0x8, addend: 0x0, symName: '__ZN81_$LT$memchr..memchr..Memchr$u20$as$u20$core..iter..traits..iterator..Iterator$GT$5count17ha755f2ccc859c0fdE', symObjAddr: 0x565C, symBinAddr: 0x396DC, symSize: 0x60 }
  - { offsetInCU: 0x72E7, offset: 0xF17DC, size: 0x8, addend: 0x0, symName: '__ZN5alloc11collections5btree3map5entry28VacantEntry$LT$K$C$V$C$A$GT$12insert_entry17h65ae049937268a08E', symObjAddr: 0x1FB8, symBinAddr: 0x360C0, symSize: 0x2F0 }
  - { offsetInCU: 0x76AA, offset: 0xF1B9F, size: 0x8, addend: 0x0, symName: '__ZN5alloc11collections5btree3map5entry30OccupiedEntry$LT$K$C$V$C$A$GT$6insert17hc9cd1c4a40c17b0fE', symObjAddr: 0x24AC, symBinAddr: 0x3652C, symSize: 0xA0 }
  - { offsetInCU: 0x7734, offset: 0xF1C29, size: 0x8, addend: 0x0, symName: '__ZN5alloc11collections5btree3map5entry30OccupiedEntry$LT$K$C$V$C$A$GT$8into_mut17h812f872805f5fd06E', symObjAddr: 0x254C, symBinAddr: 0x365CC, symSize: 0x58 }
  - { offsetInCU: 0x77C5, offset: 0xF1CBA, size: 0x8, addend: 0x0, symName: '__ZN5alloc7raw_vec19RawVec$LT$T$C$A$GT$8grow_one17he796603701d43f08E', symObjAddr: 0x25A4, symBinAddr: 0x36624, symSize: 0x90 }
  - { offsetInCU: 0x7966, offset: 0xF1E5B, size: 0x8, addend: 0x0, symName: '__ZN5alloc7raw_vec19RawVec$LT$T$C$A$GT$8into_box17h4d80ec3d6d3126d2E', symObjAddr: 0x2634, symBinAddr: 0x366B4, symSize: 0x98 }
  - { offsetInCU: 0x7BA0, offset: 0xF2095, size: 0x8, addend: 0x0, symName: '__ZN5alloc7raw_vec20RawVecInner$LT$A$GT$14current_memory17h73af56742b60c93aE', symObjAddr: 0x26CC, symBinAddr: 0x3674C, symSize: 0x124 }
  - { offsetInCU: 0x7DE0, offset: 0xF22D5, size: 0x8, addend: 0x0, symName: '__ZN5alloc7raw_vec20RawVecInner$LT$A$GT$16shrink_unchecked17h6a5579fbbd982842E', symObjAddr: 0x27F0, symBinAddr: 0x36870, symSize: 0x2F4 }
  - { offsetInCU: 0x81A5, offset: 0xF269A, size: 0x8, addend: 0x0, symName: '__ZN5alloc7raw_vec20RawVecInner$LT$A$GT$16with_capacity_in17ha8375273d643124cE', symObjAddr: 0x2AE4, symBinAddr: 0x36B64, symSize: 0x110 }
  - { offsetInCU: 0x8356, offset: 0xF284B, size: 0x8, addend: 0x0, symName: '__ZN5alloc7raw_vec20RawVecInner$LT$A$GT$6shrink17hd7a295667da984a1E', symObjAddr: 0x2BF4, symBinAddr: 0x36C74, symSize: 0xE8 }
  - { offsetInCU: 0x8425, offset: 0xF291A, size: 0x8, addend: 0x0, symName: __ZN6memchr4arch7aarch644neon6memchr3One12is_available17hb781cd13f57a2065E, symObjAddr: 0x2D8C, symBinAddr: 0x36E0C, symSize: 0xC }
  - { offsetInCU: 0x8453, offset: 0xF2948, size: 0x8, addend: 0x0, symName: __ZN6memchr4arch7aarch644neon6memchr3One13new_unchecked17h4390bf3e14812d2aE, symObjAddr: 0x2D98, symBinAddr: 0x36E18, symSize: 0x58 }
  - { offsetInCU: 0x8655, offset: 0xF2B4A, size: 0x8, addend: 0x0, symName: __ZN6memchr4arch7aarch644neon6memchr3One14count_raw_impl17hd07f34d663bd7409E, symObjAddr: 0x2DF0, symBinAddr: 0x36E70, symSize: 0xB20 }
  - { offsetInCU: 0x8FD8, offset: 0xF34CD, size: 0x8, addend: 0x0, symName: __ZN6memchr4arch7aarch644neon6memchr3One9count_raw17hd44408b455ac0bcdE, symObjAddr: 0x3910, symBinAddr: 0x37990, symSize: 0x1D0 }
  - { offsetInCU: 0x90A4, offset: 0xF3599, size: 0x8, addend: 0x0, symName: __ZN6memchr4arch7aarch644neon6memchr3Two12is_available17hc278d50ea40bfc58E, symObjAddr: 0x3B10, symBinAddr: 0x37B90, symSize: 0xC }
  - { offsetInCU: 0x9325, offset: 0xF381A, size: 0x8, addend: 0x0, symName: __ZN6memchr4arch7aarch644neon6memchr3Two13find_raw_impl17hf83d3d322e5b0db5E, symObjAddr: 0x3B1C, symBinAddr: 0x37B9C, symSize: 0x13CC }
  - { offsetInCU: 0xA511, offset: 0xF4A06, size: 0x8, addend: 0x0, symName: __ZN6memchr4arch7aarch644neon6memchr3Two13new_unchecked17h903ea3c753c9338bE, symObjAddr: 0x4EE8, symBinAddr: 0x38F68, symSize: 0x8C }
  - { offsetInCU: 0xA5A5, offset: 0xF4A9A, size: 0x8, addend: 0x0, symName: __ZN6memchr4arch7aarch644neon6memchr3Two8find_raw17h8f113ad60951fa48E, symObjAddr: 0x4F74, symBinAddr: 0x38FF4, symSize: 0x1C4 }
  - { offsetInCU: 0xA697, offset: 0xF4B8C, size: 0x8, addend: 0x0, symName: __ZN6memchr6memchr6Memchr3new17h02c071c34288715fE, symObjAddr: 0x52A8, symBinAddr: 0x39328, symSize: 0x74 }
  - { offsetInCU: 0x1E, offset: 0xF5128, size: 0x8, addend: 0x0, symName: '__ZN106_$LT$core..ops..range..Range$LT$usize$GT$$u20$as$u20$core..slice..index..SliceIndex$LT$$u5b$T$u5d$$GT$$GT$13get_unchecked18precondition_check17h026c314c9c06e46dE', symObjAddr: 0x0, symBinAddr: 0x39FDC, symSize: 0xCC }
  - { offsetInCU: 0x2A1, offset: 0xF53AB, size: 0x8, addend: 0x0, symName: '__ZN6memchr4arch7aarch644neon6memchr3One9rfind_raw28_$u7b$$u7b$closure$u7d$$u7d$17hccc60af35ba8073eE', symObjAddr: 0x65E8, symBinAddr: 0x3B2F8, symSize: 0x30 }
  - { offsetInCU: 0x815, offset: 0xF591F, size: 0x8, addend: 0x0, symName: '__ZN56_$LT$$BP$const$u20$T$u20$as$u20$memchr..ext..Pointer$GT$8distance17hdaedd70de59e9f77E', symObjAddr: 0x99D8, symBinAddr: 0x3C26C, symSize: 0x3C }
  - { offsetInCU: 0x858, offset: 0xF5962, size: 0x8, addend: 0x0, symName: '__ZN56_$LT$$BP$const$u20$T$u20$as$u20$memchr..ext..Pointer$GT$8as_usize17h4a11eb5f9462fe7dE', symObjAddr: 0x9A14, symBinAddr: 0x3C2A8, symSize: 0x10 }
  - { offsetInCU: 0x899, offset: 0xF59A3, size: 0x8, addend: 0x0, symName: '__ZN6memchr6memchr7memrchr28_$u7b$$u7b$closure$u7d$$u7d$17hc15014efe3724c1aE', symObjAddr: 0x9C78, symBinAddr: 0x3C2B8, symSize: 0x3C }
  - { offsetInCU: 0x8E5, offset: 0xF59EF, size: 0x8, addend: 0x0, symName: __ZN6memchr6memchr11memrchr_raw17h90944eb38e8b1ce3E, symObjAddr: 0x9D40, symBinAddr: 0x3C2F4, symSize: 0x8C }
  - { offsetInCU: 0xD27, offset: 0xF5E31, size: 0x8, addend: 0x0, symName: '__ZN145_$LT$core..option..Option$LT$T$GT$$u20$as$u20$core..ops..try_trait..FromResidual$LT$core..option..Option$LT$core..convert..Infallible$GT$$GT$$GT$13from_residual17h4fcd06692277f33aE', symObjAddr: 0x1FC, symBinAddr: 0x3A138, symSize: 0x18 }
  - { offsetInCU: 0xE23, offset: 0xF5F2D, size: 0x8, addend: 0x0, symName: '__ZN75_$LT$core..option..Option$LT$T$GT$$u20$as$u20$core..ops..try_trait..Try$GT$6branch17he1c23735c3413cc4E', symObjAddr: 0x1CA0, symBinAddr: 0x3B08C, symSize: 0x48 }
  - { offsetInCU: 0x107A, offset: 0xF6184, size: 0x8, addend: 0x0, symName: __ZN4core3ptr14read_unaligned17h3f85b3457646acddE, symObjAddr: 0x974, symBinAddr: 0x3A304, symSize: 0x94 }
  - { offsetInCU: 0x11EC, offset: 0xF62F6, size: 0x8, addend: 0x0, symName: '__ZN4core3ptr9const_ptr33_$LT$impl$u20$$BP$const$u20$T$GT$11offset_from17h8610c64cc9bb02b2E', symObjAddr: 0xF0C, symBinAddr: 0x3A704, symSize: 0x48 }
  - { offsetInCU: 0x12FA, offset: 0xF6404, size: 0x8, addend: 0x0, symName: '__ZN4core3ptr9const_ptr33_$LT$impl$u20$$BP$const$u20$T$GT$6offset18precondition_check17h0a0a4b5214d4c8caE', symObjAddr: 0xFF0, symBinAddr: 0x3A74C, symSize: 0x10C }
  - { offsetInCU: 0x1620, offset: 0xF672A, size: 0x8, addend: 0x0, symName: __ZN4core3ptr19copy_nonoverlapping18precondition_check17h04c9d8641be86e39E, symObjAddr: 0xBA0, symBinAddr: 0x3A398, symSize: 0x36C }
  - { offsetInCU: 0x1AE6, offset: 0xF6BF0, size: 0x8, addend: 0x0, symName: '__ZN106_$LT$core..ops..range..Range$LT$usize$GT$$u20$as$u20$core..slice..index..SliceIndex$LT$$u5b$T$u5d$$GT$$GT$13get_unchecked18precondition_check17h026c314c9c06e46dE', symObjAddr: 0x0, symBinAddr: 0x39FDC, symSize: 0xCC }
  - { offsetInCU: 0x1BDA, offset: 0xF6CE4, size: 0x8, addend: 0x0, symName: '__ZN110_$LT$core..ops..range..RangeFrom$LT$usize$GT$$u20$as$u20$core..slice..index..SliceIndex$LT$$u5b$T$u5d$$GT$$GT$5index17h5d652e4d7f136985E', symObjAddr: 0x16C, symBinAddr: 0x3A0A8, symSize: 0x90 }
  - { offsetInCU: 0x1D0F, offset: 0xF6E19, size: 0x8, addend: 0x0, symName: '__ZN4core5slice29_$LT$impl$u20$$u5b$T$u5d$$GT$18split_at_unchecked17h9e70b40295463b40E', symObjAddr: 0x11B8, symBinAddr: 0x3A8DC, symSize: 0xEC }
  - { offsetInCU: 0x1E6D, offset: 0xF6F77, size: 0x8, addend: 0x0, symName: '__ZN4core5slice29_$LT$impl$u20$$u5b$T$u5d$$GT$18split_at_unchecked18precondition_check17h3d38f44cfe9e16beE', symObjAddr: 0x12A4, symBinAddr: 0x3A9C8, symSize: 0xAC }
  - { offsetInCU: 0x1F09, offset: 0xF7013, size: 0x8, addend: 0x0, symName: '__ZN4core5slice29_$LT$impl$u20$$u5b$T$u5d$$GT$8split_at17hc037a4300e69476eE', symObjAddr: 0x13D8, symBinAddr: 0x3AA74, symSize: 0xD8 }
  - { offsetInCU: 0x1FE5, offset: 0xF70EF, size: 0x8, addend: 0x0, symName: __ZN4core5slice3raw14from_raw_parts18precondition_check17h43981daf88eeb1adE, symObjAddr: 0x14B0, symBinAddr: 0x3AB4C, symSize: 0x1DC }
  - { offsetInCU: 0x21C3, offset: 0xF72CD, size: 0x8, addend: 0x0, symName: '__ZN4core5slice4iter87_$LT$impl$u20$core..iter..traits..collect..IntoIterator$u20$for$u20$$RF$$u5b$T$u5d$$GT$9into_iter17hc8c576fa2bee40fbE', symObjAddr: 0x168C, symBinAddr: 0x3AD28, symSize: 0x50 }
  - { offsetInCU: 0x255C, offset: 0xF7666, size: 0x8, addend: 0x0, symName: __ZN4core3ops8function2Fn4call17hf1d49f560e8414a1E, symObjAddr: 0x8E0, symBinAddr: 0x3A270, symSize: 0x94 }
  - { offsetInCU: 0x26E6, offset: 0xF77F0, size: 0x8, addend: 0x0, symName: __ZN4core3cmp3Ord3min17hf454bf1f6dc18044E, symObjAddr: 0x318, symBinAddr: 0x3A150, symSize: 0x80 }
  - { offsetInCU: 0x2755, offset: 0xF785F, size: 0x8, addend: 0x0, symName: __ZN4core3cmp3min17h832c8df76af46482E, symObjAddr: 0x3BC, symBinAddr: 0x3A1D0, symSize: 0x24 }
  - { offsetInCU: 0x28CA, offset: 0xF79D4, size: 0x8, addend: 0x0, symName: __ZN4core9core_arch10arm_shared4neon9generated10vdupq_n_u817h4bef21c81f516cf3E, symObjAddr: 0x199C, symBinAddr: 0x3AE74, symSize: 0x2C }
  - { offsetInCU: 0x294A, offset: 0xF7A54, size: 0x8, addend: 0x0, symName: __ZN4core9core_arch10arm_shared4neon9generated11vshrn_n_u1617h30366c59be7ca84eE, symObjAddr: 0x19C8, symBinAddr: 0x3AEA0, symSize: 0x50 }
  - { offsetInCU: 0x29CA, offset: 0xF7AD4, size: 0x8, addend: 0x0, symName: __ZN4core9core_arch10arm_shared4neon9generated13vget_lane_u6417h2b2df4f14e9b35cfE, symObjAddr: 0x1A18, symBinAddr: 0x3AEF0, symSize: 0x18 }
  - { offsetInCU: 0x29F9, offset: 0xF7B03, size: 0x8, addend: 0x0, symName: __ZN4core9core_arch10arm_shared4neon9generated14vgetq_lane_u6417h4949061aec4a5273E, symObjAddr: 0x1A30, symBinAddr: 0x3AF08, symSize: 0x18 }
  - { offsetInCU: 0x2A28, offset: 0xF7B32, size: 0x8, addend: 0x0, symName: __ZN4core9core_arch10arm_shared4neon9generated19vreinterpret_u64_u817hdd8bcb061dc07623E, symObjAddr: 0x1A48, symBinAddr: 0x3AF20, symSize: 0xC }
  - { offsetInCU: 0x2A56, offset: 0xF7B60, size: 0x8, addend: 0x0, symName: __ZN4core9core_arch10arm_shared4neon9generated20vreinterpretq_u16_u817h5c497a69dd00c0abE, symObjAddr: 0x1A54, symBinAddr: 0x3AF2C, symSize: 0xC }
  - { offsetInCU: 0x2A84, offset: 0xF7B8E, size: 0x8, addend: 0x0, symName: __ZN4core9core_arch10arm_shared4neon9generated20vreinterpretq_u64_u817h8a13bcfce5fdd334E, symObjAddr: 0x1A60, symBinAddr: 0x3AF38, symSize: 0xC }
  - { offsetInCU: 0x2AB2, offset: 0xF7BBC, size: 0x8, addend: 0x0, symName: __ZN4core9core_arch10arm_shared4neon9generated8vceqq_u817h87040c150fe36a28E, symObjAddr: 0x1A80, symBinAddr: 0x3AF44, symSize: 0x14 }
  - { offsetInCU: 0x2AEF, offset: 0xF7BF9, size: 0x8, addend: 0x0, symName: __ZN4core9core_arch10arm_shared4neon9generated8vorrq_u817h38921aef9dd36545E, symObjAddr: 0x1A94, symBinAddr: 0x3AF58, symSize: 0x14 }
  - { offsetInCU: 0x2BC8, offset: 0xF7CD2, size: 0x8, addend: 0x0, symName: __ZN4core9core_arch7aarch644neon9generated8vld1q_u817h3ee6583e6d7f4a91E, symObjAddr: 0x1AA8, symBinAddr: 0x3AF6C, symSize: 0x34 }
  - { offsetInCU: 0x2BF6, offset: 0xF7D00, size: 0x8, addend: 0x0, symName: __ZN4core9core_arch7aarch644neon9generated9vpmaxq_u817hf8ce96dd57caeefcE, symObjAddr: 0x1ADC, symBinAddr: 0x3AFA0, symSize: 0x14 }
  - { offsetInCU: 0x2DC4, offset: 0xF7ECE, size: 0x8, addend: 0x0, symName: __ZN4core9ub_checks23maybe_is_nonoverlapping7runtime17h12f6a681b6f0d679E, symObjAddr: 0x1AF0, symBinAddr: 0x3AFB4, symSize: 0xD8 }
  - { offsetInCU: 0x2F77, offset: 0xF8081, size: 0x8, addend: 0x0, symName: __ZN4core4hint21unreachable_unchecked18precondition_check17h0369e763790bb89eE, symObjAddr: 0x10FC, symBinAddr: 0x3A858, symSize: 0x84 }
  - { offsetInCU: 0x2FE8, offset: 0xF80F2, size: 0x8, addend: 0x0, symName: '__ZN4core7convert3num71_$LT$impl$u20$core..convert..TryFrom$LT$isize$GT$$u20$for$u20$usize$GT$8try_from17h6f2830c63bf60b47E', symObjAddr: 0x1948, symBinAddr: 0x3AE20, symSize: 0x54 }
  - { offsetInCU: 0x3211, offset: 0xF831B, size: 0x8, addend: 0x0, symName: '__ZN4core3fmt2rt38_$LT$impl$u20$core..fmt..Arguments$GT$6new_v117hb7e89657b9da2374E', symObjAddr: 0x488, symBinAddr: 0x3A1F4, symSize: 0x50 }
  - { offsetInCU: 0x3241, offset: 0xF834B, size: 0x8, addend: 0x0, symName: __ZN4core3fmt2rt8Argument11new_display17h26b190b6eaf3df34E, symObjAddr: 0x520, symBinAddr: 0x3A244, symSize: 0x2C }
  - { offsetInCU: 0x34B0, offset: 0xF85BA, size: 0x8, addend: 0x0, symName: '__ZN4core6option15Option$LT$T$GT$9unwrap_or17h8331b92a224a12cdE', symObjAddr: 0x1844, symBinAddr: 0x3AD78, symSize: 0x48 }
  - { offsetInCU: 0x3509, offset: 0xF8613, size: 0x8, addend: 0x0, symName: '__ZN4core6result19Result$LT$T$C$E$GT$16unwrap_unchecked17h64fca2191b7f488eE', symObjAddr: 0x188C, symBinAddr: 0x3ADC0, symSize: 0x60 }
  - { offsetInCU: 0x35EF, offset: 0xF86F9, size: 0x8, addend: 0x0, symName: __ZN6memchr4arch7aarch644neon6memchr3One13new_unchecked17hc148765cad8c8d06E, symObjAddr: 0x61D0, symBinAddr: 0x3B0D4, symSize: 0x58 }
  - { offsetInCU: 0x364B, offset: 0xF8755, size: 0x8, addend: 0x0, symName: __ZN6memchr4arch7aarch644neon6memchr3One12is_available17hd0ee3eccee75682aE, symObjAddr: 0x6228, symBinAddr: 0x3B12C, symSize: 0xC }
  - { offsetInCU: 0x3693, offset: 0xF879D, size: 0x8, addend: 0x0, symName: __ZN6memchr4arch7aarch644neon6memchr3One9rfind_raw17hd0cb857688f75eceE, symObjAddr: 0x6428, symBinAddr: 0x3B138, symSize: 0x1C0 }
  - { offsetInCU: 0x3996, offset: 0xF8AA0, size: 0x8, addend: 0x0, symName: __ZN6memchr4arch7aarch644neon6memchr3One14rfind_raw_impl17h1d5624d0e710a3fdE, symObjAddr: 0x74CC, symBinAddr: 0x3B328, symSize: 0xF44 }
  - { offsetInCU: 0x9E, offset: 0xF99D1, size: 0x8, addend: 0x0, symName: '__ZN42_$LT$$RF$T$u20$as$u20$core..fmt..Debug$GT$3fmt17he76383ecae26f621E', symObjAddr: 0x13C, symBinAddr: 0x3C380, symSize: 0x30 }
  - { offsetInCU: 0xEA, offset: 0xF9A1D, size: 0x8, addend: 0x0, symName: '__ZN45_$LT$$LP$$RP$$u20$as$u20$core..fmt..Debug$GT$3fmt17hdfc38043d7b3c499E', symObjAddr: 0x16C, symBinAddr: 0x3C3B0, symSize: 0x40 }
  - { offsetInCU: 0x1E, offset: 0xF9BA8, size: 0x8, addend: 0x0, symName: '__ZN100_$LT$core..ops..range..RangeInclusive$LT$T$GT$$u20$as$u20$core..ops..range..RangeBounds$LT$T$GT$$GT$11start_bound17h2f60e2395f73e5ebE', symObjAddr: 0x0, symBinAddr: 0x3C3F0, symSize: 0x24 }
  - { offsetInCU: 0x3E, offset: 0xF9BC8, size: 0x8, addend: 0x0, symName: __ZN4zmij18POW10_SIGNIFICANDS17h3f7394be2879dbbbE, symObjAddr: 0x7340, symBinAddr: 0xBAB40, symSize: 0x0 }
  - { offsetInCU: 0x8A, offset: 0xF9C14, size: 0x8, addend: 0x0, symName: __ZN4zmij10EXP_SHIFTS17hee1148ac5b4cd008E, symObjAddr: 0x9A68, symBinAddr: 0xBD268, symSize: 0x0 }
  - { offsetInCU: 0xBB, offset: 0xF9C45, size: 0x8, addend: 0x0, symName: __ZN4zmij7DIGITS217h30e20741250a3c4bE, symObjAddr: 0xA268, symBinAddr: 0xBDA68, symSize: 0x0 }
  - { offsetInCU: 0xF0, offset: 0xF9C7A, size: 0x8, addend: 0x0, symName: __ZN4zmij17write_significand6CONSTS17h0ea2ff0b04a35492E, symObjAddr: 0xA380, symBinAddr: 0xBDB80, symSize: 0x0 }
  - { offsetInCU: 0x141, offset: 0xF9CCB, size: 0x8, addend: 0x0, symName: '__ZN42_$LT$u64$u20$as$u20$zmij..traits..UInt$GT$12wrapping_sub17hccfd40e4e2b92235E', symObjAddr: 0x19C8, symBinAddr: 0x3D8A4, symSize: 0x20 }
  - { offsetInCU: 0x1A0, offset: 0xF9D2A, size: 0x8, addend: 0x0, symName: '__ZN42_$LT$u64$u20$as$u20$zmij..traits..UInt$GT$8truncate17h7a30ac2d657c09d0E', symObjAddr: 0x19E8, symBinAddr: 0x3D8C4, symSize: 0x10 }
  - { offsetInCU: 0x1CC, offset: 0xF9D56, size: 0x8, addend: 0x0, symName: '__ZN42_$LT$u64$u20$as$u20$zmij..traits..UInt$GT$7enlarge17h591bf14bfae6fe5dE', symObjAddr: 0x19F8, symBinAddr: 0x3D8D4, symSize: 0x1C }
  - { offsetInCU: 0x215, offset: 0xF9D9F, size: 0x8, addend: 0x0, symName: '__ZN42_$LT$u64$u20$as$u20$zmij..traits..UInt$GT$9to_signed17hbc5e31805afb91acE', symObjAddr: 0x1A14, symBinAddr: 0x3D8F0, symSize: 0x10 }
  - { offsetInCU: 0x243, offset: 0xF9DCD, size: 0x8, addend: 0x0, symName: __ZN4zmij14select_if_less17hfa028613470a5f9eE, symObjAddr: 0x1A24, symBinAddr: 0x3D900, symSize: 0x78 }
  - { offsetInCU: 0x34F, offset: 0xF9ED9, size: 0x8, addend: 0x0, symName: __ZN4zmij7umul12817hb27b38f6ac350145E, symObjAddr: 0x1A9C, symBinAddr: 0x3D978, symSize: 0x54 }
  - { offsetInCU: 0x389, offset: 0xF9F13, size: 0x8, addend: 0x0, symName: __ZN4zmij12umul128_hi6417h468134ef68a8c4dcE, symObjAddr: 0x1AF0, symBinAddr: 0x3D9CC, symSize: 0x28 }
  - { offsetInCU: 0x3C3, offset: 0xF9F4D, size: 0x8, addend: 0x0, symName: __ZN4zmij13umul192_hi12817h7b8367b51e1490c6E, symObjAddr: 0x1B18, symBinAddr: 0x3D9F4, symSize: 0xBC }
  - { offsetInCU: 0x478, offset: 0xFA002, size: 0x8, addend: 0x0, symName: __ZN4zmij21umulhi_inexact_to_odd17h84d990b8d23d97ccE, symObjAddr: 0x1CE8, symBinAddr: 0x3DAB0, symSize: 0x10C }
  - { offsetInCU: 0x53A, offset: 0xFA0C4, size: 0x8, addend: 0x0, symName: __ZN4zmij11FloatTraits11is_negative17h8d5537d904c59313E, symObjAddr: 0x1DF4, symBinAddr: 0x3DBBC, symSize: 0x6C }
  - { offsetInCU: 0x56F, offset: 0xFA0F9, size: 0x8, addend: 0x0, symName: __ZN4zmij11FloatTraits7get_sig17h97f6b15be624db86E, symObjAddr: 0x1ECC, symBinAddr: 0x3DC28, symSize: 0x4C }
  - { offsetInCU: 0x5A4, offset: 0xFA12E, size: 0x8, addend: 0x0, symName: __ZN4zmij11FloatTraits7get_exp17h3ec4420fe70209bdE, symObjAddr: 0x1FC4, symBinAddr: 0x3DC74, symSize: 0x64 }
  - { offsetInCU: 0x5DF, offset: 0xFA169, size: 0x8, addend: 0x0, symName: '__ZN41_$LT$f64$u20$as$u20$zmij..FloatTraits$GT$7to_bits17h93d62e81176ea051E', symObjAddr: 0x2048, symBinAddr: 0x3DCD8, symSize: 0x20 }
  - { offsetInCU: 0x62D, offset: 0xFA1B7, size: 0x8, addend: 0x0, symName: __ZN4zmij15compute_dec_exp17h97c0bf2f132adbf6E, symObjAddr: 0x222C, symBinAddr: 0x3DEBC, symSize: 0x10C }
  - { offsetInCU: 0x66A, offset: 0xFA1F4, size: 0x8, addend: 0x0, symName: __ZN4zmij20do_compute_exp_shift17h8f2ef49a336dacfcE, symObjAddr: 0x2338, symBinAddr: 0x3DFC8, symSize: 0x11C }
  - { offsetInCU: 0x6BD, offset: 0xFA247, size: 0x8, addend: 0x0, symName: __ZN4zmij17compute_exp_shift17h58f98d5c95738198E, symObjAddr: 0x24DC, symBinAddr: 0x3E0E4, symSize: 0xE8 }
  - { offsetInCU: 0x73F, offset: 0xFA2C9, size: 0x8, addend: 0x0, symName: __ZN4zmij17compute_exp_shift17hacf526fb4ac6c280E, symObjAddr: 0x25C4, symBinAddr: 0x3E1CC, symSize: 0x80 }
  - { offsetInCU: 0x79B, offset: 0xFA325, size: 0x8, addend: 0x0, symName: __ZN4zmij7digits217h173bf3c29a6ce06dE, symObjAddr: 0x27A0, symBinAddr: 0x3E24C, symSize: 0x7C }
  - { offsetInCU: 0x7EF, offset: 0xFA379, size: 0x8, addend: 0x0, symName: __ZN4zmij8write_if17h00f3963d7dba0bb8E, symObjAddr: 0x2A24, symBinAddr: 0x3E2C8, symSize: 0x7C }
  - { offsetInCU: 0x87F, offset: 0xFA409, size: 0x8, addend: 0x0, symName: __ZN4zmij17write_significand17h2377a24a5ef9d7efE, symObjAddr: 0x2AE4, symBinAddr: 0x3E344, symSize: 0x4CC }
  - { offsetInCU: 0xB19, offset: 0xFA6A3, size: 0x8, addend: 0x0, symName: __ZN4zmij20to_decimal_schubfach17ha673ae6092c76af9E, symObjAddr: 0x3608, symBinAddr: 0x3E810, symSize: 0x57C }
  - { offsetInCU: 0xE29, offset: 0xFA9B3, size: 0x8, addend: 0x0, symName: __ZN4zmij15to_decimal_fast17h9ec198ce627c9cfaE, symObjAddr: 0x4148, symBinAddr: 0x3ED8C, symSize: 0x5BC }
  - { offsetInCU: 0x10E6, offset: 0xFAC70, size: 0x8, addend: 0x0, symName: __ZN4zmij5write17h30dbc8316883a49bE, symObjAddr: 0x4704, symBinAddr: 0x3F348, symSize: 0xB68 }
  - { offsetInCU: 0x1757, offset: 0xFB2E1, size: 0x8, addend: 0x0, symName: '__ZN45_$LT$f64$u20$as$u20$zmij..private..Sealed$GT$16format_nonfinite17h69d4d38989204e82E', symObjAddr: 0x5E20, symBinAddr: 0xA58F8, symSize: 0x90 }
  - { offsetInCU: 0x17A3, offset: 0xFB32D, size: 0x8, addend: 0x0, symName: '__ZN45_$LT$f64$u20$as$u20$zmij..private..Sealed$GT$20write_to_zmij_buffer17h023cfaa2fc03022fE', symObjAddr: 0x5EB0, symBinAddr: 0x3FEB0, symSize: 0x28 }
  - { offsetInCU: 0x1924, offset: 0xFB4AE, size: 0x8, addend: 0x0, symName: __ZN4core9core_arch10arm_shared4neon9generated10vdupq_n_s817h89ed07ad93b806e1E, symObjAddr: 0x1198, symBinAddr: 0x3D1D4, symSize: 0x2C }
  - { offsetInCU: 0x19DA, offset: 0xFB564, size: 0x8, addend: 0x0, symName: __ZN4core9core_arch10arm_shared4neon9generated10vmla_n_s3217h8427b1646e359d10E, symObjAddr: 0x11C4, symBinAddr: 0x3D200, symSize: 0x50 }
  - { offsetInCU: 0x1AA6, offset: 0xFB630, size: 0x8, addend: 0x0, symName: __ZN4core9core_arch10arm_shared4neon9generated10vrev64q_u817hf0861aba1a4fe01aE, symObjAddr: 0x1214, symBinAddr: 0x3D250, symSize: 0x10 }
  - { offsetInCU: 0x1AFF, offset: 0xFB689, size: 0x8, addend: 0x0, symName: __ZN4core9core_arch10arm_shared4neon9generated10vshr_n_u3217hc0d3a2217787ca7aE, symObjAddr: 0x1224, symBinAddr: 0x3D260, symSize: 0x68 }
  - { offsetInCU: 0x1C08, offset: 0xFB792, size: 0x8, addend: 0x0, symName: __ZN4core9core_arch10arm_shared4neon9generated11vmlaq_n_s1617h98c9b14ed547b8e5E, symObjAddr: 0x128C, symBinAddr: 0x3D2C8, symSize: 0x50 }
  - { offsetInCU: 0x1D2A, offset: 0xFB8B4, size: 0x8, addend: 0x0, symName: __ZN4core9core_arch10arm_shared4neon9generated11vmlaq_n_s3217h532959213596746aE, symObjAddr: 0x12DC, symBinAddr: 0x3D318, symSize: 0x50 }
  - { offsetInCU: 0x1E16, offset: 0xFB9A0, size: 0x8, addend: 0x0, symName: __ZN4core9core_arch10arm_shared4neon9generated11vshll_n_u1617h1fea70c3bb63b43bE, symObjAddr: 0x132C, symBinAddr: 0x3D368, symSize: 0x48 }
  - { offsetInCU: 0x1EB4, offset: 0xFBA3E, size: 0x8, addend: 0x0, symName: __ZN4core9core_arch10arm_shared4neon9generated11vshrn_n_u1617h22a3a20c5c5efe44E, symObjAddr: 0x1374, symBinAddr: 0x3D3B0, symSize: 0x50 }
  - { offsetInCU: 0x1F34, offset: 0xFBABE, size: 0x8, addend: 0x0, symName: __ZN4core9core_arch10arm_shared4neon9generated13vget_lane_u6417hd894d8e3aa5b6d6aE, symObjAddr: 0x13C4, symBinAddr: 0x3D400, symSize: 0x18 }
  - { offsetInCU: 0x1FAB, offset: 0xFBB35, size: 0x8, addend: 0x0, symName: __ZN4core9core_arch10arm_shared4neon9generated13vqdmulh_n_s3217hb27eb64219a324beE, symObjAddr: 0x13DC, symBinAddr: 0x3D418, symSize: 0x40 }
  - { offsetInCU: 0x20C6, offset: 0xFBC50, size: 0x8, addend: 0x0, symName: __ZN4core9core_arch10arm_shared4neon9generated14vqdmulhq_n_s1617hece2ad05c3838bcaE, symObjAddr: 0x141C, symBinAddr: 0x3D458, symSize: 0x40 }
  - { offsetInCU: 0x21E1, offset: 0xFBD6B, size: 0x8, addend: 0x0, symName: __ZN4core9core_arch10arm_shared4neon9generated14vqdmulhq_n_s3217h2e29809ae29475e5E, symObjAddr: 0x145C, symBinAddr: 0x3D498, symSize: 0x40 }
  - { offsetInCU: 0x22B4, offset: 0xFBE3E, size: 0x8, addend: 0x0, symName: __ZN4core9core_arch10arm_shared4neon9generated19vreinterpret_u64_u817hea3e8a0a6fa4d693E, symObjAddr: 0x149C, symBinAddr: 0x3D4D8, symSize: 0xC }
  - { offsetInCU: 0x22E2, offset: 0xFBE6C, size: 0x8, addend: 0x0, symName: __ZN4core9core_arch10arm_shared4neon9generated19vreinterpretq_s8_u817hafc1ad86b0d65094E, symObjAddr: 0x14A8, symBinAddr: 0x3D4E4, symSize: 0xC }
  - { offsetInCU: 0x2310, offset: 0xFBE9A, size: 0x8, addend: 0x0, symName: __ZN4core9core_arch10arm_shared4neon9generated20vreinterpret_s32_u3217h88fc7755a563eb19E, symObjAddr: 0x14B4, symBinAddr: 0x3D4F0, symSize: 0xC }
  - { offsetInCU: 0x233E, offset: 0xFBEC8, size: 0x8, addend: 0x0, symName: __ZN4core9core_arch10arm_shared4neon9generated20vreinterpret_s32_u6417h080aa8b12e30e375E, symObjAddr: 0x14C0, symBinAddr: 0x3D4FC, symSize: 0x10 }
  - { offsetInCU: 0x236C, offset: 0xFBEF6, size: 0x8, addend: 0x0, symName: __ZN4core9core_arch10arm_shared4neon9generated20vreinterpret_u16_s3217hcadf23433725a9d9E, symObjAddr: 0x14D0, symBinAddr: 0x3D50C, symSize: 0xC }
  - { offsetInCU: 0x239A, offset: 0xFBF24, size: 0x8, addend: 0x0, symName: __ZN4core9core_arch10arm_shared4neon9generated20vreinterpret_u32_s3217h5cd252c2dbddd376E, symObjAddr: 0x14DC, symBinAddr: 0x3D518, symSize: 0xC }
  - { offsetInCU: 0x23C8, offset: 0xFBF52, size: 0x8, addend: 0x0, symName: __ZN4core9core_arch10arm_shared4neon9generated20vreinterpretq_u16_s817h2ed6517d9c433b47E, symObjAddr: 0x14E8, symBinAddr: 0x3D524, symSize: 0xC }
  - { offsetInCU: 0x23F6, offset: 0xFBF80, size: 0x8, addend: 0x0, symName: __ZN4core9core_arch10arm_shared4neon9generated20vreinterpretq_u16_u817h35325bf6d660da43E, symObjAddr: 0x14F4, symBinAddr: 0x3D530, symSize: 0xC }
  - { offsetInCU: 0x2424, offset: 0xFBFAE, size: 0x8, addend: 0x0, symName: __ZN4core9core_arch10arm_shared4neon9generated20vreinterpretq_u8_s1617h9820501e576d199eE, symObjAddr: 0x1500, symBinAddr: 0x3D53C, symSize: 0xC }
  - { offsetInCU: 0x2452, offset: 0xFBFDC, size: 0x8, addend: 0x0, symName: __ZN4core9core_arch10arm_shared4neon9generated21vreinterpretq_s16_s3217h9bcbfcea7554bbabE, symObjAddr: 0x150C, symBinAddr: 0x3D548, symSize: 0xC }
  - { offsetInCU: 0x2480, offset: 0xFC00A, size: 0x8, addend: 0x0, symName: __ZN4core9core_arch10arm_shared4neon9generated21vreinterpretq_s32_u3217h74baf0ec1c83b6b1E, symObjAddr: 0x1518, symBinAddr: 0x3D554, symSize: 0xC }
  - { offsetInCU: 0x24AE, offset: 0xFC038, size: 0x8, addend: 0x0, symName: __ZN4core9core_arch10arm_shared4neon9generated9vaddq_u1617h373265d097e7915eE, symObjAddr: 0x1524, symBinAddr: 0x3D560, symSize: 0x14 }
  - { offsetInCU: 0x2710, offset: 0xFC29A, size: 0x8, addend: 0x0, symName: __ZN4core9core_arch7aarch644neon9generated9vcgtzq_s817heaf64a1dffe06eb7E, symObjAddr: 0x1538, symBinAddr: 0x3D574, symSize: 0xA8 }
  - { offsetInCU: 0x2805, offset: 0xFC38F, size: 0x8, addend: 0x0, symName: '__ZN100_$LT$core..ops..range..RangeInclusive$LT$T$GT$$u20$as$u20$core..ops..range..RangeBounds$LT$T$GT$$GT$11start_bound17h2f60e2395f73e5ebE', symObjAddr: 0x0, symBinAddr: 0x3C3F0, symSize: 0x24 }
  - { offsetInCU: 0x283C, offset: 0xFC3C6, size: 0x8, addend: 0x0, symName: '__ZN100_$LT$core..ops..range..RangeInclusive$LT$T$GT$$u20$as$u20$core..ops..range..RangeBounds$LT$T$GT$$GT$9end_bound17h77ef7abfed9a109bE', symObjAddr: 0x24, symBinAddr: 0x3C414, symSize: 0x58 }
  - { offsetInCU: 0x2879, offset: 0xFC403, size: 0x8, addend: 0x0, symName: __ZN4core3ops5range11RangeBounds8contains17hba4153852e7ad4cdE, symObjAddr: 0x594, symBinAddr: 0x3C648, symSize: 0x204 }
  - { offsetInCU: 0x2B84, offset: 0xFC70E, size: 0x8, addend: 0x0, symName: '__ZN45_$LT$u64$u20$as$u20$core..ops..bit..BitOr$GT$5bitor17h1e6bd6233df1d11eE', symObjAddr: 0x360, symBinAddr: 0x3C580, symSize: 0x18 }
  - { offsetInCU: 0x2BC7, offset: 0xFC751, size: 0x8, addend: 0x0, symName: '__ZN46_$LT$u64$u20$as$u20$core..ops..bit..BitAnd$GT$6bitand17h8a346b6aa8434526E', symObjAddr: 0x390, symBinAddr: 0x3C598, symSize: 0x18 }
  - { offsetInCU: 0x2C07, offset: 0xFC791, size: 0x8, addend: 0x0, symName: '__ZN53_$LT$u64$u20$as$u20$core..ops..bit..Shl$LT$u8$GT$$GT$3shl17hbed918001b9780feE', symObjAddr: 0x173C, symBinAddr: 0x3D708, symSize: 0x5C }
  - { offsetInCU: 0x2C4A, offset: 0xFC7D4, size: 0x8, addend: 0x0, symName: '__ZN54_$LT$u64$u20$as$u20$core..ops..bit..Shl$LT$i32$GT$$GT$3shl17h0806de066b6ceb20E', symObjAddr: 0x1838, symBinAddr: 0x3D764, symSize: 0x50 }
  - { offsetInCU: 0x2C8D, offset: 0xFC817, size: 0x8, addend: 0x0, symName: '__ZN54_$LT$u64$u20$as$u20$core..ops..bit..Shl$LT$u32$GT$$GT$3shl17hc3e629ea7ac13ffbE', symObjAddr: 0x1888, symBinAddr: 0x3D7B4, symSize: 0x50 }
  - { offsetInCU: 0x2CD0, offset: 0xFC85A, size: 0x8, addend: 0x0, symName: '__ZN54_$LT$u64$u20$as$u20$core..ops..bit..Shr$LT$i32$GT$$GT$3shr17hc11caa98aaac3647E', symObjAddr: 0x18D8, symBinAddr: 0x3D804, symSize: 0x50 }
  - { offsetInCU: 0x2D13, offset: 0xFC89D, size: 0x8, addend: 0x0, symName: '__ZN54_$LT$u64$u20$as$u20$core..ops..bit..Shr$LT$u32$GT$$GT$3shr17h812887db1f4f8f57E', symObjAddr: 0x1928, symBinAddr: 0x3D854, symSize: 0x50 }
  - { offsetInCU: 0x2D5C, offset: 0xFC8E6, size: 0x8, addend: 0x0, symName: '__ZN45_$LT$u64$u20$as$u20$core..ops..arith..Add$GT$3add17h8ace1ada24e0084bE', symObjAddr: 0x24C, symBinAddr: 0x3C46C, symSize: 0x44 }
  - { offsetInCU: 0x2D9C, offset: 0xFC926, size: 0x8, addend: 0x0, symName: '__ZN45_$LT$u64$u20$as$u20$core..ops..arith..Div$GT$3div17hbd8931541ec9130cE', symObjAddr: 0x290, symBinAddr: 0x3C4B0, symSize: 0x48 }
  - { offsetInCU: 0x2DDF, offset: 0xFC969, size: 0x8, addend: 0x0, symName: '__ZN45_$LT$u64$u20$as$u20$core..ops..arith..Mul$GT$3mul17he8a024e3d25dfdddE', symObjAddr: 0x2D8, symBinAddr: 0x3C4F8, symSize: 0x44 }
  - { offsetInCU: 0x2E22, offset: 0xFC9AC, size: 0x8, addend: 0x0, symName: '__ZN45_$LT$u64$u20$as$u20$core..ops..arith..Sub$GT$3sub17h099bd6702223e58dE', symObjAddr: 0x31C, symBinAddr: 0x3C53C, symSize: 0x44 }
  - { offsetInCU: 0x2EB0, offset: 0xFCA3A, size: 0x8, addend: 0x0, symName: '__ZN4core3cmp5impls54_$LT$impl$u20$core..cmp..PartialEq$u20$for$u20$i64$GT$2eq17hb43986b57f8fc30dE', symObjAddr: 0x490, symBinAddr: 0x3C5B0, symSize: 0x2C }
  - { offsetInCU: 0x2EF3, offset: 0xFCA7D, size: 0x8, addend: 0x0, symName: '__ZN4core3cmp5impls54_$LT$impl$u20$core..cmp..PartialEq$u20$for$u20$u64$GT$2eq17h4e384b8f6417fdecE', symObjAddr: 0x514, symBinAddr: 0x3C5DC, symSize: 0x2C }
  - { offsetInCU: 0x2F30, offset: 0xFCABA, size: 0x8, addend: 0x0, symName: '__ZN4core3cmp5impls54_$LT$impl$u20$core..cmp..PartialEq$u20$for$u20$u64$GT$2ne17h491b14189b2da20fE', symObjAddr: 0x540, symBinAddr: 0x3C608, symSize: 0x2C }
  - { offsetInCU: 0x30B2, offset: 0xFCC3C, size: 0x8, addend: 0x0, symName: '__ZN4core3f6421_$LT$impl$u20$f64$GT$7to_bits17h16cba75673ef4f27E', symObjAddr: 0x580, symBinAddr: 0x3C634, symSize: 0x14 }
  - { offsetInCU: 0x3511, offset: 0xFD09B, size: 0x8, addend: 0x0, symName: '__ZN4core3ptr9const_ptr33_$LT$impl$u20$$BP$const$u20$T$GT$11offset_from17h2e7124abe7facbe1E', symObjAddr: 0x1044, symBinAddr: 0x3D080, symSize: 0x48 }
  - { offsetInCU: 0x361F, offset: 0xFD1A9, size: 0x8, addend: 0x0, symName: '__ZN4core3ptr9const_ptr33_$LT$impl$u20$$BP$const$u20$T$GT$6offset18precondition_check17h587d50e0b1a60780E', symObjAddr: 0x108C, symBinAddr: 0x3D0C8, symSize: 0x10C }
  - { offsetInCU: 0x3912, offset: 0xFD49C, size: 0x8, addend: 0x0, symName: __ZN4core3ptr11write_bytes18precondition_check17h3cf5e243d28017dfE, symObjAddr: 0x7C4, symBinAddr: 0x3C878, symSize: 0x16C }
  - { offsetInCU: 0x3A8F, offset: 0xFD619, size: 0x8, addend: 0x0, symName: __ZN4core3ptr15write_unaligned17h574e80d4bbb87281E, symObjAddr: 0x930, symBinAddr: 0x3C9E4, symSize: 0x78 }
  - { offsetInCU: 0x3B4F, offset: 0xFD6D9, size: 0x8, addend: 0x0, symName: __ZN4core3ptr15write_unaligned17h765f7a2ffdb0b483E, symObjAddr: 0x9A8, symBinAddr: 0x3CA5C, symSize: 0x78 }
  - { offsetInCU: 0x3BDA, offset: 0xFD764, size: 0x8, addend: 0x0, symName: __ZN4core3ptr19copy_nonoverlapping18precondition_check17h87a4a04b4247442fE, symObjAddr: 0xA98, symBinAddr: 0x3CAD4, symSize: 0x36C }
  - { offsetInCU: 0x3E8D, offset: 0xFDA17, size: 0x8, addend: 0x0, symName: __ZN4core3ptr4copy18precondition_check17h9b205e1566291d04E, symObjAddr: 0xE04, symBinAddr: 0x3CE40, symSize: 0x240 }
  - { offsetInCU: 0x440D, offset: 0xFDF97, size: 0x8, addend: 0x0, symName: __ZN4core9ub_checks23maybe_is_nonoverlapping7runtime17h38b488b00b1201d0E, symObjAddr: 0x15E0, symBinAddr: 0x3D61C, symSize: 0xD8 }
  - { offsetInCU: 0x49D6, offset: 0xFE560, size: 0x8, addend: 0x0, symName: '__ZN50_$LT$T$u20$as$u20$core..convert..Into$LT$U$GT$$GT$4into17hc6cf7b131cc5c920E', symObjAddr: 0x16D4, symBinAddr: 0x3D6F4, symSize: 0x14 }
  - { offsetInCU: 0x4B0B, offset: 0xFE695, size: 0x8, addend: 0x0, symName: '__ZN4core3ops5range25RangeInclusive$LT$Idx$GT$8contains17habba575545cfe59fE', symObjAddr: 0x798, symBinAddr: 0x3C84C, symSize: 0x2C }
  - { offsetInCU: 0x501A, offset: 0xFEBA4, size: 0x8, addend: 0x0, symName: __ZN4zmij22Pow10SignificandsTable13get_unchecked17h39821507d9d205c4E, symObjAddr: 0x2068, symBinAddr: 0x3DCF8, symSize: 0x1C4 }
  - { offsetInCU: 0x658, offset: 0xFF3B6, size: 0x8, addend: 0x0, symName: '__ZN4core3fmt2rt38_$LT$impl$u20$core..fmt..Arguments$GT$6new_v117hbe89b390a0fce7e8E', symObjAddr: 0x3E0, symBinAddr: 0x3FED8, symSize: 0x50 }
  - { offsetInCU: 0x80, offset: 0xFF48D, size: 0x8, addend: 0x0, symName: '__ZN133_$LT$$LT$serde_core..de..WithDecimalPoint$u20$as$u20$core..fmt..Display$GT$..fmt..LookForDecimalPoint$u20$as$u20$core..fmt..Write$GT$9write_str17h3a65311f03aef224E', symObjAddr: 0x421C, symBinAddr: 0x4343C, symSize: 0x70 }
  - { offsetInCU: 0xBD, offset: 0xFF4CA, size: 0x8, addend: 0x0, symName: '__ZN133_$LT$$LT$serde_core..de..WithDecimalPoint$u20$as$u20$core..fmt..Display$GT$..fmt..LookForDecimalPoint$u20$as$u20$core..fmt..Write$GT$10write_char17hc54ce88df4f13374E', symObjAddr: 0x428C, symBinAddr: 0x434AC, symSize: 0x44 }
  - { offsetInCU: 0xFC, offset: 0xFF509, size: 0x8, addend: 0x0, symName: '__ZN71_$LT$serde_core..de..WithDecimalPoint$u20$as$u20$core..fmt..Display$GT$3fmt17h33c219265449c154E', symObjAddr: 0x40D8, symBinAddr: 0x432F8, symSize: 0x144 }
  - { offsetInCU: 0x1F0, offset: 0xFF5FD, size: 0x8, addend: 0x0, symName: '__ZN78_$LT$serde_core..de..impls..UnitVisitor$u20$as$u20$serde_core..de..Visitor$GT$9expecting17h62b4580bb37bffdaE', symObjAddr: 0x344C, symBinAddr: 0x42AEC, symSize: 0x40 }
  - { offsetInCU: 0x230, offset: 0xFF63D, size: 0x8, addend: 0x0, symName: '__ZN80_$LT$serde_core..de..impls..StringVisitor$u20$as$u20$serde_core..de..Visitor$GT$9expecting17hfc41549582ecd8fbE', symObjAddr: 0x350C, symBinAddr: 0x42B2C, symSize: 0x40 }
  - { offsetInCU: 0x299, offset: 0xFF6A6, size: 0x8, addend: 0x0, symName: '__ZN65_$LT$serde_core..de..Unexpected$u20$as$u20$core..fmt..Display$GT$3fmt17hb9daf7fbbc14b4b2E', symObjAddr: 0x394C, symBinAddr: 0x42B6C, symSize: 0x400 }
  - { offsetInCU: 0x46D, offset: 0xFF87A, size: 0x8, addend: 0x0, symName: '__ZN52_$LT$$RF$str$u20$as$u20$serde_core..de..Expected$GT$3fmt17h75249d4e504a3a66E', symObjAddr: 0x3D4C, symBinAddr: 0x42F6C, symSize: 0x3C }
  - { offsetInCU: 0x4B0, offset: 0xFF8BD, size: 0x8, addend: 0x0, symName: '__ZN71_$LT$dyn$u20$serde_core..de..Expected$u20$as$u20$core..fmt..Display$GT$3fmt17hd5b9e4dcae3c3de0E', symObjAddr: 0x3D88, symBinAddr: 0x42FA8, symSize: 0x40 }
  - { offsetInCU: 0x4F3, offset: 0xFF900, size: 0x8, addend: 0x0, symName: '__ZN60_$LT$serde_core..de..OneOf$u20$as$u20$core..fmt..Display$GT$3fmt17hbcb35ac01d5fbaa8E', symObjAddr: 0x3DC8, symBinAddr: 0x42FE8, symSize: 0x310 }
  - { offsetInCU: 0x646, offset: 0xFFA53, size: 0x8, addend: 0x0, symName: '__ZN60_$LT$serde_core..de..OneOf$u20$as$u20$core..fmt..Display$GT$3fmt19panic_cold_explicit17hf33721b412830dcfE', symObjAddr: 0x5218, symBinAddr: 0xA5988, symSize: 0xC }
  - { offsetInCU: 0x907, offset: 0xFFD14, size: 0x8, addend: 0x0, symName: '__ZN44_$LT$$RF$T$u20$as$u20$core..fmt..Display$GT$3fmt17hd24644c81e9ff3caE', symObjAddr: 0x1A0, symBinAddr: 0x40008, symSize: 0x30 }
  - { offsetInCU: 0xC7C, offset: 0x100089, size: 0x8, addend: 0x0, symName: __ZN4core3fmt5Write9write_fmt17hbec27ab9459ab0b6E, symObjAddr: 0x548, symBinAddr: 0x40394, symSize: 0x24 }
  - { offsetInCU: 0xCCA, offset: 0x1000D7, size: 0x8, addend: 0x0, symName: '__ZN75_$LT$$RF$mut$u20$W$u20$as$u20$core..fmt..Write..write_fmt..SpecWriteFmt$GT$14spec_write_fmt17h8e4eb69ace590ea8E', symObjAddr: 0x2904, symBinAddr: 0x421F0, symSize: 0x160 }
  - { offsetInCU: 0xEDB, offset: 0x1002E8, size: 0x8, addend: 0x0, symName: __ZN4core3cmp3Ord3max17h14844953d6b9022fE, symObjAddr: 0x1EC, symBinAddr: 0x40038, symSize: 0x80 }
  - { offsetInCU: 0x1596, offset: 0x1009A3, size: 0x8, addend: 0x0, symName: '__ZN4core3ptr49drop_in_place$LT$alloc..boxed..Box$LT$str$GT$$GT$17h8230f1868ecf8d63E', symObjAddr: 0xBB0, symBinAddr: 0x40690, symSize: 0x2C }
  - { offsetInCU: 0x176D, offset: 0x100B7A, size: 0x8, addend: 0x0, symName: '__ZN4core3num23_$LT$impl$u20$usize$GT$13unchecked_add18precondition_check17ha6d0c6f92c216f82E', symObjAddr: 0x6E8, symBinAddr: 0x40534, symSize: 0xB0 }
  - { offsetInCU: 0x1801, offset: 0x100C0E, size: 0x8, addend: 0x0, symName: '__ZN4core3num23_$LT$impl$u20$usize$GT$13unchecked_sub18precondition_check17h82655769b0f5efaeE', symObjAddr: 0x798, symBinAddr: 0x405E4, symSize: 0xAC }
  - { offsetInCU: 0x2040, offset: 0x10144D, size: 0x8, addend: 0x0, symName: '__ZN4core5slice29_$LT$impl$u20$$u5b$T$u5d$$GT$4iter17h204f209722fe15abE', symObjAddr: 0x2088, symBinAddr: 0x41A88, symSize: 0x28 }
  - { offsetInCU: 0x2133, offset: 0x101540, size: 0x8, addend: 0x0, symName: __ZN4core5slice3raw18from_raw_parts_mut18precondition_check17hc8ae91f03c064593E, symObjAddr: 0x20B0, symBinAddr: 0x41AB0, symSize: 0x1DC }
  - { offsetInCU: 0x2365, offset: 0x101772, size: 0x8, addend: 0x0, symName: '__ZN91_$LT$core..slice..iter..Iter$LT$T$GT$$u20$as$u20$core..iter..traits..iterator..Iterator$GT$4next17h19fca0c99028772fE', symObjAddr: 0x30A0, symBinAddr: 0x4298C, symSize: 0xB0 }
  - { offsetInCU: 0x249F, offset: 0x1018AC, size: 0x8, addend: 0x0, symName: '__ZN91_$LT$core..slice..iter..Iter$LT$T$GT$$u20$as$u20$core..iter..traits..iterator..Iterator$GT$4next17he094bf4fc63717d3E', symObjAddr: 0x3150, symBinAddr: 0x42A3C, symSize: 0xB0 }
  - { offsetInCU: 0x2615, offset: 0x101A22, size: 0x8, addend: 0x0, symName: __ZN4core5slice6memchr6memchr17h9a5c340cebc9c05cE, symObjAddr: 0x22DC, symBinAddr: 0x41CDC, symSize: 0x114 }
  - { offsetInCU: 0x2897, offset: 0x101CA4, size: 0x8, addend: 0x0, symName: '__ZN110_$LT$core..iter..adapters..enumerate..Enumerate$LT$I$GT$$u20$as$u20$core..iter..traits..iterator..Iterator$GT$4next17h088d31d3dcbc2116E', symObjAddr: 0xC0, symBinAddr: 0x3FF28, symSize: 0xE0 }
  - { offsetInCU: 0x2CC7, offset: 0x1020D4, size: 0x8, addend: 0x0, symName: __ZN4core4iter6traits8iterator8Iterator9enumerate17h3e76908b39554d28E, symObjAddr: 0x1EF8, symBinAddr: 0x419A4, symSize: 0x28 }
  - { offsetInCU: 0x2D1F, offset: 0x10212C, size: 0x8, addend: 0x0, symName: '__ZN63_$LT$I$u20$as$u20$core..iter..traits..collect..IntoIterator$GT$9into_iter17h4962a56fb7fa75daE', symObjAddr: 0x276C, symBinAddr: 0x42094, symSize: 0x18 }
  - { offsetInCU: 0x2D82, offset: 0x10218F, size: 0x8, addend: 0x0, symName: '__ZN4core3f6421_$LT$impl$u20$f64$GT$9is_finite17hef238476ccd97b21E', symObjAddr: 0x26C, symBinAddr: 0x400B8, symSize: 0x2C }
  - { offsetInCU: 0x3064, offset: 0x102471, size: 0x8, addend: 0x0, symName: __ZN4core3str11validations15next_code_point17hc7855df93ed84580E, symObjAddr: 0xBDC, symBinAddr: 0x406BC, symSize: 0x224 }
  - { offsetInCU: 0x32B1, offset: 0x1026BE, size: 0x8, addend: 0x0, symName: '__ZN4core3str21_$LT$impl$u20$str$GT$8contains17hfc2dbb1ba7113fa2E', symObjAddr: 0xE1C, symBinAddr: 0x408E0, symSize: 0x44 }
  - { offsetInCU: 0x33ED, offset: 0x1027FA, size: 0x8, addend: 0x0, symName: '__ZN4core3str6traits108_$LT$impl$u20$core..slice..index..SliceIndex$LT$str$GT$$u20$for$u20$core..ops..range..Range$LT$usize$GT$$GT$13get_unchecked18precondition_check17h8bb1ee873994908fE', symObjAddr: 0xE60, symBinAddr: 0x40924, symSize: 0xCC }
  - { offsetInCU: 0x34E8, offset: 0x1028F5, size: 0x8, addend: 0x0, symName: '__ZN4core3str6traits112_$LT$impl$u20$core..slice..index..SliceIndex$LT$str$GT$$u20$for$u20$core..ops..range..RangeFrom$LT$usize$GT$$GT$3get17h306f6903706ecb79E', symObjAddr: 0xF2C, symBinAddr: 0x409F0, symSize: 0x150 }
  - { offsetInCU: 0x3899, offset: 0x102CA6, size: 0x8, addend: 0x0, symName: '__ZN52_$LT$char$u20$as$u20$core..str..pattern..Pattern$GT$15is_contained_in17h068183279be20442E', symObjAddr: 0x24C8, symBinAddr: 0x41DF0, symSize: 0xD8 }
  - { offsetInCU: 0x39D4, offset: 0x102DE1, size: 0x8, addend: 0x0, symName: '__ZN55_$LT$$RF$str$u20$as$u20$core..str..pattern..Pattern$GT$15is_contained_in17h8733c9745e8deb82E', symObjAddr: 0x25A0, symBinAddr: 0x41EC8, symSize: 0x1CC }
  - { offsetInCU: 0x3D2E, offset: 0x10313B, size: 0x8, addend: 0x0, symName: '__ZN80_$LT$core..str..pattern..StrSearcher$u20$as$u20$core..str..pattern..Searcher$GT$10next_match17hdff4b7f34147ddceE', symObjAddr: 0x2A64, symBinAddr: 0x42350, symSize: 0x148 }
  - { offsetInCU: 0x3DBA, offset: 0x1031C7, size: 0x8, addend: 0x0, symName: '__ZN80_$LT$core..str..pattern..StrSearcher$u20$as$u20$core..str..pattern..Searcher$GT$4next17h27a4e4ca9dd8a0cbE', symObjAddr: 0x2BAC, symBinAddr: 0x42498, symSize: 0x454 }
  - { offsetInCU: 0x40C5, offset: 0x1034D2, size: 0x8, addend: 0x0, symName: '__ZN84_$LT$core..str..pattern..MatchOnly$u20$as$u20$core..str..pattern..TwoWayStrategy$GT$16use_early_reject17hbc97beeec6a00ee4E', symObjAddr: 0x3000, symBinAddr: 0x428EC, symSize: 0xC }
  - { offsetInCU: 0x40E3, offset: 0x1034F0, size: 0x8, addend: 0x0, symName: '__ZN84_$LT$core..str..pattern..MatchOnly$u20$as$u20$core..str..pattern..TwoWayStrategy$GT$8matching17hd70b7eca60348153E', symObjAddr: 0x300C, symBinAddr: 0x428F8, symSize: 0x28 }
  - { offsetInCU: 0x4120, offset: 0x10352D, size: 0x8, addend: 0x0, symName: '__ZN84_$LT$core..str..pattern..MatchOnly$u20$as$u20$core..str..pattern..TwoWayStrategy$GT$9rejecting17hc50172d2d80be90aE', symObjAddr: 0x3034, symBinAddr: 0x42920, symSize: 0x18 }
  - { offsetInCU: 0x4163, offset: 0x103570, size: 0x8, addend: 0x0, symName: '__ZN89_$LT$core..str..pattern..RejectAndMatch$u20$as$u20$core..str..pattern..TwoWayStrategy$GT$16use_early_reject17hefc1fc29fd5b328eE', symObjAddr: 0x304C, symBinAddr: 0x42938, symSize: 0xC }
  - { offsetInCU: 0x4181, offset: 0x10358E, size: 0x8, addend: 0x0, symName: '__ZN89_$LT$core..str..pattern..RejectAndMatch$u20$as$u20$core..str..pattern..TwoWayStrategy$GT$8matching17h49757114e6b658d9E', symObjAddr: 0x3058, symBinAddr: 0x42944, symSize: 0x20 }
  - { offsetInCU: 0x41BE, offset: 0x1035CB, size: 0x8, addend: 0x0, symName: '__ZN89_$LT$core..str..pattern..RejectAndMatch$u20$as$u20$core..str..pattern..TwoWayStrategy$GT$9rejecting17hd28ba4cfec85b729E', symObjAddr: 0x3078, symBinAddr: 0x42964, symSize: 0x28 }
  - { offsetInCU: 0x42B3, offset: 0x1036C0, size: 0x8, addend: 0x0, symName: __ZN4core4hint21unreachable_unchecked18precondition_check17h0005b2faceef6323E, symObjAddr: 0x1E74, symBinAddr: 0x41920, symSize: 0x84 }
  - { offsetInCU: 0x4349, offset: 0x103756, size: 0x8, addend: 0x0, symName: __ZN4core4char7convert18from_u32_unchecked18precondition_check17h9978a042e31aee56E, symObjAddr: 0x1B14, symBinAddr: 0x415C0, symSize: 0x104 }
  - { offsetInCU: 0x446F, offset: 0x10387C, size: 0x8, addend: 0x0, symName: __ZN4core4char7methods15encode_utf8_raw17h293049c715a0c433E, symObjAddr: 0x1C18, symBinAddr: 0x416C4, symSize: 0x110 }
  - { offsetInCU: 0x456F, offset: 0x10397C, size: 0x8, addend: 0x0, symName: __ZN4core4char7methods25encode_utf8_raw_unchecked17h5310d8f4cdbb8f17E, symObjAddr: 0x1D28, symBinAddr: 0x417D4, symSize: 0x14C }
  - { offsetInCU: 0x475A, offset: 0x103B67, size: 0x8, addend: 0x0, symName: __ZN4core5alloc6layout6Layout25from_size_align_unchecked18precondition_check17hac510dbe0ba21e08E, symObjAddr: 0x1F20, symBinAddr: 0x419CC, symSize: 0xBC }
  - { offsetInCU: 0x4A73, offset: 0x103E80, size: 0x8, addend: 0x0, symName: '__ZN4core3fmt2rt38_$LT$impl$u20$core..fmt..Arguments$GT$6new_v117h1ccca07df22e6c80E', symObjAddr: 0x298, symBinAddr: 0x400E4, symSize: 0x54 }
  - { offsetInCU: 0x4AD7, offset: 0x103EE4, size: 0x8, addend: 0x0, symName: '__ZN4core3fmt2rt38_$LT$impl$u20$core..fmt..Arguments$GT$6new_v117h38ffdaf60d22f1bcE', symObjAddr: 0x2EC, symBinAddr: 0x40138, symSize: 0x50 }
  - { offsetInCU: 0x4B21, offset: 0x103F2E, size: 0x8, addend: 0x0, symName: '__ZN4core3fmt2rt38_$LT$impl$u20$core..fmt..Arguments$GT$6new_v117had9f56bbd0d7b145E', symObjAddr: 0x33C, symBinAddr: 0x40188, symSize: 0x54 }
  - { offsetInCU: 0x4B65, offset: 0x103F72, size: 0x8, addend: 0x0, symName: __ZN4core3fmt2rt8Argument11new_display17h05ce74a0a26d5fa1E, symObjAddr: 0x390, symBinAddr: 0x401DC, symSize: 0x2C }
  - { offsetInCU: 0x4B9D, offset: 0x103FAA, size: 0x8, addend: 0x0, symName: __ZN4core3fmt2rt8Argument11new_display17h0f9f1574591ee439E, symObjAddr: 0x3BC, symBinAddr: 0x40208, symSize: 0x2C }
  - { offsetInCU: 0x4BD5, offset: 0x103FE2, size: 0x8, addend: 0x0, symName: __ZN4core3fmt2rt8Argument11new_display17h4ed41f49a2c4d24cE, symObjAddr: 0x3E8, symBinAddr: 0x40234, symSize: 0x2C }
  - { offsetInCU: 0x4C0D, offset: 0x10401A, size: 0x8, addend: 0x0, symName: __ZN4core3fmt2rt8Argument11new_display17h5391f936b8d6cc52E, symObjAddr: 0x414, symBinAddr: 0x40260, symSize: 0x2C }
  - { offsetInCU: 0x4C45, offset: 0x104052, size: 0x8, addend: 0x0, symName: __ZN4core3fmt2rt8Argument11new_display17h7856de65dea672bfE, symObjAddr: 0x440, symBinAddr: 0x4028C, symSize: 0x2C }
  - { offsetInCU: 0x4C70, offset: 0x10407D, size: 0x8, addend: 0x0, symName: __ZN4core3fmt2rt8Argument11new_display17hbffd46f3490ff3d6E, symObjAddr: 0x46C, symBinAddr: 0x402B8, symSize: 0x2C }
  - { offsetInCU: 0x4CA8, offset: 0x1040B5, size: 0x8, addend: 0x0, symName: __ZN4core3fmt2rt8Argument11new_display17hd1a7ffeeb7261550E, symObjAddr: 0x498, symBinAddr: 0x402E4, symSize: 0x2C }
  - { offsetInCU: 0x4CD3, offset: 0x1040E0, size: 0x8, addend: 0x0, symName: __ZN4core3fmt2rt8Argument11new_display17he13af08941b1f3d2E, symObjAddr: 0x4C4, symBinAddr: 0x40310, symSize: 0x2C }
  - { offsetInCU: 0x4D12, offset: 0x10411F, size: 0x8, addend: 0x0, symName: __ZN4core3fmt2rt8Argument11new_display17he7e3599ad9b2eec2E, symObjAddr: 0x4F0, symBinAddr: 0x4033C, symSize: 0x2C }
  - { offsetInCU: 0x4D3D, offset: 0x10414A, size: 0x8, addend: 0x0, symName: __ZN4core3fmt2rt8Argument9new_debug17h72fb3543b941611cE, symObjAddr: 0x51C, symBinAddr: 0x40368, symSize: 0x2C }
  - { offsetInCU: 0x4DB9, offset: 0x1041C6, size: 0x8, addend: 0x0, symName: __ZN4core3fmt9Formatter9write_fmt17hadd321bf3ce9c05bE, symObjAddr: 0x56C, symBinAddr: 0x403B8, symSize: 0x17C }
  - { offsetInCU: 0x4FD8, offset: 0x1043E5, size: 0x8, addend: 0x0, symName: __ZN4core3str7pattern14TwoWaySearcher4next17h3e47b49452cafedbE, symObjAddr: 0x107C, symBinAddr: 0x40B40, symSize: 0x540 }
  - { offsetInCU: 0x5374, offset: 0x104781, size: 0x8, addend: 0x0, symName: __ZN4core3str7pattern14TwoWaySearcher4next17hdb04ce3ae25521ffE, symObjAddr: 0x15BC, symBinAddr: 0x41080, symSize: 0x540 }
  - { offsetInCU: 0x5819, offset: 0x104C26, size: 0x8, addend: 0x0, symName: '__ZN4core5slice4iter13Iter$LT$T$GT$3new17ha8bb43d2547b3143E', symObjAddr: 0x228C, symBinAddr: 0x41C8C, symSize: 0x50 }
  - { offsetInCU: 0x5A20, offset: 0x104E2D, size: 0x8, addend: 0x0, symName: '__ZN63_$LT$alloc..alloc..Global$u20$as$u20$core..alloc..Allocator$GT$10deallocate17h9b1607b02221b4feE', symObjAddr: 0x2784, symBinAddr: 0x420AC, symSize: 0x80 }
  - { offsetInCU: 0x5AFB, offset: 0x104F08, size: 0x8, addend: 0x0, symName: '__ZN72_$LT$alloc..boxed..Box$LT$T$C$A$GT$$u20$as$u20$core..ops..drop..Drop$GT$4drop17h055ba3ac85b2b023E', symObjAddr: 0x2840, symBinAddr: 0x4212C, symSize: 0xC4 }
  - { offsetInCU: 0x1E, offset: 0x1053BD, size: 0x8, addend: 0x0, symName: '__ZN44_$LT$$RF$T$u20$as$u20$core..fmt..Display$GT$3fmt17h99f1ecf86a631451E', symObjAddr: 0x0, symBinAddr: 0x434F0, symSize: 0x30 }
  - { offsetInCU: 0x7A, offset: 0x105419, size: 0x8, addend: 0x0, symName: '__ZN45_$LT$T$u20$as$u20$alloc..string..ToString$GT$9to_string17hc0f527c2d5e599fcE', symObjAddr: 0xF0, symBinAddr: 0x43574, symSize: 0x24 }
  - { offsetInCU: 0xB7, offset: 0x105456, size: 0x8, addend: 0x0, symName: '__ZN49_$LT$T$u20$as$u20$alloc..string..SpecToString$GT$14spec_to_string17h4e508e9106125e48E', symObjAddr: 0x114, symBinAddr: 0x43598, symSize: 0xF4 }
  - { offsetInCU: 0x25D, offset: 0x1055FC, size: 0x8, addend: 0x0, symName: '__ZN44_$LT$T$u20$as$u20$alloc..borrow..ToOwned$GT$8to_owned17h0fce359fdd968844E', symObjAddr: 0x60, symBinAddr: 0x43550, symSize: 0x24 }
  - { offsetInCU: 0x6D6, offset: 0x105A75, size: 0x8, addend: 0x0, symName: '__ZN44_$LT$$RF$T$u20$as$u20$core..fmt..Display$GT$3fmt17h99f1ecf86a631451E', symObjAddr: 0x0, symBinAddr: 0x434F0, symSize: 0x30 }
  - { offsetInCU: 0x71C, offset: 0x105ABB, size: 0x8, addend: 0x0, symName: '__ZN44_$LT$$RF$T$u20$as$u20$core..fmt..Display$GT$3fmt17h9b10dcb422712423E', symObjAddr: 0x30, symBinAddr: 0x43520, symSize: 0x30 }
  - { offsetInCU: 0x8D5, offset: 0x105C74, size: 0x8, addend: 0x0, symName: '__ZN4core5array4iter94_$LT$impl$u20$core..iter..traits..collect..IntoIterator$u20$for$u20$$u5b$T$u3b$$u20$N$u5d$$GT$9into_iter17heb80ee16e023bee0E', symObjAddr: 0x240, symBinAddr: 0x4368C, symSize: 0x48 }
  - { offsetInCU: 0x170A, offset: 0x106AA9, size: 0x8, addend: 0x0, symName: '__ZN50_$LT$T$u20$as$u20$core..convert..Into$LT$U$GT$$GT$4into17h1fea90c94bf0e78cE', symObjAddr: 0x288, symBinAddr: 0x436D4, symSize: 0x24 }
  - { offsetInCU: 0x174A, offset: 0x106AE9, size: 0x8, addend: 0x0, symName: '__ZN50_$LT$T$u20$as$u20$core..convert..Into$LT$U$GT$$GT$4into17h4c8efc5f3c41c102E', symObjAddr: 0x2AC, symBinAddr: 0x436F8, symSize: 0x24 }
  - { offsetInCU: 0x178A, offset: 0x106B29, size: 0x8, addend: 0x0, symName: '__ZN50_$LT$T$u20$as$u20$core..convert..Into$LT$U$GT$$GT$4into17ha953e2011bace45aE', symObjAddr: 0x2D0, symBinAddr: 0x4371C, symSize: 0x24 }
  - { offsetInCU: 0x17CA, offset: 0x106B69, size: 0x8, addend: 0x0, symName: '__ZN50_$LT$T$u20$as$u20$core..convert..Into$LT$U$GT$$GT$4into17hd136756402791822E', symObjAddr: 0x318, symBinAddr: 0x43740, symSize: 0x24 }
  - { offsetInCU: 0x35D9, offset: 0x108978, size: 0x8, addend: 0x0, symName: '__ZN4pyo38instance36Bound$LT$pyo3..types..any..PyAny$GT$21from_owned_ptr_or_opt28_$u7b$$u7b$closure$u7d$$u7d$17h842ed9b00daca8b6E', symObjAddr: 0xE94, symBinAddr: 0x43A80, symSize: 0x28 }
  - { offsetInCU: 0x3637, offset: 0x1089D6, size: 0x8, addend: 0x0, symName: '__ZN4pyo38instance36Bound$LT$pyo3..types..any..PyAny$GT$21from_owned_ptr_or_err28_$u7b$$u7b$closure$u7d$$u7d$17hab152df446fbc541E', symObjAddr: 0xEFC, symBinAddr: 0x43AE8, symSize: 0x28 }
  - { offsetInCU: 0x3765, offset: 0x108B04, size: 0x8, addend: 0x0, symName: '__ZN67_$LT$pyo3..instance..Bound$LT$T$GT$$u20$as$u20$core..fmt..Debug$GT$3fmt17had680f13f7d92157E', symObjAddr: 0x1038, symBinAddr: 0x43B84, symSize: 0x54 }
  - { offsetInCU: 0x37C9, offset: 0x108B68, size: 0x8, addend: 0x0, symName: '__ZN67_$LT$pyo3..instance..Bound$LT$T$GT$$u20$as$u20$core..fmt..Debug$GT$3fmt17hbe67028c78135457E', symObjAddr: 0x108C, symBinAddr: 0x43BD8, symSize: 0x54 }
  - { offsetInCU: 0x382D, offset: 0x108BCC, size: 0x8, addend: 0x0, symName: '__ZN67_$LT$pyo3..instance..Bound$LT$T$GT$$u20$as$u20$core..fmt..Debug$GT$3fmt17hffbde6b988e71269E', symObjAddr: 0x10E0, symBinAddr: 0x43C2C, symSize: 0x54 }
  - { offsetInCU: 0x3897, offset: 0x108C36, size: 0x8, addend: 0x0, symName: '__ZN69_$LT$pyo3..instance..Bound$LT$T$GT$$u20$as$u20$core..fmt..Display$GT$3fmt17h673cfaa3350dc5cbE', symObjAddr: 0x1134, symBinAddr: 0x43C80, symSize: 0x54 }
  - { offsetInCU: 0x38FB, offset: 0x108C9A, size: 0x8, addend: 0x0, symName: '__ZN69_$LT$pyo3..instance..Bound$LT$T$GT$$u20$as$u20$core..fmt..Display$GT$3fmt17h98dbbbb67eb77ba6E', symObjAddr: 0x1188, symBinAddr: 0x43CD4, symSize: 0x54 }
  - { offsetInCU: 0x395F, offset: 0x108CFE, size: 0x8, addend: 0x0, symName: '__ZN69_$LT$pyo3..instance..Bound$LT$T$GT$$u20$as$u20$core..fmt..Display$GT$3fmt17he0031292219bc2b7E', symObjAddr: 0x11DC, symBinAddr: 0x43D28, symSize: 0x54 }
  - { offsetInCU: 0x39C4, offset: 0x108D63, size: 0x8, addend: 0x0, symName: __ZN4pyo38instance13python_format17h6290c5a4fa046423E, symObjAddr: 0x1284, symBinAddr: 0x43D7C, symSize: 0x2F4 }
  - { offsetInCU: 0x3A91, offset: 0x108E30, size: 0x8, addend: 0x0, symName: '__ZN74_$LT$pyo3..instance..Bound$LT$T$GT$$u20$as$u20$core..ops..deref..Deref$GT$5deref17h190d5882f9e9338aE', symObjAddr: 0x1578, symBinAddr: 0x44070, symSize: 0x24 }
  - { offsetInCU: 0x3AC8, offset: 0x108E67, size: 0x8, addend: 0x0, symName: '__ZN74_$LT$pyo3..instance..Bound$LT$T$GT$$u20$as$u20$core..ops..deref..Deref$GT$5deref17h30cf2ab4bc2109e7E', symObjAddr: 0x15E4, symBinAddr: 0x44094, symSize: 0x24 }
  - { offsetInCU: 0x3AFF, offset: 0x108E9E, size: 0x8, addend: 0x0, symName: '__ZN74_$LT$pyo3..instance..Bound$LT$T$GT$$u20$as$u20$core..ops..deref..Deref$GT$5deref17h79911639933dee32E', symObjAddr: 0x1650, symBinAddr: 0x440B8, symSize: 0x24 }
  - { offsetInCU: 0x3B36, offset: 0x108ED5, size: 0x8, addend: 0x0, symName: '__ZN74_$LT$pyo3..instance..Bound$LT$T$GT$$u20$as$u20$core..ops..deref..Deref$GT$5deref17hb681c8505cde6dbfE', symObjAddr: 0x16E0, symBinAddr: 0x440DC, symSize: 0x24 }
  - { offsetInCU: 0x3B6D, offset: 0x108F0C, size: 0x8, addend: 0x0, symName: '__ZN74_$LT$pyo3..instance..Bound$LT$T$GT$$u20$as$u20$core..ops..deref..Deref$GT$5deref17hea5eb9acee9b069dE', symObjAddr: 0x174C, symBinAddr: 0x44100, symSize: 0x24 }
  - { offsetInCU: 0x3BAA, offset: 0x108F49, size: 0x8, addend: 0x0, symName: '__ZN128_$LT$pyo3..instance..Bound$LT$T$GT$$u20$as$u20$core..convert..AsRef$LT$pyo3..instance..Py$LT$pyo3..types..any..PyAny$GT$$GT$$GT$6as_ref17hcd13e9dec9318ca2E', symObjAddr: 0x1770, symBinAddr: 0x44124, symSize: 0x28 }
  - { offsetInCU: 0x3BE7, offset: 0x108F86, size: 0x8, addend: 0x0, symName: '__ZN69_$LT$pyo3..instance..Bound$LT$T$GT$$u20$as$u20$core..clone..Clone$GT$5clone17hb69dee18baf70125E', symObjAddr: 0x1938, symBinAddr: 0x4414C, symSize: 0x34 }
  - { offsetInCU: 0x3C1E, offset: 0x108FBD, size: 0x8, addend: 0x0, symName: '__ZN69_$LT$pyo3..instance..Bound$LT$T$GT$$u20$as$u20$core..clone..Clone$GT$5clone17hd68a2a9243411dfaE', symObjAddr: 0x19A0, symBinAddr: 0x44180, symSize: 0x34 }
  - { offsetInCU: 0x3C55, offset: 0x108FF4, size: 0x8, addend: 0x0, symName: '__ZN69_$LT$pyo3..instance..Bound$LT$T$GT$$u20$as$u20$core..clone..Clone$GT$5clone17he3152c138b597019E', symObjAddr: 0x1A08, symBinAddr: 0x441B4, symSize: 0x34 }
  - { offsetInCU: 0x3C92, offset: 0x109031, size: 0x8, addend: 0x0, symName: '__ZN72_$LT$pyo3..instance..Bound$LT$T$GT$$u20$as$u20$core..ops..drop..Drop$GT$4drop17h3026d2f1e89bad3eE', symObjAddr: 0x1BE4, symBinAddr: 0x441E8, symSize: 0x1A8 }
  - { offsetInCU: 0x3D01, offset: 0x1090A0, size: 0x8, addend: 0x0, symName: '__ZN72_$LT$pyo3..instance..Bound$LT$T$GT$$u20$as$u20$core..ops..drop..Drop$GT$4drop17h39bc0351d67afbfeE', symObjAddr: 0x1D8C, symBinAddr: 0x44390, symSize: 0x1A8 }
  - { offsetInCU: 0x3D70, offset: 0x10910F, size: 0x8, addend: 0x0, symName: '__ZN72_$LT$pyo3..instance..Bound$LT$T$GT$$u20$as$u20$core..ops..drop..Drop$GT$4drop17h743f84cc2b7e19e7E', symObjAddr: 0x2284, symBinAddr: 0x44538, symSize: 0x1A8 }
  - { offsetInCU: 0x3DDF, offset: 0x10917E, size: 0x8, addend: 0x0, symName: '__ZN72_$LT$pyo3..instance..Bound$LT$T$GT$$u20$as$u20$core..ops..drop..Drop$GT$4drop17ha779a92804bf837fE', symObjAddr: 0x277C, symBinAddr: 0x446E0, symSize: 0x1A8 }
  - { offsetInCU: 0x3E4E, offset: 0x1091ED, size: 0x8, addend: 0x0, symName: '__ZN72_$LT$pyo3..instance..Bound$LT$T$GT$$u20$as$u20$core..ops..drop..Drop$GT$4drop17hbd7ae4af0f538155E', symObjAddr: 0x2924, symBinAddr: 0x44888, symSize: 0x1A8 }
  - { offsetInCU: 0x3EBD, offset: 0x10925C, size: 0x8, addend: 0x0, symName: '__ZN72_$LT$pyo3..instance..Bound$LT$T$GT$$u20$as$u20$core..ops..drop..Drop$GT$4drop17hcf179b91a879ce08E', symObjAddr: 0x2C74, symBinAddr: 0x44A30, symSize: 0x1A8 }
  - { offsetInCU: 0x3F2C, offset: 0x1092CB, size: 0x8, addend: 0x0, symName: '__ZN72_$LT$pyo3..instance..Bound$LT$T$GT$$u20$as$u20$core..ops..drop..Drop$GT$4drop17hd4e8f848e9cd3c10E', symObjAddr: 0x2FC4, symBinAddr: 0x44BD8, symSize: 0x1A8 }
  - { offsetInCU: 0x3F9B, offset: 0x10933A, size: 0x8, addend: 0x0, symName: '__ZN72_$LT$pyo3..instance..Bound$LT$T$GT$$u20$as$u20$core..ops..drop..Drop$GT$4drop17hd5ba178122888915E', symObjAddr: 0x316C, symBinAddr: 0x44D80, symSize: 0x1A8 }
  - { offsetInCU: 0x400A, offset: 0x1093A9, size: 0x8, addend: 0x0, symName: '__ZN72_$LT$pyo3..instance..Bound$LT$T$GT$$u20$as$u20$core..ops..drop..Drop$GT$4drop17hf13e1c2689c968e1E', symObjAddr: 0x34BC, symBinAddr: 0x44F28, symSize: 0x1A8 }
  - { offsetInCU: 0x4079, offset: 0x109418, size: 0x8, addend: 0x0, symName: '__ZN72_$LT$pyo3..instance..Bound$LT$T$GT$$u20$as$u20$core..ops..drop..Drop$GT$4drop17hf441c5f55cd3f08cE', symObjAddr: 0x3664, symBinAddr: 0x450D0, symSize: 0x1A8 }
  - { offsetInCU: 0x57C7, offset: 0x10AB66, size: 0x8, addend: 0x0, symName: '__ZN87_$LT$pyo3..instance..Bound$LT$T$GT$$u20$as$u20$pyo3..instance..BoundObject$LT$T$GT$$GT$11as_borrowed17h9d9eff5da077c968E', symObjAddr: 0x50D0, symBinAddr: 0x45DB4, symSize: 0x24 }
  - { offsetInCU: 0x57FE, offset: 0x10AB9D, size: 0x8, addend: 0x0, symName: '__ZN87_$LT$pyo3..instance..Bound$LT$T$GT$$u20$as$u20$pyo3..instance..BoundObject$LT$T$GT$$GT$10into_bound17ha2bc63355861c560E', symObjAddr: 0x50F4, symBinAddr: 0x45DD8, symSize: 0x14 }
  - { offsetInCU: 0x5835, offset: 0x10ABD4, size: 0x8, addend: 0x0, symName: '__ZN87_$LT$pyo3..instance..Bound$LT$T$GT$$u20$as$u20$pyo3..instance..BoundObject$LT$T$GT$$GT$8into_any17h1f25ef6cefcfbb0aE', symObjAddr: 0x5108, symBinAddr: 0x45DEC, symSize: 0x24 }
  - { offsetInCU: 0x586C, offset: 0x10AC0B, size: 0x8, addend: 0x0, symName: '__ZN87_$LT$pyo3..instance..Bound$LT$T$GT$$u20$as$u20$pyo3..instance..BoundObject$LT$T$GT$$GT$8into_any17hd4e88fe125f13408E', symObjAddr: 0x5198, symBinAddr: 0x45E10, symSize: 0x24 }
  - { offsetInCU: 0x58A3, offset: 0x10AC42, size: 0x8, addend: 0x0, symName: '__ZN87_$LT$pyo3..instance..Bound$LT$T$GT$$u20$as$u20$pyo3..instance..BoundObject$LT$T$GT$$GT$8into_any17he1b12f1d30578327E', symObjAddr: 0x51BC, symBinAddr: 0x45E34, symSize: 0x24 }
  - { offsetInCU: 0x58DA, offset: 0x10AC79, size: 0x8, addend: 0x0, symName: '__ZN87_$LT$pyo3..instance..Bound$LT$T$GT$$u20$as$u20$pyo3..instance..BoundObject$LT$T$GT$$GT$6unbind17h060462fbb734dd34E', symObjAddr: 0x5228, symBinAddr: 0x45E58, symSize: 0x24 }
  - { offsetInCU: 0x59DC, offset: 0x10AD7B, size: 0x8, addend: 0x0, symName: '__ZN4pyo38instance39Borrowed$LT$pyo3..types..any..PyAny$GT$8from_ptr28_$u7b$$u7b$closure$u7d$$u7d$17h6bdac07ce509eeb2E', symObjAddr: 0x5494, symBinAddr: 0x4602C, symSize: 0x1C }
  - { offsetInCU: 0x5A30, offset: 0x10ADCF, size: 0x8, addend: 0x0, symName: '__ZN115_$LT$pyo3..instance..Borrowed$LT$T$GT$$u20$as$u20$core..convert..From$LT$$RF$pyo3..instance..Bound$LT$T$GT$$GT$$GT$4from17h747685b1db44abbbE', symObjAddr: 0x579C, symBinAddr: 0x46138, symSize: 0x24 }
  - { offsetInCU: 0x5A6D, offset: 0x10AE0C, size: 0x8, addend: 0x0, symName: '__ZN77_$LT$pyo3..instance..Borrowed$LT$T$GT$$u20$as$u20$core..ops..deref..Deref$GT$5deref17h1c0130a09fd218daE', symObjAddr: 0x5834, symBinAddr: 0x4615C, symSize: 0x74 }
  - { offsetInCU: 0x5AA4, offset: 0x10AE43, size: 0x8, addend: 0x0, symName: '__ZN77_$LT$pyo3..instance..Borrowed$LT$T$GT$$u20$as$u20$core..ops..deref..Deref$GT$5deref17h5c6aac452b311db1E', symObjAddr: 0x591C, symBinAddr: 0x461D0, symSize: 0x74 }
  - { offsetInCU: 0x5ADB, offset: 0x10AE7A, size: 0x8, addend: 0x0, symName: '__ZN77_$LT$pyo3..instance..Borrowed$LT$T$GT$$u20$as$u20$core..ops..deref..Deref$GT$5deref17h62a6b2309420bd12E', symObjAddr: 0x5990, symBinAddr: 0x46244, symSize: 0x74 }
  - { offsetInCU: 0x5B12, offset: 0x10AEB1, size: 0x8, addend: 0x0, symName: '__ZN77_$LT$pyo3..instance..Borrowed$LT$T$GT$$u20$as$u20$core..ops..deref..Deref$GT$5deref17h92aee0897f89d67bE', symObjAddr: 0x5A78, symBinAddr: 0x462B8, symSize: 0x74 }
  - { offsetInCU: 0x5B49, offset: 0x10AEE8, size: 0x8, addend: 0x0, symName: '__ZN77_$LT$pyo3..instance..Borrowed$LT$T$GT$$u20$as$u20$core..ops..deref..Deref$GT$5deref17haebbb7d1657b86dcE', symObjAddr: 0x5AEC, symBinAddr: 0x4632C, symSize: 0x74 }
  - { offsetInCU: 0x5B80, offset: 0x10AF1F, size: 0x8, addend: 0x0, symName: '__ZN77_$LT$pyo3..instance..Borrowed$LT$T$GT$$u20$as$u20$core..ops..deref..Deref$GT$5deref17hb821561145426511E', symObjAddr: 0x5B60, symBinAddr: 0x463A0, symSize: 0x74 }
  - { offsetInCU: 0x5BB7, offset: 0x10AF56, size: 0x8, addend: 0x0, symName: '__ZN77_$LT$pyo3..instance..Borrowed$LT$T$GT$$u20$as$u20$core..ops..deref..Deref$GT$5deref17hc4a701eeb426d061E', symObjAddr: 0x5BD4, symBinAddr: 0x46414, symSize: 0x74 }
  - { offsetInCU: 0x5BF4, offset: 0x10AF93, size: 0x8, addend: 0x0, symName: '__ZN90_$LT$pyo3..instance..Borrowed$LT$T$GT$$u20$as$u20$pyo3..instance..BoundObject$LT$T$GT$$GT$11as_borrowed17h02fbd2c3516efc47E', symObjAddr: 0x5D30, symBinAddr: 0x46488, symSize: 0x18 }
  - { offsetInCU: 0x5C2B, offset: 0x10AFCA, size: 0x8, addend: 0x0, symName: '__ZN90_$LT$pyo3..instance..Borrowed$LT$T$GT$$u20$as$u20$pyo3..instance..BoundObject$LT$T$GT$$GT$11as_borrowed17hf58100642cdb13a1E', symObjAddr: 0x5D48, symBinAddr: 0x464A0, symSize: 0x18 }
  - { offsetInCU: 0x5C62, offset: 0x10B001, size: 0x8, addend: 0x0, symName: '__ZN90_$LT$pyo3..instance..Borrowed$LT$T$GT$$u20$as$u20$pyo3..instance..BoundObject$LT$T$GT$$GT$8into_any17h04d4caf6cfed47ebE', symObjAddr: 0x5D8C, symBinAddr: 0x464B8, symSize: 0x24 }
  - { offsetInCU: 0x5C99, offset: 0x10B038, size: 0x8, addend: 0x0, symName: '__ZN90_$LT$pyo3..instance..Borrowed$LT$T$GT$$u20$as$u20$pyo3..instance..BoundObject$LT$T$GT$$GT$8into_any17h14a30c7845be229fE', symObjAddr: 0x5DB0, symBinAddr: 0x464DC, symSize: 0x24 }
  - { offsetInCU: 0x5CD0, offset: 0x10B06F, size: 0x8, addend: 0x0, symName: '__ZN90_$LT$pyo3..instance..Borrowed$LT$T$GT$$u20$as$u20$pyo3..instance..BoundObject$LT$T$GT$$GT$8into_any17hecd549c5b79b2898E', symObjAddr: 0x5E64, symBinAddr: 0x46500, symSize: 0x24 }
  - { offsetInCU: 0x5D07, offset: 0x10B0A6, size: 0x8, addend: 0x0, symName: '__ZN90_$LT$pyo3..instance..Borrowed$LT$T$GT$$u20$as$u20$pyo3..instance..BoundObject$LT$T$GT$$GT$8into_any17hed1dcd9fead1115cE', symObjAddr: 0x5E88, symBinAddr: 0x46524, symSize: 0x24 }
  - { offsetInCU: 0x5D3E, offset: 0x10B0DD, size: 0x8, addend: 0x0, symName: '__ZN90_$LT$pyo3..instance..Borrowed$LT$T$GT$$u20$as$u20$pyo3..instance..BoundObject$LT$T$GT$$GT$6as_ptr17h726a7aaf6a3df85fE', symObjAddr: 0x5EAC, symBinAddr: 0x46548, symSize: 0x28 }
  - { offsetInCU: 0x5D80, offset: 0x10B11F, size: 0x8, addend: 0x0, symName: '__ZN4pyo38instance11Py$LT$T$GT$21from_owned_ptr_or_opt28_$u7b$$u7b$closure$u7d$$u7d$17hdb44c26e9d97ea3eE', symObjAddr: 0x7A5C, symBinAddr: 0x471E0, symSize: 0x14 }
  - { offsetInCU: 0x5DD0, offset: 0x10B16F, size: 0x8, addend: 0x0, symName: '__ZN127_$LT$pyo3..instance..Py$LT$pyo3..types..any..PyAny$GT$$u20$as$u20$core..convert..From$LT$pyo3..instance..Bound$LT$T$GT$$GT$$GT$4from17h1f3cfb16079434eeE', symObjAddr: 0x7C40, symBinAddr: 0x47294, symSize: 0x28 }
  - { offsetInCU: 0x5E0D, offset: 0x10B1AC, size: 0x8, addend: 0x0, symName: '__ZN105_$LT$pyo3..instance..Py$LT$T$GT$$u20$as$u20$core..convert..From$LT$pyo3..instance..Bound$LT$T$GT$$GT$$GT$4from17h663cd60484ce0866E', symObjAddr: 0x7C68, symBinAddr: 0x472BC, symSize: 0x24 }
  - { offsetInCU: 0x5E44, offset: 0x10B1E3, size: 0x8, addend: 0x0, symName: '__ZN105_$LT$pyo3..instance..Py$LT$T$GT$$u20$as$u20$core..convert..From$LT$pyo3..instance..Bound$LT$T$GT$$GT$$GT$4from17hc8def6d1f48739bbE', symObjAddr: 0x7CB0, symBinAddr: 0x472E0, symSize: 0x24 }
  - { offsetInCU: 0x5E7B, offset: 0x10B21A, size: 0x8, addend: 0x0, symName: '__ZN105_$LT$pyo3..instance..Py$LT$T$GT$$u20$as$u20$core..convert..From$LT$pyo3..instance..Bound$LT$T$GT$$GT$$GT$4from17heeb6b69c8e9950eeE', symObjAddr: 0x7CD4, symBinAddr: 0x47304, symSize: 0x24 }
  - { offsetInCU: 0x5EB8, offset: 0x10B257, size: 0x8, addend: 0x0, symName: '__ZN69_$LT$pyo3..instance..Py$LT$T$GT$$u20$as$u20$core..ops..drop..Drop$GT$4drop17h06543cce2ee15af7E', symObjAddr: 0x7CF8, symBinAddr: 0x47328, symSize: 0x28 }
  - { offsetInCU: 0x5EEB, offset: 0x10B28A, size: 0x8, addend: 0x0, symName: '__ZN69_$LT$pyo3..instance..Py$LT$T$GT$$u20$as$u20$core..ops..drop..Drop$GT$4drop17h5d9011174402c7fdE', symObjAddr: 0x7D20, symBinAddr: 0x47350, symSize: 0x28 }
  - { offsetInCU: 0x5F1E, offset: 0x10B2BD, size: 0x8, addend: 0x0, symName: '__ZN69_$LT$pyo3..instance..Py$LT$T$GT$$u20$as$u20$core..ops..drop..Drop$GT$4drop17h61eba859769bd11eE', symObjAddr: 0x7D48, symBinAddr: 0x47378, symSize: 0x28 }
  - { offsetInCU: 0x5F51, offset: 0x10B2F0, size: 0x8, addend: 0x0, symName: '__ZN69_$LT$pyo3..instance..Py$LT$T$GT$$u20$as$u20$core..ops..drop..Drop$GT$4drop17hdeca2a88e05358e1E', symObjAddr: 0x7D98, symBinAddr: 0x473A0, symSize: 0x28 }
  - { offsetInCU: 0x5F84, offset: 0x10B323, size: 0x8, addend: 0x0, symName: '__ZN69_$LT$pyo3..instance..Py$LT$T$GT$$u20$as$u20$core..ops..drop..Drop$GT$4drop17he1b491ad1697242fE', symObjAddr: 0x7DC0, symBinAddr: 0x473C8, symSize: 0x28 }
  - { offsetInCU: 0x5FDD, offset: 0x10B37C, size: 0x8, addend: 0x0, symName: '__ZN103_$LT$pyo3..instance..Bound$LT$pyo3..types..any..PyAny$GT$$u20$as$u20$pyo3..types..any..PyAnyMethods$GT$2is17heb16e7b1de2e11e9E', symObjAddr: 0x7E10, symBinAddr: 0x473F0, symSize: 0xA4 }
  - { offsetInCU: 0x6049, offset: 0x10B3E8, size: 0x8, addend: 0x0, symName: '__ZN103_$LT$pyo3..instance..Bound$LT$pyo3..types..any..PyAny$GT$$u20$as$u20$pyo3..types..any..PyAnyMethods$GT$7getattr17h4cb620019789bf09E', symObjAddr: 0x7EB4, symBinAddr: 0x47494, symSize: 0x130 }
  - { offsetInCU: 0x60CC, offset: 0x10B46B, size: 0x8, addend: 0x0, symName: '__ZN103_$LT$pyo3..instance..Bound$LT$pyo3..types..any..PyAny$GT$$u20$as$u20$pyo3..types..any..PyAnyMethods$GT$7setattr17h545ce46baab31214E', symObjAddr: 0x8134, symBinAddr: 0x475C4, symSize: 0x204 }
  - { offsetInCU: 0x6196, offset: 0x10B535, size: 0x8, addend: 0x0, symName: '__ZN103_$LT$pyo3..instance..Bound$LT$pyo3..types..any..PyAny$GT$$u20$as$u20$pyo3..types..any..PyAnyMethods$GT$7setattr17h56659046f2a5f62aE', symObjAddr: 0x8338, symBinAddr: 0x477C8, symSize: 0x204 }
  - { offsetInCU: 0x6260, offset: 0x10B5FF, size: 0x8, addend: 0x0, symName: '__ZN103_$LT$pyo3..instance..Bound$LT$pyo3..types..any..PyAny$GT$$u20$as$u20$pyo3..types..any..PyAnyMethods$GT$5call017he02e9558fee2ec55E', symObjAddr: 0x8868, symBinAddr: 0x479CC, symSize: 0x4C }
  - { offsetInCU: 0x628E, offset: 0x10B62D, size: 0x8, addend: 0x0, symName: '__ZN103_$LT$pyo3..instance..Bound$LT$pyo3..types..any..PyAny$GT$$u20$as$u20$pyo3..types..any..PyAnyMethods$GT$8try_iter17h03ea637a80c0a4aaE', symObjAddr: 0x8D8C, symBinAddr: 0x47A18, symSize: 0x24 }
  - { offsetInCU: 0x62BC, offset: 0x10B65B, size: 0x8, addend: 0x0, symName: '__ZN103_$LT$pyo3..instance..Bound$LT$pyo3..types..any..PyAny$GT$$u20$as$u20$pyo3..types..any..PyAnyMethods$GT$8get_type17h946a6ed306d69eb6E', symObjAddr: 0x8DB0, symBinAddr: 0x47A3C, symSize: 0x38 }
  - { offsetInCU: 0x62EA, offset: 0x10B689, size: 0x8, addend: 0x0, symName: '__ZN103_$LT$pyo3..instance..Bound$LT$pyo3..types..any..PyAny$GT$$u20$as$u20$pyo3..types..any..PyAnyMethods$GT$8downcast17h257c54516725a4a4E', symObjAddr: 0x8E6C, symBinAddr: 0x47A74, symSize: 0x84 }
  - { offsetInCU: 0x6321, offset: 0x10B6C0, size: 0x8, addend: 0x0, symName: '__ZN103_$LT$pyo3..instance..Bound$LT$pyo3..types..any..PyAny$GT$$u20$as$u20$pyo3..types..any..PyAnyMethods$GT$13downcast_into17h4147efa4f7efd86fE', symObjAddr: 0x9184, symBinAddr: 0x47AF8, symSize: 0xE8 }
  - { offsetInCU: 0x6358, offset: 0x10B6F7, size: 0x8, addend: 0x0, symName: '__ZN103_$LT$pyo3..instance..Bound$LT$pyo3..types..any..PyAny$GT$$u20$as$u20$pyo3..types..any..PyAnyMethods$GT$13downcast_into17hac5e4d5a51da033aE', symObjAddr: 0x9524, symBinAddr: 0x47BE0, symSize: 0xE8 }
  - { offsetInCU: 0x638F, offset: 0x10B72E, size: 0x8, addend: 0x0, symName: '__ZN103_$LT$pyo3..instance..Bound$LT$pyo3..types..any..PyAny$GT$$u20$as$u20$pyo3..types..any..PyAnyMethods$GT$18downcast_unchecked17h1a64590d06f43e60E', symObjAddr: 0x9AA4, symBinAddr: 0x47CC8, symSize: 0x74 }
  - { offsetInCU: 0x63C6, offset: 0x10B765, size: 0x8, addend: 0x0, symName: '__ZN103_$LT$pyo3..instance..Bound$LT$pyo3..types..any..PyAny$GT$$u20$as$u20$pyo3..types..any..PyAnyMethods$GT$18downcast_unchecked17h3fab339bed4f3a4eE', symObjAddr: 0x9C00, symBinAddr: 0x47D3C, symSize: 0x74 }
  - { offsetInCU: 0x63FD, offset: 0x10B79C, size: 0x8, addend: 0x0, symName: '__ZN103_$LT$pyo3..instance..Bound$LT$pyo3..types..any..PyAny$GT$$u20$as$u20$pyo3..types..any..PyAnyMethods$GT$23downcast_into_unchecked17h012ccfff454b2f33E', symObjAddr: 0x9EB8, symBinAddr: 0x47DB0, symSize: 0x14 }
  - { offsetInCU: 0x6434, offset: 0x10B7D3, size: 0x8, addend: 0x0, symName: '__ZN103_$LT$pyo3..instance..Bound$LT$pyo3..types..any..PyAny$GT$$u20$as$u20$pyo3..types..any..PyAnyMethods$GT$23downcast_into_unchecked17h02f8006dad3c4b1cE', symObjAddr: 0x9ECC, symBinAddr: 0x47DC4, symSize: 0x14 }
  - { offsetInCU: 0x646B, offset: 0x10B80A, size: 0x8, addend: 0x0, symName: '__ZN103_$LT$pyo3..instance..Bound$LT$pyo3..types..any..PyAny$GT$$u20$as$u20$pyo3..types..any..PyAnyMethods$GT$23downcast_into_unchecked17h169986a100d670c6E', symObjAddr: 0x9EF4, symBinAddr: 0x47DD8, symSize: 0x14 }
  - { offsetInCU: 0x64A2, offset: 0x10B841, size: 0x8, addend: 0x0, symName: '__ZN103_$LT$pyo3..instance..Bound$LT$pyo3..types..any..PyAny$GT$$u20$as$u20$pyo3..types..any..PyAnyMethods$GT$23downcast_into_unchecked17h22998ff402569745E', symObjAddr: 0x9F08, symBinAddr: 0x47DEC, symSize: 0x14 }
  - { offsetInCU: 0x64D9, offset: 0x10B878, size: 0x8, addend: 0x0, symName: '__ZN103_$LT$pyo3..instance..Bound$LT$pyo3..types..any..PyAny$GT$$u20$as$u20$pyo3..types..any..PyAnyMethods$GT$23downcast_into_unchecked17h45bb09fd6a5ce969E', symObjAddr: 0x9F80, symBinAddr: 0x47E00, symSize: 0x14 }
  - { offsetInCU: 0x6510, offset: 0x10B8AF, size: 0x8, addend: 0x0, symName: '__ZN103_$LT$pyo3..instance..Bound$LT$pyo3..types..any..PyAny$GT$$u20$as$u20$pyo3..types..any..PyAnyMethods$GT$23downcast_into_unchecked17h4b49de05cdeda686E', symObjAddr: 0x9FA8, symBinAddr: 0x47E14, symSize: 0x14 }
  - { offsetInCU: 0x6547, offset: 0x10B8E6, size: 0x8, addend: 0x0, symName: '__ZN103_$LT$pyo3..instance..Bound$LT$pyo3..types..any..PyAny$GT$$u20$as$u20$pyo3..types..any..PyAnyMethods$GT$23downcast_into_unchecked17h68d2cb300747ad39E', symObjAddr: 0xA034, symBinAddr: 0x47E28, symSize: 0x14 }
  - { offsetInCU: 0x657E, offset: 0x10B91D, size: 0x8, addend: 0x0, symName: '__ZN103_$LT$pyo3..instance..Bound$LT$pyo3..types..any..PyAny$GT$$u20$as$u20$pyo3..types..any..PyAnyMethods$GT$23downcast_into_unchecked17h7e10badb499a80e7E', symObjAddr: 0xA05C, symBinAddr: 0x47E3C, symSize: 0x14 }
  - { offsetInCU: 0x65B5, offset: 0x10B954, size: 0x8, addend: 0x0, symName: '__ZN103_$LT$pyo3..instance..Bound$LT$pyo3..types..any..PyAny$GT$$u20$as$u20$pyo3..types..any..PyAnyMethods$GT$23downcast_into_unchecked17ha38147b677295400E', symObjAddr: 0xA0C0, symBinAddr: 0x47E50, symSize: 0x14 }
  - { offsetInCU: 0x65EC, offset: 0x10B98B, size: 0x8, addend: 0x0, symName: '__ZN103_$LT$pyo3..instance..Bound$LT$pyo3..types..any..PyAny$GT$$u20$as$u20$pyo3..types..any..PyAnyMethods$GT$23downcast_into_unchecked17hd0c520149c302253E', symObjAddr: 0xA124, symBinAddr: 0x47E64, symSize: 0x14 }
  - { offsetInCU: 0x6623, offset: 0x10B9C2, size: 0x8, addend: 0x0, symName: '__ZN103_$LT$pyo3..instance..Bound$LT$pyo3..types..any..PyAny$GT$$u20$as$u20$pyo3..types..any..PyAnyMethods$GT$4repr17haf6b6ae53f7e5fbdE', symObjAddr: 0xA4B8, symBinAddr: 0x47E78, symSize: 0x5C }
  - { offsetInCU: 0x6651, offset: 0x10B9F0, size: 0x8, addend: 0x0, symName: '__ZN103_$LT$pyo3..instance..Bound$LT$pyo3..types..any..PyAny$GT$$u20$as$u20$pyo3..types..any..PyAnyMethods$GT$3str17hdf3c4c1903164e52E', symObjAddr: 0xA514, symBinAddr: 0x47ED4, symSize: 0x5C }
  - { offsetInCU: 0x66A0, offset: 0x10BA3F, size: 0x8, addend: 0x0, symName: '__ZN119_$LT$pyo3..instance..Bound$LT$pyo3..types..typeobject..PyType$GT$$u20$as$u20$pyo3..types..typeobject..PyTypeMethods$GT$11as_type_ptr17hef731e2c7fd62ef1E', symObjAddr: 0xE6E4, symBinAddr: 0x48D64, symSize: 0x24 }
  - { offsetInCU: 0x66CC, offset: 0x10BA6B, size: 0x8, addend: 0x0, symName: '__ZN119_$LT$pyo3..instance..Bound$LT$pyo3..types..typeobject..PyType$GT$$u20$as$u20$pyo3..types..typeobject..PyTypeMethods$GT$4name17hb81406dbd7e4479eE', symObjAddr: 0xE708, symBinAddr: 0x48D88, symSize: 0xC8 }
  - { offsetInCU: 0x6733, offset: 0x10BAD2, size: 0x8, addend: 0x0, symName: '__ZN119_$LT$pyo3..instance..Bound$LT$pyo3..types..typeobject..PyType$GT$$u20$as$u20$pyo3..types..typeobject..PyTypeMethods$GT$8qualname17h09996cb4a023e4fbE', symObjAddr: 0xE7D0, symBinAddr: 0x48E50, symSize: 0xC8 }
  - { offsetInCU: 0x6824, offset: 0x10BBC3, size: 0x8, addend: 0x0, symName: '__ZN111_$LT$pyo3..instance..Bound$LT$pyo3..types..tuple..PyTuple$GT$$u20$as$u20$pyo3..types..tuple..PyTupleMethods$GT$3len17h88d92f318bb293fdE', symObjAddr: 0xE240, symBinAddr: 0x48CB4, symSize: 0x2C }
  - { offsetInCU: 0x689E, offset: 0x10BC3D, size: 0x8, addend: 0x0, symName: '__ZN111_$LT$pyo3..instance..Bound$LT$pyo3..types..bytes..PyBytes$GT$$u20$as$u20$pyo3..types..bytes..PyBytesMethods$GT$8as_bytes17hd80257b60019b7baE', symObjAddr: 0xABF8, symBinAddr: 0x47F30, symSize: 0x28 }
  - { offsetInCU: 0x68EB, offset: 0x10BC8A, size: 0x8, addend: 0x0, symName: '__ZN127_$LT$pyo3..instance..Bound$LT$pyo3..types..traceback..PyTraceback$GT$$u20$as$u20$pyo3..types..traceback..PyTracebackMethods$GT$6format17hf8f27b8d250e3d07E', symObjAddr: 0xDC8C, symBinAddr: 0x48700, symSize: 0x5B4 }
  - { offsetInCU: 0x6B05, offset: 0x10BEA4, size: 0x8, addend: 0x0, symName: '__ZN107_$LT$pyo3..instance..Bound$LT$pyo3..types..list..PyList$GT$$u20$as$u20$pyo3..types..list..PyListMethods$GT$6append17hcaf8855eaae69e48E', symObjAddr: 0xBDBC, symBinAddr: 0x480A8, symSize: 0x134 }
  - { offsetInCU: 0x6BB4, offset: 0x10BF53, size: 0x8, addend: 0x0, symName: '__ZN115_$LT$pyo3..instance..Bound$LT$pyo3..types..module..PyModule$GT$$u20$as$u20$pyo3..types..module..PyModuleMethods$GT$5index17h354fcacabeec111fE', symObjAddr: 0xC224, symBinAddr: 0x481DC, symSize: 0x244 }
  - { offsetInCU: 0x6C84, offset: 0x10C023, size: 0x8, addend: 0x0, symName: '__ZN115_$LT$pyo3..instance..Bound$LT$pyo3..types..string..PyString$GT$$u20$as$u20$pyo3..types..string..PyStringMethods$GT$6to_cow17h0c39a82f316ec696E', symObjAddr: 0xD664, symBinAddr: 0x48420, symSize: 0x30 }
  - { offsetInCU: 0x6CB2, offset: 0x10C051, size: 0x8, addend: 0x0, symName: '__ZN115_$LT$pyo3..instance..Bound$LT$pyo3..types..string..PyString$GT$$u20$as$u20$pyo3..types..string..PyStringMethods$GT$15to_string_lossy17h6aadcf719fd7a432E', symObjAddr: 0xD694, symBinAddr: 0x48450, symSize: 0x30 }
  - { offsetInCU: 0x6E71, offset: 0x10C210, size: 0x8, addend: 0x0, symName: '__ZN85_$LT$$RF$pyo3..instance..Bound$LT$T$GT$$u20$as$u20$pyo3..conversion..IntoPyObject$GT$13into_pyobject17h6ee8d3ddd6a37fe3E', symObjAddr: 0x6E8, symBinAddr: 0x437E4, symSize: 0x2C }
  - { offsetInCU: 0x6EBF, offset: 0x10C25E, size: 0x8, addend: 0x0, symName: '__ZN85_$LT$$RF$pyo3..instance..Bound$LT$T$GT$$u20$as$u20$pyo3..conversion..IntoPyObject$GT$13into_pyobject17h6f8ae061e52e5ae1E', symObjAddr: 0x714, symBinAddr: 0x43810, symSize: 0x2C }
  - { offsetInCU: 0x6F0D, offset: 0x10C2AC, size: 0x8, addend: 0x0, symName: '__ZN85_$LT$$RF$pyo3..instance..Bound$LT$T$GT$$u20$as$u20$pyo3..conversion..IntoPyObject$GT$13into_pyobject17hc7ef7fcef7457229E', symObjAddr: 0x740, symBinAddr: 0x4383C, symSize: 0x2C }
  - { offsetInCU: 0x6F61, offset: 0x10C300, size: 0x8, addend: 0x0, symName: '__ZN84_$LT$pyo3..instance..Borrowed$LT$T$GT$$u20$as$u20$pyo3..conversion..IntoPyObject$GT$13into_pyobject17h0e292a9d41fce5bbE', symObjAddr: 0x798, symBinAddr: 0x43868, symSize: 0x1C }
  - { offsetInCU: 0x6FAF, offset: 0x10C34E, size: 0x8, addend: 0x0, symName: '__ZN84_$LT$pyo3..instance..Borrowed$LT$T$GT$$u20$as$u20$pyo3..conversion..IntoPyObject$GT$13into_pyobject17h12fe6012a5016797E', symObjAddr: 0x7B4, symBinAddr: 0x43884, symSize: 0x1C }
  - { offsetInCU: 0x7003, offset: 0x10C3A2, size: 0x8, addend: 0x0, symName: '__ZN78_$LT$pyo3..instance..Py$LT$T$GT$$u20$as$u20$pyo3..conversion..IntoPyObject$GT$13into_pyobject17h9990a77c2850caddE', symObjAddr: 0x808, symBinAddr: 0x438A0, symSize: 0x2C }
  - { offsetInCU: 0x7057, offset: 0x10C3F6, size: 0x8, addend: 0x0, symName: __ZN4pyo310conversion15IntoPyObjectExt22into_pyobject_or_pyerr17h03cb66c2eb083b4eE, symObjAddr: 0x8D4, symBinAddr: 0x438CC, symSize: 0x48 }
  - { offsetInCU: 0x70C2, offset: 0x10C461, size: 0x8, addend: 0x0, symName: __ZN4pyo310conversion15IntoPyObjectExt22into_pyobject_or_pyerr17h3f11734f8b4212c2E, symObjAddr: 0xA84, symBinAddr: 0x43914, symSize: 0x48 }
  - { offsetInCU: 0x712D, offset: 0x10C4CC, size: 0x8, addend: 0x0, symName: __ZN4pyo310conversion15IntoPyObjectExt22into_pyobject_or_pyerr17hd9292e693c99fc91E, symObjAddr: 0xBA4, symBinAddr: 0x4395C, symSize: 0x48 }
  - { offsetInCU: 0x7198, offset: 0x10C537, size: 0x8, addend: 0x0, symName: __ZN4pyo310conversion15IntoPyObjectExt22into_pyobject_or_pyerr17he27bfdec9306c26eE, symObjAddr: 0xBEC, symBinAddr: 0x439A4, symSize: 0x48 }
  - { offsetInCU: 0x720F, offset: 0x10C5AE, size: 0x8, addend: 0x0, symName: '__ZN47_$LT$T$u20$as$u20$pyo3..err..PyErrArguments$GT$9arguments17hd6d72b655ae4e7a9E', symObjAddr: 0xC7C, symBinAddr: 0x439EC, symSize: 0x3C }
  - { offsetInCU: 0x783D, offset: 0x10CBDC, size: 0x8, addend: 0x0, symName: '__ZN4pyo38internal8get_slot78_$LT$impl$u20$pyo3..instance..Bound$LT$pyo3..types..typeobject..PyType$GT$$GT$8get_slot17h123ebcf6d7465f85E', symObjAddr: 0x360, symBinAddr: 0x43764, symSize: 0x28 }
  - { offsetInCU: 0x7878, offset: 0x10CC17, size: 0x8, addend: 0x0, symName: '__ZN4pyo38internal8get_slot78_$LT$impl$u20$pyo3..instance..Bound$LT$pyo3..types..typeobject..PyType$GT$$GT$8get_slot17ha8ff8fa04ccad496E', symObjAddr: 0x388, symBinAddr: 0x4378C, symSize: 0x28 }
  - { offsetInCU: 0x78C0, offset: 0x10CC5F, size: 0x8, addend: 0x0, symName: '__ZN4pyo38internal8get_slot81_$LT$impl$u20$pyo3..instance..Borrowed$LT$pyo3..types..typeobject..PyType$GT$$GT$8get_slot17h105fa73d2075cf24E', symObjAddr: 0x3B0, symBinAddr: 0x437B4, symSize: 0x30 }
  - { offsetInCU: 0x792F, offset: 0x10CCCE, size: 0x8, addend: 0x0, symName: '__ZN4pyo38instance36Bound$LT$pyo3..types..any..PyAny$GT$14from_owned_ptr17h8473db9aa521e8baE', symObjAddr: 0xE3C, symBinAddr: 0x43A28, symSize: 0x2C }
  - { offsetInCU: 0x796A, offset: 0x10CD09, size: 0x8, addend: 0x0, symName: '__ZN4pyo38instance36Bound$LT$pyo3..types..any..PyAny$GT$21from_owned_ptr_or_opt17ha24d44b6d16418dfE', symObjAddr: 0xE68, symBinAddr: 0x43A54, symSize: 0x2C }
  - { offsetInCU: 0x7B8C, offset: 0x10CF2B, size: 0x8, addend: 0x0, symName: '__ZN4pyo38instance36Bound$LT$pyo3..types..any..PyAny$GT$21from_owned_ptr_or_err17ha2d8e2fde887d277E', symObjAddr: 0xEBC, symBinAddr: 0x43AA8, symSize: 0x40 }
  - { offsetInCU: 0x7BE1, offset: 0x10CF80, size: 0x8, addend: 0x0, symName: '__ZN4pyo38instance36Bound$LT$pyo3..types..any..PyAny$GT$12ref_from_ptr17h0d956591a7086075E', symObjAddr: 0xF50, symBinAddr: 0x43B10, symSize: 0x74 }
  - { offsetInCU: 0x7C36, offset: 0x10CFD5, size: 0x8, addend: 0x0, symName: '__ZN4pyo38instance14Bound$LT$T$GT$2py17h030303f50b72f39aE', symObjAddr: 0x381C, symBinAddr: 0x45278, symSize: 0x10 }
  - { offsetInCU: 0x7C6F, offset: 0x10D00E, size: 0x8, addend: 0x0, symName: '__ZN4pyo38instance14Bound$LT$T$GT$2py17h0d9a9d50f9608782E', symObjAddr: 0x383C, symBinAddr: 0x45288, symSize: 0x10 }
  - { offsetInCU: 0x7C9B, offset: 0x10D03A, size: 0x8, addend: 0x0, symName: '__ZN4pyo38instance14Bound$LT$T$GT$2py17h104102f77e3273ebE', symObjAddr: 0x385C, symBinAddr: 0x45298, symSize: 0x10 }
  - { offsetInCU: 0x7CD4, offset: 0x10D073, size: 0x8, addend: 0x0, symName: '__ZN4pyo38instance14Bound$LT$T$GT$2py17h18db887f99c9d3d8E', symObjAddr: 0x386C, symBinAddr: 0x452A8, symSize: 0x10 }
  - { offsetInCU: 0x7D0D, offset: 0x10D0AC, size: 0x8, addend: 0x0, symName: '__ZN4pyo38instance14Bound$LT$T$GT$2py17h5da0e7df3e349b0aE', symObjAddr: 0x38DC, symBinAddr: 0x452B8, symSize: 0x10 }
  - { offsetInCU: 0x7D46, offset: 0x10D0E5, size: 0x8, addend: 0x0, symName: '__ZN4pyo38instance14Bound$LT$T$GT$2py17h6755503835bd2420E', symObjAddr: 0x38EC, symBinAddr: 0x452C8, symSize: 0x10 }
  - { offsetInCU: 0x7D72, offset: 0x10D111, size: 0x8, addend: 0x0, symName: '__ZN4pyo38instance14Bound$LT$T$GT$2py17h6c5ea5b00b3a2c3fE', symObjAddr: 0x38FC, symBinAddr: 0x452D8, symSize: 0x10 }
  - { offsetInCU: 0x7DAB, offset: 0x10D14A, size: 0x8, addend: 0x0, symName: '__ZN4pyo38instance14Bound$LT$T$GT$2py17h7523ef4574d5aa27E', symObjAddr: 0x390C, symBinAddr: 0x452E8, symSize: 0x10 }
  - { offsetInCU: 0x7DE4, offset: 0x10D183, size: 0x8, addend: 0x0, symName: '__ZN4pyo38instance14Bound$LT$T$GT$2py17h793afef42f28ba45E', symObjAddr: 0x391C, symBinAddr: 0x452F8, symSize: 0x10 }
  - { offsetInCU: 0x7E2A, offset: 0x10D1C9, size: 0x8, addend: 0x0, symName: '__ZN4pyo38instance14Bound$LT$T$GT$2py17h937e2068ae8b29dcE', symObjAddr: 0x393C, symBinAddr: 0x45308, symSize: 0x10 }
  - { offsetInCU: 0x7E63, offset: 0x10D202, size: 0x8, addend: 0x0, symName: '__ZN4pyo38instance14Bound$LT$T$GT$2py17h9ae4b58b7246f949E', symObjAddr: 0x394C, symBinAddr: 0x45318, symSize: 0x10 }
  - { offsetInCU: 0x7E8F, offset: 0x10D22E, size: 0x8, addend: 0x0, symName: '__ZN4pyo38instance14Bound$LT$T$GT$6as_ptr17h22e884a05b642da8E', symObjAddr: 0x39B8, symBinAddr: 0x45328, symSize: 0x2C }
  - { offsetInCU: 0x7EC8, offset: 0x10D267, size: 0x8, addend: 0x0, symName: '__ZN4pyo38instance14Bound$LT$T$GT$6as_ptr17h2d5bc72d041bff8dE', symObjAddr: 0x3A10, symBinAddr: 0x45354, symSize: 0x2C }
  - { offsetInCU: 0x7EF4, offset: 0x10D293, size: 0x8, addend: 0x0, symName: '__ZN4pyo38instance14Bound$LT$T$GT$6as_ptr17h2d67315bb27937f7E', symObjAddr: 0x3A3C, symBinAddr: 0x45380, symSize: 0x2C }
  - { offsetInCU: 0x7F20, offset: 0x10D2BF, size: 0x8, addend: 0x0, symName: '__ZN4pyo38instance14Bound$LT$T$GT$6as_ptr17h3cf115c3a360a377E', symObjAddr: 0x3A94, symBinAddr: 0x453AC, symSize: 0x2C }
  - { offsetInCU: 0x7F59, offset: 0x10D2F8, size: 0x8, addend: 0x0, symName: '__ZN4pyo38instance14Bound$LT$T$GT$6as_ptr17h607ad7e7fa260dcbE', symObjAddr: 0x3B18, symBinAddr: 0x453D8, symSize: 0x2C }
  - { offsetInCU: 0x7F85, offset: 0x10D324, size: 0x8, addend: 0x0, symName: '__ZN4pyo38instance14Bound$LT$T$GT$6as_ptr17h6ee5f21c4972fa9bE', symObjAddr: 0x3B70, symBinAddr: 0x45404, symSize: 0x2C }
  - { offsetInCU: 0x7FB1, offset: 0x10D350, size: 0x8, addend: 0x0, symName: '__ZN4pyo38instance14Bound$LT$T$GT$6as_ptr17h7cc25c5bd7af804eE', symObjAddr: 0x3C4C, symBinAddr: 0x45430, symSize: 0x2C }
  - { offsetInCU: 0x7FDD, offset: 0x10D37C, size: 0x8, addend: 0x0, symName: '__ZN4pyo38instance14Bound$LT$T$GT$6as_ptr17h8225d138435a595dE', symObjAddr: 0x3CD0, symBinAddr: 0x4545C, symSize: 0x2C }
  - { offsetInCU: 0x8009, offset: 0x10D3A8, size: 0x8, addend: 0x0, symName: '__ZN4pyo38instance14Bound$LT$T$GT$6as_ptr17hb35a4cc3ce06242fE', symObjAddr: 0x3CFC, symBinAddr: 0x45488, symSize: 0x2C }
  - { offsetInCU: 0x8035, offset: 0x10D3D4, size: 0x8, addend: 0x0, symName: '__ZN4pyo38instance14Bound$LT$T$GT$6as_ptr17hc6d3f3999b7519b3E', symObjAddr: 0x3DAC, symBinAddr: 0x454B4, symSize: 0x2C }
  - { offsetInCU: 0x8061, offset: 0x10D400, size: 0x8, addend: 0x0, symName: '__ZN4pyo38instance14Bound$LT$T$GT$6as_ptr17hd6f89059e0a4a459E', symObjAddr: 0x3E5C, symBinAddr: 0x454E0, symSize: 0x2C }
  - { offsetInCU: 0x808D, offset: 0x10D42C, size: 0x8, addend: 0x0, symName: '__ZN4pyo38instance14Bound$LT$T$GT$6as_ptr17hda07716b0f7da83bE', symObjAddr: 0x3E88, symBinAddr: 0x4550C, symSize: 0x2C }
  - { offsetInCU: 0x80B9, offset: 0x10D458, size: 0x8, addend: 0x0, symName: '__ZN4pyo38instance14Bound$LT$T$GT$6as_ptr17hdb9d8b1bad93f035E', symObjAddr: 0x3EB4, symBinAddr: 0x45538, symSize: 0x2C }
  - { offsetInCU: 0x80E5, offset: 0x10D484, size: 0x8, addend: 0x0, symName: '__ZN4pyo38instance14Bound$LT$T$GT$8into_ptr17hc93ba87c50681c96E', symObjAddr: 0x3F0C, symBinAddr: 0x45564, symSize: 0x40 }
  - { offsetInCU: 0x8111, offset: 0x10D4B0, size: 0x8, addend: 0x0, symName: '__ZN4pyo38instance14Bound$LT$T$GT$6as_any17h07054494f0d7ce53E', symObjAddr: 0x3FC0, symBinAddr: 0x455A4, symSize: 0x74 }
  - { offsetInCU: 0x813D, offset: 0x10D4DC, size: 0x8, addend: 0x0, symName: '__ZN4pyo38instance14Bound$LT$T$GT$6as_any17h0a86f6203d591ddeE', symObjAddr: 0x40A8, symBinAddr: 0x45618, symSize: 0x74 }
  - { offsetInCU: 0x8169, offset: 0x10D508, size: 0x8, addend: 0x0, symName: '__ZN4pyo38instance14Bound$LT$T$GT$6as_any17h16b8e58db1443df4E', symObjAddr: 0x411C, symBinAddr: 0x4568C, symSize: 0x74 }
  - { offsetInCU: 0x8195, offset: 0x10D534, size: 0x8, addend: 0x0, symName: '__ZN4pyo38instance14Bound$LT$T$GT$6as_any17h45c9c3af219bd271E', symObjAddr: 0x4278, symBinAddr: 0x45700, symSize: 0x74 }
  - { offsetInCU: 0x81C1, offset: 0x10D560, size: 0x8, addend: 0x0, symName: '__ZN4pyo38instance14Bound$LT$T$GT$6as_any17h61876d6f45e9027fE', symObjAddr: 0x43D4, symBinAddr: 0x45774, symSize: 0x74 }
  - { offsetInCU: 0x81ED, offset: 0x10D58C, size: 0x8, addend: 0x0, symName: '__ZN4pyo38instance14Bound$LT$T$GT$6as_any17h62499e90f1e30fcaE', symObjAddr: 0x4448, symBinAddr: 0x457E8, symSize: 0x74 }
  - { offsetInCU: 0x8219, offset: 0x10D5B8, size: 0x8, addend: 0x0, symName: '__ZN4pyo38instance14Bound$LT$T$GT$6as_any17hcd79616d9251a4adE', symObjAddr: 0x468C, symBinAddr: 0x4585C, symSize: 0x74 }
  - { offsetInCU: 0x8245, offset: 0x10D5E4, size: 0x8, addend: 0x0, symName: '__ZN4pyo38instance14Bound$LT$T$GT$8into_any17h314fa8b434b087e7E', symObjAddr: 0x4790, symBinAddr: 0x458D0, symSize: 0x30 }
  - { offsetInCU: 0x8271, offset: 0x10D610, size: 0x8, addend: 0x0, symName: '__ZN4pyo38instance14Bound$LT$T$GT$8into_any17h48384c6966e3460cE', symObjAddr: 0x47C0, symBinAddr: 0x45900, symSize: 0x30 }
  - { offsetInCU: 0x829D, offset: 0x10D63C, size: 0x8, addend: 0x0, symName: '__ZN4pyo38instance14Bound$LT$T$GT$8into_any17h7822e38fbbe9b603E', symObjAddr: 0x4850, symBinAddr: 0x45930, symSize: 0x30 }
  - { offsetInCU: 0x82C9, offset: 0x10D668, size: 0x8, addend: 0x0, symName: '__ZN4pyo38instance14Bound$LT$T$GT$8into_any17hc094fc387512397dE', symObjAddr: 0x4880, symBinAddr: 0x45960, symSize: 0x30 }
  - { offsetInCU: 0x82F5, offset: 0x10D694, size: 0x8, addend: 0x0, symName: '__ZN4pyo38instance14Bound$LT$T$GT$8into_any17he2deb3f6cdf52d0fE', symObjAddr: 0x48B0, symBinAddr: 0x45990, symSize: 0x30 }
  - { offsetInCU: 0x8321, offset: 0x10D6C0, size: 0x8, addend: 0x0, symName: '__ZN4pyo38instance14Bound$LT$T$GT$8into_any17he7007ac068a3853aE', symObjAddr: 0x48E0, symBinAddr: 0x459C0, symSize: 0x30 }
  - { offsetInCU: 0x835A, offset: 0x10D6F9, size: 0x8, addend: 0x0, symName: '__ZN4pyo38instance14Bound$LT$T$GT$11as_borrowed17h32f6c2866a3e2af1E', symObjAddr: 0x4940, symBinAddr: 0x459F0, symSize: 0x48 }
  - { offsetInCU: 0x8393, offset: 0x10D732, size: 0x8, addend: 0x0, symName: '__ZN4pyo38instance14Bound$LT$T$GT$11as_borrowed17h3a3d6ccc924f34bdE', symObjAddr: 0x4988, symBinAddr: 0x45A38, symSize: 0x48 }
  - { offsetInCU: 0x83CC, offset: 0x10D76B, size: 0x8, addend: 0x0, symName: '__ZN4pyo38instance14Bound$LT$T$GT$11as_borrowed17h4201ecde70ffea00E', symObjAddr: 0x49D0, symBinAddr: 0x45A80, symSize: 0x48 }
  - { offsetInCU: 0x8412, offset: 0x10D7B1, size: 0x8, addend: 0x0, symName: '__ZN4pyo38instance14Bound$LT$T$GT$11as_borrowed17h5554652181eadc6bE', symObjAddr: 0x4A60, symBinAddr: 0x45AC8, symSize: 0x48 }
  - { offsetInCU: 0x8458, offset: 0x10D7F7, size: 0x8, addend: 0x0, symName: '__ZN4pyo38instance14Bound$LT$T$GT$11as_borrowed17hbd0e70efa8841170E', symObjAddr: 0x4B38, symBinAddr: 0x45B10, symSize: 0x48 }
  - { offsetInCU: 0x849E, offset: 0x10D83D, size: 0x8, addend: 0x0, symName: '__ZN4pyo38instance14Bound$LT$T$GT$11as_borrowed17hed857e81cf060de7E', symObjAddr: 0x4C10, symBinAddr: 0x45B58, symSize: 0x48 }
  - { offsetInCU: 0x84CA, offset: 0x10D869, size: 0x8, addend: 0x0, symName: '__ZN4pyo38instance14Bound$LT$T$GT$6unbind17h16bd1495b5388d34E', symObjAddr: 0x4CE8, symBinAddr: 0x45BA0, symSize: 0x48 }
  - { offsetInCU: 0x8514, offset: 0x10D8B3, size: 0x8, addend: 0x0, symName: '__ZN4pyo38instance14Bound$LT$T$GT$6unbind17h70f1d881f1da1674E', symObjAddr: 0x4DC0, symBinAddr: 0x45BE8, symSize: 0x48 }
  - { offsetInCU: 0x855E, offset: 0x10D8FD, size: 0x8, addend: 0x0, symName: '__ZN4pyo38instance14Bound$LT$T$GT$6unbind17h78ae9a467e422186E', symObjAddr: 0x4E08, symBinAddr: 0x45C30, symSize: 0x48 }
  - { offsetInCU: 0x85A8, offset: 0x10D947, size: 0x8, addend: 0x0, symName: '__ZN4pyo38instance14Bound$LT$T$GT$6unbind17h7d69af2ea7d0bad8E', symObjAddr: 0x4E50, symBinAddr: 0x45C78, symSize: 0x48 }
  - { offsetInCU: 0x85F2, offset: 0x10D991, size: 0x8, addend: 0x0, symName: '__ZN4pyo38instance14Bound$LT$T$GT$6unbind17h9bbc9021a3af2429E', symObjAddr: 0x4E98, symBinAddr: 0x45CC0, symSize: 0x48 }
  - { offsetInCU: 0x863C, offset: 0x10D9DB, size: 0x8, addend: 0x0, symName: '__ZN4pyo38instance14Bound$LT$T$GT$6unbind17hbe151a9286a8dcfeE', symObjAddr: 0x4F28, symBinAddr: 0x45D08, symSize: 0x48 }
  - { offsetInCU: 0x8686, offset: 0x10DA25, size: 0x8, addend: 0x0, symName: '__ZN4pyo38instance14Bound$LT$T$GT$6unbind17hc3bc3514e4a2bc5cE', symObjAddr: 0x4F70, symBinAddr: 0x45D50, symSize: 0x48 }
  - { offsetInCU: 0x86D0, offset: 0x10DA6F, size: 0x8, addend: 0x0, symName: '__ZN4pyo38instance14Bound$LT$T$GT$10as_unbound17h7cfdd801a8a19a13E', symObjAddr: 0x5090, symBinAddr: 0x45D98, symSize: 0x1C }
  - { offsetInCU: 0x8709, offset: 0x10DAA8, size: 0x8, addend: 0x0, symName: '__ZN4pyo38instance17Borrowed$LT$T$GT$8to_owned17h00c96a7127bc4638E', symObjAddr: 0x524C, symBinAddr: 0x45E7C, symSize: 0x2C }
  - { offsetInCU: 0x8735, offset: 0x10DAD4, size: 0x8, addend: 0x0, symName: '__ZN4pyo38instance17Borrowed$LT$T$GT$8to_owned17h151e0daf10c5f845E', symObjAddr: 0x5278, symBinAddr: 0x45EA8, symSize: 0x2C }
  - { offsetInCU: 0x8761, offset: 0x10DB00, size: 0x8, addend: 0x0, symName: '__ZN4pyo38instance17Borrowed$LT$T$GT$8to_owned17h5cbc90272fd2aa99E', symObjAddr: 0x52A4, symBinAddr: 0x45ED4, symSize: 0x2C }
  - { offsetInCU: 0x878D, offset: 0x10DB2C, size: 0x8, addend: 0x0, symName: '__ZN4pyo38instance17Borrowed$LT$T$GT$6as_ptr17h155ca166e539cb07E', symObjAddr: 0x52FC, symBinAddr: 0x45F00, symSize: 0x1C }
  - { offsetInCU: 0x87B9, offset: 0x10DB58, size: 0x8, addend: 0x0, symName: '__ZN4pyo38instance17Borrowed$LT$T$GT$6as_ptr17h2ebe9e6a272b216aE', symObjAddr: 0x5318, symBinAddr: 0x45F1C, symSize: 0x1C }
  - { offsetInCU: 0x87E5, offset: 0x10DB84, size: 0x8, addend: 0x0, symName: '__ZN4pyo38instance17Borrowed$LT$T$GT$6as_ptr17h81ba366e6afa04daE', symObjAddr: 0x5350, symBinAddr: 0x45F38, symSize: 0x1C }
  - { offsetInCU: 0x8811, offset: 0x10DBB0, size: 0x8, addend: 0x0, symName: '__ZN4pyo38instance17Borrowed$LT$T$GT$6as_ptr17hadc38b02798a8f25E', symObjAddr: 0x536C, symBinAddr: 0x45F54, symSize: 0x1C }
  - { offsetInCU: 0x883D, offset: 0x10DBDC, size: 0x8, addend: 0x0, symName: '__ZN4pyo38instance17Borrowed$LT$T$GT$6as_ptr17hd70253b926a6235aE', symObjAddr: 0x5388, symBinAddr: 0x45F70, symSize: 0x1C }
  - { offsetInCU: 0x8876, offset: 0x10DC15, size: 0x8, addend: 0x0, symName: '__ZN4pyo38instance17Borrowed$LT$T$GT$6as_ptr17hfa41e735090eed1eE', symObjAddr: 0x53A4, symBinAddr: 0x45F8C, symSize: 0x1C }
  - { offsetInCU: 0x88A2, offset: 0x10DC41, size: 0x8, addend: 0x0, symName: '__ZN4pyo38instance17Borrowed$LT$T$GT$6to_any17h2c9edc9a7470899fE', symObjAddr: 0x53D4, symBinAddr: 0x45FA8, symSize: 0x14 }
  - { offsetInCU: 0x88CE, offset: 0x10DC6D, size: 0x8, addend: 0x0, symName: '__ZN4pyo38instance17Borrowed$LT$T$GT$6to_any17h61c262a119a3a1a1E', symObjAddr: 0x53E8, symBinAddr: 0x45FBC, symSize: 0x14 }
  - { offsetInCU: 0x88FA, offset: 0x10DC99, size: 0x8, addend: 0x0, symName: '__ZN4pyo38instance17Borrowed$LT$T$GT$6to_any17h9794728988b62415E', symObjAddr: 0x53FC, symBinAddr: 0x45FD0, symSize: 0x14 }
  - { offsetInCU: 0x8926, offset: 0x10DCC5, size: 0x8, addend: 0x0, symName: '__ZN4pyo38instance17Borrowed$LT$T$GT$6to_any17hb26e52091e4ce434E', symObjAddr: 0x5410, symBinAddr: 0x45FE4, symSize: 0x14 }
  - { offsetInCU: 0x8952, offset: 0x10DCF1, size: 0x8, addend: 0x0, symName: '__ZN4pyo38instance39Borrowed$LT$pyo3..types..any..PyAny$GT$8from_ptr17hcae2d4e59f987857E', symObjAddr: 0x5460, symBinAddr: 0x45FF8, symSize: 0x34 }
  - { offsetInCU: 0x8990, offset: 0x10DD2F, size: 0x8, addend: 0x0, symName: '__ZN4pyo38instance39Borrowed$LT$pyo3..types..any..PyAny$GT$18from_ptr_unchecked17hc44039c7e58737c9E', symObjAddr: 0x5560, symBinAddr: 0x46048, symSize: 0x2C }
  - { offsetInCU: 0x89EC, offset: 0x10DD8B, size: 0x8, addend: 0x0, symName: '__ZN4pyo38instance39Borrowed$LT$pyo3..types..any..PyAny$GT$8downcast17h33c810842c7ae214E', symObjAddr: 0x558C, symBinAddr: 0x46074, symSize: 0x88 }
  - { offsetInCU: 0x8A18, offset: 0x10DDB7, size: 0x8, addend: 0x0, symName: '__ZN4pyo38instance39Borrowed$LT$pyo3..types..any..PyAny$GT$18downcast_unchecked17h77ad2638fcee6c0fE', symObjAddr: 0x5738, symBinAddr: 0x460FC, symSize: 0x14 }
  - { offsetInCU: 0x8A44, offset: 0x10DDE3, size: 0x8, addend: 0x0, symName: '__ZN4pyo38instance39Borrowed$LT$pyo3..types..any..PyAny$GT$18downcast_unchecked17hd01db34a78fbafd6E', symObjAddr: 0x5760, symBinAddr: 0x46110, symSize: 0x14 }
  - { offsetInCU: 0x8A70, offset: 0x10DE0F, size: 0x8, addend: 0x0, symName: '__ZN4pyo38instance39Borrowed$LT$pyo3..types..any..PyAny$GT$18downcast_unchecked17hf42c965b01d131ebE', symObjAddr: 0x5788, symBinAddr: 0x46124, symSize: 0x14 }
  - { offsetInCU: 0x8A9C, offset: 0x10DE3B, size: 0x8, addend: 0x0, symName: '__ZN4pyo38instance11Py$LT$T$GT$6as_ptr17h05c622206f95797dE', symObjAddr: 0x5ED4, symBinAddr: 0x46570, symSize: 0x1C }
  - { offsetInCU: 0x8AD5, offset: 0x10DE74, size: 0x8, addend: 0x0, symName: '__ZN4pyo38instance11Py$LT$T$GT$6as_ptr17h2d5fec84c18574d1E', symObjAddr: 0x5F44, symBinAddr: 0x4658C, symSize: 0x1C }
  - { offsetInCU: 0x8B01, offset: 0x10DEA0, size: 0x8, addend: 0x0, symName: '__ZN4pyo38instance11Py$LT$T$GT$6as_ptr17h3a7bb10b6bc12a50E', symObjAddr: 0x5F60, symBinAddr: 0x465A8, symSize: 0x1C }
  - { offsetInCU: 0x8B3A, offset: 0x10DED9, size: 0x8, addend: 0x0, symName: '__ZN4pyo38instance11Py$LT$T$GT$6as_ptr17h3abea2f983e0467fE', symObjAddr: 0x5F7C, symBinAddr: 0x465C4, symSize: 0x1C }
  - { offsetInCU: 0x8B66, offset: 0x10DF05, size: 0x8, addend: 0x0, symName: '__ZN4pyo38instance11Py$LT$T$GT$6as_ptr17h3dac1bc38754b5c2E', symObjAddr: 0x5F98, symBinAddr: 0x465E0, symSize: 0x1C }
  - { offsetInCU: 0x8B92, offset: 0x10DF31, size: 0x8, addend: 0x0, symName: '__ZN4pyo38instance11Py$LT$T$GT$6as_ptr17h402ad0bbd1cf2b67E', symObjAddr: 0x5FB4, symBinAddr: 0x465FC, symSize: 0x1C }
  - { offsetInCU: 0x8BBE, offset: 0x10DF5D, size: 0x8, addend: 0x0, symName: '__ZN4pyo38instance11Py$LT$T$GT$6as_ptr17h68feec823b047429E', symObjAddr: 0x6024, symBinAddr: 0x46618, symSize: 0x1C }
  - { offsetInCU: 0x8BEA, offset: 0x10DF89, size: 0x8, addend: 0x0, symName: '__ZN4pyo38instance11Py$LT$T$GT$6as_ptr17h700913a0d80cd535E', symObjAddr: 0x6040, symBinAddr: 0x46634, symSize: 0x1C }
  - { offsetInCU: 0x8C16, offset: 0x10DFB5, size: 0x8, addend: 0x0, symName: '__ZN4pyo38instance11Py$LT$T$GT$6as_ptr17h78a6d88cff698382E', symObjAddr: 0x6094, symBinAddr: 0x46650, symSize: 0x1C }
  - { offsetInCU: 0x8C42, offset: 0x10DFE1, size: 0x8, addend: 0x0, symName: '__ZN4pyo38instance11Py$LT$T$GT$6as_ptr17h9e397f9d0377e093E', symObjAddr: 0x6120, symBinAddr: 0x4666C, symSize: 0x1C }
  - { offsetInCU: 0x8C6E, offset: 0x10E00D, size: 0x8, addend: 0x0, symName: '__ZN4pyo38instance11Py$LT$T$GT$6as_ptr17hbda98f19eeaf93c6E', symObjAddr: 0x6190, symBinAddr: 0x46688, symSize: 0x1C }
  - { offsetInCU: 0x8CA7, offset: 0x10E046, size: 0x8, addend: 0x0, symName: '__ZN4pyo38instance11Py$LT$T$GT$6as_ptr17hbe0d7d0171d01126E', symObjAddr: 0x61AC, symBinAddr: 0x466A4, symSize: 0x1C }
  - { offsetInCU: 0x8CE0, offset: 0x10E07F, size: 0x8, addend: 0x0, symName: '__ZN4pyo38instance11Py$LT$T$GT$6as_ptr17hcce573603e5548a1E', symObjAddr: 0x61E4, symBinAddr: 0x466C0, symSize: 0x1C }
  - { offsetInCU: 0x8D0C, offset: 0x10E0AB, size: 0x8, addend: 0x0, symName: '__ZN4pyo38instance11Py$LT$T$GT$6as_ptr17hed48604a824c43e2E', symObjAddr: 0x6200, symBinAddr: 0x466DC, symSize: 0x1C }
  - { offsetInCU: 0x8D38, offset: 0x10E0D7, size: 0x8, addend: 0x0, symName: '__ZN4pyo38instance11Py$LT$T$GT$8into_ptr17h996119a4310ebdceE', symObjAddr: 0x6270, symBinAddr: 0x466F8, symSize: 0x30 }
  - { offsetInCU: 0x8D64, offset: 0x10E103, size: 0x8, addend: 0x0, symName: '__ZN4pyo38instance11Py$LT$T$GT$8into_ptr17hf107c1e0221d7bdaE', symObjAddr: 0x62A0, symBinAddr: 0x46728, symSize: 0x30 }
  - { offsetInCU: 0x8D90, offset: 0x10E12F, size: 0x8, addend: 0x0, symName: '__ZN4pyo38instance11Py$LT$T$GT$8into_any17h107ebfd65aa4740dE', symObjAddr: 0x62D0, symBinAddr: 0x46758, symSize: 0x3C }
  - { offsetInCU: 0x8DBC, offset: 0x10E15B, size: 0x8, addend: 0x0, symName: '__ZN4pyo38instance11Py$LT$T$GT$8into_any17h1895a94b54348f83E', symObjAddr: 0x630C, symBinAddr: 0x46794, symSize: 0x3C }
  - { offsetInCU: 0x8DE8, offset: 0x10E187, size: 0x8, addend: 0x0, symName: '__ZN4pyo38instance11Py$LT$T$GT$8into_any17h7609f503ff6d29bcE', symObjAddr: 0x63FC, symBinAddr: 0x467D0, symSize: 0x3C }
  - { offsetInCU: 0x8E14, offset: 0x10E1B3, size: 0x8, addend: 0x0, symName: '__ZN4pyo38instance11Py$LT$T$GT$8into_any17h93e0b75e0d9a9863E', symObjAddr: 0x6474, symBinAddr: 0x4680C, symSize: 0x3C }
  - { offsetInCU: 0x8E40, offset: 0x10E1DF, size: 0x8, addend: 0x0, symName: '__ZN4pyo38instance11Py$LT$T$GT$8into_any17hccc1e749cf8447d2E', symObjAddr: 0x6528, symBinAddr: 0x46848, symSize: 0x3C }
  - { offsetInCU: 0x8E6C, offset: 0x10E20B, size: 0x8, addend: 0x0, symName: '__ZN4pyo38instance11Py$LT$T$GT$8into_any17hdac6a55203c8b4f2E', symObjAddr: 0x6564, symBinAddr: 0x46884, symSize: 0x3C }
  - { offsetInCU: 0x8E98, offset: 0x10E237, size: 0x8, addend: 0x0, symName: '__ZN4pyo38instance11Py$LT$T$GT$4bind17h28e02ebf5a553f5bE', symObjAddr: 0x6614, symBinAddr: 0x468C0, symSize: 0x74 }
  - { offsetInCU: 0x8EDF, offset: 0x10E27E, size: 0x8, addend: 0x0, symName: '__ZN4pyo38instance11Py$LT$T$GT$4bind17h44add41f0163b33bE', symObjAddr: 0x6688, symBinAddr: 0x46934, symSize: 0x74 }
  - { offsetInCU: 0x8F26, offset: 0x10E2C5, size: 0x8, addend: 0x0, symName: '__ZN4pyo38instance11Py$LT$T$GT$4bind17h729fdcbcd95a6431E', symObjAddr: 0x6770, symBinAddr: 0x469A8, symSize: 0x74 }
  - { offsetInCU: 0x8F6D, offset: 0x10E30C, size: 0x8, addend: 0x0, symName: '__ZN4pyo38instance11Py$LT$T$GT$4bind17hf7e87090e46e2e29E', symObjAddr: 0x67E4, symBinAddr: 0x46A1C, symSize: 0x74 }
  - { offsetInCU: 0x8FB4, offset: 0x10E353, size: 0x8, addend: 0x0, symName: '__ZN4pyo38instance11Py$LT$T$GT$10into_bound17h884721f2720835b3E', symObjAddr: 0x6858, symBinAddr: 0x46A90, symSize: 0x1C }
  - { offsetInCU: 0x8FFB, offset: 0x10E39A, size: 0x8, addend: 0x0, symName: '__ZN4pyo38instance11Py$LT$T$GT$9clone_ref17h3c19a498598792c5E', symObjAddr: 0x6BD8, symBinAddr: 0x46AAC, symSize: 0x100 }
  - { offsetInCU: 0x90A1, offset: 0x10E440, size: 0x8, addend: 0x0, symName: '__ZN4pyo38instance11Py$LT$T$GT$9clone_ref17h5d2a6218fe6a75ecE', symObjAddr: 0x70D8, symBinAddr: 0x46BAC, symSize: 0x100 }
  - { offsetInCU: 0x9147, offset: 0x10E4E6, size: 0x8, addend: 0x0, symName: '__ZN4pyo38instance11Py$LT$T$GT$9clone_ref17h7a104a274cae5c00E', symObjAddr: 0x71D8, symBinAddr: 0x46CAC, symSize: 0x100 }
  - { offsetInCU: 0x91ED, offset: 0x10E58C, size: 0x8, addend: 0x0, symName: '__ZN4pyo38instance11Py$LT$T$GT$9clone_ref17hdd80afb9109a15ccE', symObjAddr: 0x75D8, symBinAddr: 0x46DAC, symSize: 0x100 }
  - { offsetInCU: 0x9293, offset: 0x10E632, size: 0x8, addend: 0x0, symName: '__ZN4pyo38instance11Py$LT$T$GT$9clone_ref17hfcaefec3abffb8c8E', symObjAddr: 0x76D8, symBinAddr: 0x46EAC, symSize: 0x100 }
  - { offsetInCU: 0x9339, offset: 0x10E6D8, size: 0x8, addend: 0x0, symName: '__ZN4pyo38instance11Py$LT$T$GT$14from_owned_ptr17h9c97964869339063E', symObjAddr: 0x7828, symBinAddr: 0x46FAC, symSize: 0x50 }
  - { offsetInCU: 0x9380, offset: 0x10E71F, size: 0x8, addend: 0x0, symName: '__ZN4pyo38instance11Py$LT$T$GT$21from_owned_ptr_or_err17h7731304b37621846E', symObjAddr: 0x7878, symBinAddr: 0x46FFC, symSize: 0x94 }
  - { offsetInCU: 0x93E5, offset: 0x10E784, size: 0x8, addend: 0x0, symName: '__ZN4pyo38instance11Py$LT$T$GT$21from_owned_ptr_or_err17h9fafc55ec0467702E', symObjAddr: 0x790C, symBinAddr: 0x47090, symSize: 0x94 }
  - { offsetInCU: 0x944A, offset: 0x10E7E9, size: 0x8, addend: 0x0, symName: '__ZN4pyo38instance11Py$LT$T$GT$21from_owned_ptr_or_err17hac67c3f296069793E', symObjAddr: 0x79A0, symBinAddr: 0x47124, symSize: 0x94 }
  - { offsetInCU: 0x94AF, offset: 0x10E84E, size: 0x8, addend: 0x0, symName: '__ZN4pyo38instance11Py$LT$T$GT$21from_owned_ptr_or_opt17h89c6d5ebdb578e15E', symObjAddr: 0x7A34, symBinAddr: 0x471B8, symSize: 0x28 }
  - { offsetInCU: 0x94F6, offset: 0x10E895, size: 0x8, addend: 0x0, symName: '__ZN4pyo38instance11Py$LT$T$GT$13from_non_null17h31ee5fc66217e1e3E', symObjAddr: 0x7AD8, symBinAddr: 0x471F4, symSize: 0x14 }
  - { offsetInCU: 0x9522, offset: 0x10E8C1, size: 0x8, addend: 0x0, symName: '__ZN4pyo38instance11Py$LT$T$GT$13from_non_null17h7eda22992c7cb94aE', symObjAddr: 0x7B28, symBinAddr: 0x47208, symSize: 0x14 }
  - { offsetInCU: 0x954E, offset: 0x10E8ED, size: 0x8, addend: 0x0, symName: '__ZN4pyo38instance11Py$LT$T$GT$13from_non_null17h98f5a7eb125bb2d9E', symObjAddr: 0x7B64, symBinAddr: 0x4721C, symSize: 0x14 }
  - { offsetInCU: 0x957A, offset: 0x10E919, size: 0x8, addend: 0x0, symName: '__ZN4pyo38instance11Py$LT$T$GT$13from_non_null17h9d210bf7ba7107a6E', symObjAddr: 0x7B78, symBinAddr: 0x47230, symSize: 0x14 }
  - { offsetInCU: 0x95A6, offset: 0x10E945, size: 0x8, addend: 0x0, symName: '__ZN4pyo38instance11Py$LT$T$GT$13from_non_null17h9efe8da95b71653eE', symObjAddr: 0x7B8C, symBinAddr: 0x47244, symSize: 0x14 }
  - { offsetInCU: 0x95D2, offset: 0x10E971, size: 0x8, addend: 0x0, symName: '__ZN4pyo38instance11Py$LT$T$GT$13from_non_null17ha8b5c9abe621f84aE', symObjAddr: 0x7BB4, symBinAddr: 0x47258, symSize: 0x14 }
  - { offsetInCU: 0x95FE, offset: 0x10E99D, size: 0x8, addend: 0x0, symName: '__ZN4pyo38instance11Py$LT$T$GT$13from_non_null17he1af0ec183ffdcefE', symObjAddr: 0x7BF0, symBinAddr: 0x4726C, symSize: 0x14 }
  - { offsetInCU: 0x962A, offset: 0x10E9C9, size: 0x8, addend: 0x0, symName: '__ZN4pyo38instance11Py$LT$T$GT$13from_non_null17hffa8834f42ac218fE', symObjAddr: 0x7C2C, symBinAddr: 0x47280, symSize: 0x14 }
  - { offsetInCU: 0x9695, offset: 0x10EA34, size: 0x8, addend: 0x0, symName: '__ZN4pyo35types5bytes77_$LT$impl$u20$pyo3..instance..Borrowed$LT$pyo3..types..bytes..PyBytes$GT$$GT$8as_bytes17h84456b578ff79f55E', symObjAddr: 0xAC20, symBinAddr: 0x47F58, symSize: 0x90 }
  - { offsetInCU: 0x96E1, offset: 0x10EA80, size: 0x8, addend: 0x0, symName: '__ZN4pyo35types4dict75_$LT$impl$u20$pyo3..instance..Borrowed$LT$pyo3..types..dict..PyDict$GT$$GT$13iter_borrowed17h77794cadf56c042dE', symObjAddr: 0xB95C, symBinAddr: 0x47FE8, symSize: 0x24 }
  - { offsetInCU: 0x9704, offset: 0x10EAA3, size: 0x8, addend: 0x0, symName: '__ZN4pyo35types8iterator83_$LT$impl$u20$pyo3..instance..Borrowed$LT$pyo3..types..iterator..PyIterator$GT$$GT$4next17h5510c2566022bf28E', symObjAddr: 0xBB14, symBinAddr: 0x4800C, symSize: 0x9C }
  - { offsetInCU: 0x9760, offset: 0x10EAFF, size: 0x8, addend: 0x0, symName: '__ZN4pyo35types6string79_$LT$impl$u20$pyo3..instance..Borrowed$LT$pyo3..types..string..PyString$GT$$GT$6to_str17h2b1a4e266bd7b185E', symObjAddr: 0xD750, symBinAddr: 0x48480, symSize: 0xD0 }
  - { offsetInCU: 0x97BF, offset: 0x10EB5E, size: 0x8, addend: 0x0, symName: '__ZN4pyo35types6string79_$LT$impl$u20$pyo3..instance..Borrowed$LT$pyo3..types..string..PyString$GT$$GT$6to_cow17hc015a3685d77c367E', symObjAddr: 0xD820, symBinAddr: 0x48550, symSize: 0x3C }
  - { offsetInCU: 0x97E2, offset: 0x10EB81, size: 0x8, addend: 0x0, symName: '__ZN4pyo35types6string79_$LT$impl$u20$pyo3..instance..Borrowed$LT$pyo3..types..string..PyString$GT$$GT$15to_string_lossy17h53d162c3dce00887E', symObjAddr: 0xD85C, symBinAddr: 0x4858C, symSize: 0x174 }
  - { offsetInCU: 0x98AC, offset: 0x10EC4B, size: 0x8, addend: 0x0, symName: '__ZN4pyo35types5tuple77_$LT$impl$u20$pyo3..instance..Borrowed$LT$pyo3..types..tuple..PyTuple$GT$$GT$27get_borrowed_item_unchecked17hc839de6079930156E', symObjAddr: 0xE618, symBinAddr: 0x48CE0, symSize: 0x60 }
  - { offsetInCU: 0x98DE, offset: 0x10EC7D, size: 0x8, addend: 0x0, symName: '__ZN4pyo35types5tuple77_$LT$impl$u20$pyo3..instance..Borrowed$LT$pyo3..types..tuple..PyTuple$GT$$GT$13iter_borrowed17h8cb01eb259af56b4E', symObjAddr: 0xE678, symBinAddr: 0x48D40, symSize: 0x24 }
  - { offsetInCU: 0xF45, offset: 0x10FDA4, size: 0x8, addend: 0x0, symName: '__ZN153_$LT$core..result..Result$LT$T$C$F$GT$$u20$as$u20$core..ops..try_trait..FromResidual$LT$core..result..Result$LT$core..convert..Infallible$C$E$GT$$GT$$GT$13from_residual17h16b541210927c44bE', symObjAddr: 0x214, symBinAddr: 0x48F18, symSize: 0x6C }
  - { offsetInCU: 0xFCB, offset: 0x10FE2A, size: 0x8, addend: 0x0, symName: '__ZN153_$LT$core..result..Result$LT$T$C$F$GT$$u20$as$u20$core..ops..try_trait..FromResidual$LT$core..result..Result$LT$core..convert..Infallible$C$E$GT$$GT$$GT$13from_residual17h24f19fe2f8ce3602E', symObjAddr: 0x360, symBinAddr: 0x48F84, symSize: 0x6C }
  - { offsetInCU: 0x1051, offset: 0x10FEB0, size: 0x8, addend: 0x0, symName: '__ZN153_$LT$core..result..Result$LT$T$C$F$GT$$u20$as$u20$core..ops..try_trait..FromResidual$LT$core..result..Result$LT$core..convert..Infallible$C$E$GT$$GT$$GT$13from_residual17h2f0c8dfd3b625082E', symObjAddr: 0x438, symBinAddr: 0x48FF0, symSize: 0x6C }
  - { offsetInCU: 0x10D7, offset: 0x10FF36, size: 0x8, addend: 0x0, symName: '__ZN153_$LT$core..result..Result$LT$T$C$F$GT$$u20$as$u20$core..ops..try_trait..FromResidual$LT$core..result..Result$LT$core..convert..Infallible$C$E$GT$$GT$$GT$13from_residual17h32c091a993cd2193E', symObjAddr: 0x5F0, symBinAddr: 0x4905C, symSize: 0x6C }
  - { offsetInCU: 0x115D, offset: 0x10FFBC, size: 0x8, addend: 0x0, symName: '__ZN153_$LT$core..result..Result$LT$T$C$F$GT$$u20$as$u20$core..ops..try_trait..FromResidual$LT$core..result..Result$LT$core..convert..Infallible$C$E$GT$$GT$$GT$13from_residual17h3d05420afd9ec40dE', symObjAddr: 0x734, symBinAddr: 0x490C8, symSize: 0x6C }
  - { offsetInCU: 0x11E3, offset: 0x110042, size: 0x8, addend: 0x0, symName: '__ZN153_$LT$core..result..Result$LT$T$C$F$GT$$u20$as$u20$core..ops..try_trait..FromResidual$LT$core..result..Result$LT$core..convert..Infallible$C$E$GT$$GT$$GT$13from_residual17h3e9462ae0ee59121E', symObjAddr: 0x7A0, symBinAddr: 0x49134, symSize: 0x6C }
  - { offsetInCU: 0x1269, offset: 0x1100C8, size: 0x8, addend: 0x0, symName: '__ZN153_$LT$core..result..Result$LT$T$C$F$GT$$u20$as$u20$core..ops..try_trait..FromResidual$LT$core..result..Result$LT$core..convert..Infallible$C$E$GT$$GT$$GT$13from_residual17h4077cbe680600659E', symObjAddr: 0x8EC, symBinAddr: 0x491A0, symSize: 0x6C }
  - { offsetInCU: 0x12EF, offset: 0x11014E, size: 0x8, addend: 0x0, symName: '__ZN153_$LT$core..result..Result$LT$T$C$F$GT$$u20$as$u20$core..ops..try_trait..FromResidual$LT$core..result..Result$LT$core..convert..Infallible$C$E$GT$$GT$$GT$13from_residual17h521aec7aaecc4b44E', symObjAddr: 0xB6C, symBinAddr: 0x4920C, symSize: 0x6C }
  - { offsetInCU: 0x1375, offset: 0x1101D4, size: 0x8, addend: 0x0, symName: '__ZN153_$LT$core..result..Result$LT$T$C$F$GT$$u20$as$u20$core..ops..try_trait..FromResidual$LT$core..result..Result$LT$core..convert..Infallible$C$E$GT$$GT$$GT$13from_residual17h5b9ca84b3daa5682E', symObjAddr: 0xD14, symBinAddr: 0x49278, symSize: 0x6C }
  - { offsetInCU: 0x13FB, offset: 0x11025A, size: 0x8, addend: 0x0, symName: '__ZN153_$LT$core..result..Result$LT$T$C$F$GT$$u20$as$u20$core..ops..try_trait..FromResidual$LT$core..result..Result$LT$core..convert..Infallible$C$E$GT$$GT$$GT$13from_residual17h5ce34b7607ad7be9E', symObjAddr: 0xD80, symBinAddr: 0x492E4, symSize: 0x6C }
  - { offsetInCU: 0x1481, offset: 0x1102E0, size: 0x8, addend: 0x0, symName: '__ZN153_$LT$core..result..Result$LT$T$C$F$GT$$u20$as$u20$core..ops..try_trait..FromResidual$LT$core..result..Result$LT$core..convert..Infallible$C$E$GT$$GT$$GT$13from_residual17h626e34f4edaca6eaE', symObjAddr: 0xEBC, symBinAddr: 0x49350, symSize: 0x6C }
  - { offsetInCU: 0x1507, offset: 0x110366, size: 0x8, addend: 0x0, symName: '__ZN153_$LT$core..result..Result$LT$T$C$F$GT$$u20$as$u20$core..ops..try_trait..FromResidual$LT$core..result..Result$LT$core..convert..Infallible$C$E$GT$$GT$$GT$13from_residual17h63bb1430931e4c63E', symObjAddr: 0xF28, symBinAddr: 0x493BC, symSize: 0x64 }
  - { offsetInCU: 0x156F, offset: 0x1103CE, size: 0x8, addend: 0x0, symName: '__ZN153_$LT$core..result..Result$LT$T$C$F$GT$$u20$as$u20$core..ops..try_trait..FromResidual$LT$core..result..Result$LT$core..convert..Infallible$C$E$GT$$GT$$GT$13from_residual17h66cb7ffe6e9079ceE', symObjAddr: 0x1064, symBinAddr: 0x49420, symSize: 0x64 }
  - { offsetInCU: 0x15D7, offset: 0x110436, size: 0x8, addend: 0x0, symName: '__ZN153_$LT$core..result..Result$LT$T$C$F$GT$$u20$as$u20$core..ops..try_trait..FromResidual$LT$core..result..Result$LT$core..convert..Infallible$C$E$GT$$GT$$GT$13from_residual17h6a60ced125a79f5bE', symObjAddr: 0x10C8, symBinAddr: 0x49484, symSize: 0x6C }
  - { offsetInCU: 0x165D, offset: 0x1104BC, size: 0x8, addend: 0x0, symName: '__ZN153_$LT$core..result..Result$LT$T$C$F$GT$$u20$as$u20$core..ops..try_trait..FromResidual$LT$core..result..Result$LT$core..convert..Infallible$C$E$GT$$GT$$GT$13from_residual17h89638d6b56bbb4bfE', symObjAddr: 0x144C, symBinAddr: 0x494F0, symSize: 0x6C }
  - { offsetInCU: 0x16E3, offset: 0x110542, size: 0x8, addend: 0x0, symName: '__ZN153_$LT$core..result..Result$LT$T$C$F$GT$$u20$as$u20$core..ops..try_trait..FromResidual$LT$core..result..Result$LT$core..convert..Infallible$C$E$GT$$GT$$GT$13from_residual17h92badccd001304e9E', symObjAddr: 0x1590, symBinAddr: 0x4955C, symSize: 0x6C }
  - { offsetInCU: 0x1769, offset: 0x1105C8, size: 0x8, addend: 0x0, symName: '__ZN153_$LT$core..result..Result$LT$T$C$F$GT$$u20$as$u20$core..ops..try_trait..FromResidual$LT$core..result..Result$LT$core..convert..Infallible$C$E$GT$$GT$$GT$13from_residual17h9afbd85fd12c9504E', symObjAddr: 0x1668, symBinAddr: 0x495C8, symSize: 0x6C }
  - { offsetInCU: 0x17EF, offset: 0x11064E, size: 0x8, addend: 0x0, symName: '__ZN153_$LT$core..result..Result$LT$T$C$F$GT$$u20$as$u20$core..ops..try_trait..FromResidual$LT$core..result..Result$LT$core..convert..Infallible$C$E$GT$$GT$$GT$13from_residual17ha35c71a5badf9da5E', symObjAddr: 0x1740, symBinAddr: 0x49634, symSize: 0x1C }
  - { offsetInCU: 0x1856, offset: 0x1106B5, size: 0x8, addend: 0x0, symName: '__ZN153_$LT$core..result..Result$LT$T$C$F$GT$$u20$as$u20$core..ops..try_trait..FromResidual$LT$core..result..Result$LT$core..convert..Infallible$C$E$GT$$GT$$GT$13from_residual17had6d7497a02a66b6E', symObjAddr: 0x1874, symBinAddr: 0x49650, symSize: 0x64 }
  - { offsetInCU: 0x18BE, offset: 0x11071D, size: 0x8, addend: 0x0, symName: '__ZN153_$LT$core..result..Result$LT$T$C$F$GT$$u20$as$u20$core..ops..try_trait..FromResidual$LT$core..result..Result$LT$core..convert..Infallible$C$E$GT$$GT$$GT$13from_residual17hdbbda0fa9a8860d4E', symObjAddr: 0x1EB8, symBinAddr: 0x496B4, symSize: 0x6C }
  - { offsetInCU: 0x1944, offset: 0x1107A3, size: 0x8, addend: 0x0, symName: '__ZN153_$LT$core..result..Result$LT$T$C$F$GT$$u20$as$u20$core..ops..try_trait..FromResidual$LT$core..result..Result$LT$core..convert..Infallible$C$E$GT$$GT$$GT$13from_residual17hfa800fe138407a57E', symObjAddr: 0x227C, symBinAddr: 0x49720, symSize: 0x6C }
  - { offsetInCU: 0x3EFD, offset: 0x112D5C, size: 0x8, addend: 0x0, symName: __ZN4core6result6Result3Err17h7a01abb2af8ace38E, symObjAddr: 0x59FC, symBinAddr: 0x4A4C4, symSize: 0x3C }
  - { offsetInCU: 0x3F41, offset: 0x112DA0, size: 0x8, addend: 0x0, symName: '__ZN79_$LT$core..result..Result$LT$T$C$E$GT$$u20$as$u20$core..ops..try_trait..Try$GT$6branch17h00ecfa907c0ef84dE', symObjAddr: 0x5A38, symBinAddr: 0x4A500, symSize: 0xA0 }
  - { offsetInCU: 0x3FBE, offset: 0x112E1D, size: 0x8, addend: 0x0, symName: '__ZN79_$LT$core..result..Result$LT$T$C$E$GT$$u20$as$u20$core..ops..try_trait..Try$GT$6branch17h09060fb19a0c0bc3E', symObjAddr: 0x5C20, symBinAddr: 0x4A5A0, symSize: 0xA0 }
  - { offsetInCU: 0x403B, offset: 0x112E9A, size: 0x8, addend: 0x0, symName: '__ZN79_$LT$core..result..Result$LT$T$C$E$GT$$u20$as$u20$core..ops..try_trait..Try$GT$6branch17h0cbb942aef562d74E', symObjAddr: 0x5CC0, symBinAddr: 0x4A640, symSize: 0xA0 }
  - { offsetInCU: 0x40B8, offset: 0x112F17, size: 0x8, addend: 0x0, symName: '__ZN79_$LT$core..result..Result$LT$T$C$E$GT$$u20$as$u20$core..ops..try_trait..Try$GT$6branch17h1d21ad3486cbdbe0E', symObjAddr: 0x5DE8, symBinAddr: 0x4A6E0, symSize: 0xA0 }
  - { offsetInCU: 0x4135, offset: 0x112F94, size: 0x8, addend: 0x0, symName: '__ZN79_$LT$core..result..Result$LT$T$C$E$GT$$u20$as$u20$core..ops..try_trait..Try$GT$6branch17h2509d326325d5cedE', symObjAddr: 0x5FAC, symBinAddr: 0x4A780, symSize: 0xA0 }
  - { offsetInCU: 0x41B2, offset: 0x113011, size: 0x8, addend: 0x0, symName: '__ZN79_$LT$core..result..Result$LT$T$C$E$GT$$u20$as$u20$core..ops..try_trait..Try$GT$6branch17h26d3ce7ba94d6a18E', symObjAddr: 0x604C, symBinAddr: 0x4A820, symSize: 0xA0 }
  - { offsetInCU: 0x422F, offset: 0x11308E, size: 0x8, addend: 0x0, symName: '__ZN79_$LT$core..result..Result$LT$T$C$E$GT$$u20$as$u20$core..ops..try_trait..Try$GT$6branch17h2eb72ae2d75f1312E', symObjAddr: 0x60EC, symBinAddr: 0x4A8C0, symSize: 0xA0 }
  - { offsetInCU: 0x42AC, offset: 0x11310B, size: 0x8, addend: 0x0, symName: '__ZN79_$LT$core..result..Result$LT$T$C$E$GT$$u20$as$u20$core..ops..try_trait..Try$GT$6branch17h38ea3a88933e88deE', symObjAddr: 0x622C, symBinAddr: 0x4A960, symSize: 0xC4 }
  - { offsetInCU: 0x432A, offset: 0x113189, size: 0x8, addend: 0x0, symName: '__ZN79_$LT$core..result..Result$LT$T$C$E$GT$$u20$as$u20$core..ops..try_trait..Try$GT$6branch17h41358ec5a18152dbE', symObjAddr: 0x6438, symBinAddr: 0x4AA24, symSize: 0xA0 }
  - { offsetInCU: 0x43A7, offset: 0x113206, size: 0x8, addend: 0x0, symName: '__ZN79_$LT$core..result..Result$LT$T$C$E$GT$$u20$as$u20$core..ops..try_trait..Try$GT$6branch17h551c822875566916E', symObjAddr: 0x6820, symBinAddr: 0x4AAC4, symSize: 0xAC }
  - { offsetInCU: 0x4424, offset: 0x113283, size: 0x8, addend: 0x0, symName: '__ZN79_$LT$core..result..Result$LT$T$C$E$GT$$u20$as$u20$core..ops..try_trait..Try$GT$6branch17h562429191e18126cE', symObjAddr: 0x68CC, symBinAddr: 0x4AB70, symSize: 0xA0 }
  - { offsetInCU: 0x44A1, offset: 0x113300, size: 0x8, addend: 0x0, symName: '__ZN79_$LT$core..result..Result$LT$T$C$E$GT$$u20$as$u20$core..ops..try_trait..Try$GT$6branch17h5953297a42e24e33E', symObjAddr: 0x696C, symBinAddr: 0x4AC10, symSize: 0x94 }
  - { offsetInCU: 0x451F, offset: 0x11337E, size: 0x8, addend: 0x0, symName: '__ZN79_$LT$core..result..Result$LT$T$C$E$GT$$u20$as$u20$core..ops..try_trait..Try$GT$6branch17h623117b60a1398f0E', symObjAddr: 0x6A00, symBinAddr: 0x4ACA4, symSize: 0xA0 }
  - { offsetInCU: 0x459C, offset: 0x1133FB, size: 0x8, addend: 0x0, symName: '__ZN79_$LT$core..result..Result$LT$T$C$E$GT$$u20$as$u20$core..ops..try_trait..Try$GT$6branch17h67878257ee902b06E', symObjAddr: 0x6AA0, symBinAddr: 0x4AD44, symSize: 0x28 }
  - { offsetInCU: 0x45FA, offset: 0x113459, size: 0x8, addend: 0x0, symName: '__ZN79_$LT$core..result..Result$LT$T$C$E$GT$$u20$as$u20$core..ops..try_trait..Try$GT$6branch17h7140be094a0a41f8E', symObjAddr: 0x6B50, symBinAddr: 0x4AD6C, symSize: 0xA0 }
  - { offsetInCU: 0x4677, offset: 0x1134D6, size: 0x8, addend: 0x0, symName: '__ZN79_$LT$core..result..Result$LT$T$C$E$GT$$u20$as$u20$core..ops..try_trait..Try$GT$6branch17h7ebca7f4d69eb7dfE', symObjAddr: 0x6DA8, symBinAddr: 0x4AE0C, symSize: 0x28 }
  - { offsetInCU: 0x46D5, offset: 0x113534, size: 0x8, addend: 0x0, symName: '__ZN79_$LT$core..result..Result$LT$T$C$E$GT$$u20$as$u20$core..ops..try_trait..Try$GT$6branch17h7f117ddc8bfaf9f0E', symObjAddr: 0x6DD0, symBinAddr: 0x4AE34, symSize: 0xA0 }
  - { offsetInCU: 0x4752, offset: 0x1135B1, size: 0x8, addend: 0x0, symName: '__ZN79_$LT$core..result..Result$LT$T$C$E$GT$$u20$as$u20$core..ops..try_trait..Try$GT$6branch17h9c1efb0bdf3af059E', symObjAddr: 0x70FC, symBinAddr: 0x4AED4, symSize: 0xAC }
  - { offsetInCU: 0x47CF, offset: 0x11362E, size: 0x8, addend: 0x0, symName: '__ZN79_$LT$core..result..Result$LT$T$C$E$GT$$u20$as$u20$core..ops..try_trait..Try$GT$6branch17hacc493d6b7bb9f04E', symObjAddr: 0x73C0, symBinAddr: 0x4AF80, symSize: 0x40 }
  - { offsetInCU: 0x484B, offset: 0x1136AA, size: 0x8, addend: 0x0, symName: '__ZN79_$LT$core..result..Result$LT$T$C$E$GT$$u20$as$u20$core..ops..try_trait..Try$GT$6branch17hc5507ddfb597fcc5E', symObjAddr: 0x7540, symBinAddr: 0x4AFC0, symSize: 0x88 }
  - { offsetInCU: 0x48C9, offset: 0x113728, size: 0x8, addend: 0x0, symName: '__ZN79_$LT$core..result..Result$LT$T$C$E$GT$$u20$as$u20$core..ops..try_trait..Try$GT$6branch17hd281b73f2f5d584dE', symObjAddr: 0x7668, symBinAddr: 0x4B048, symSize: 0x90 }
  - { offsetInCU: 0x4946, offset: 0x1137A5, size: 0x8, addend: 0x0, symName: '__ZN79_$LT$core..result..Result$LT$T$C$E$GT$$u20$as$u20$core..ops..try_trait..Try$GT$6branch17hd5656017146d72c7E', symObjAddr: 0x7780, symBinAddr: 0x4B0D8, symSize: 0x44 }
  - { offsetInCU: 0x49C2, offset: 0x113821, size: 0x8, addend: 0x0, symName: '__ZN79_$LT$core..result..Result$LT$T$C$E$GT$$u20$as$u20$core..ops..try_trait..Try$GT$6branch17hf4c15803bdc63234E', symObjAddr: 0x7B6C, symBinAddr: 0x4B11C, symSize: 0x88 }
  - { offsetInCU: 0x4A40, offset: 0x11389F, size: 0x8, addend: 0x0, symName: '__ZN79_$LT$core..result..Result$LT$T$C$E$GT$$u20$as$u20$core..ops..try_trait..Try$GT$6branch17hf5274580cc3d8518E', symObjAddr: 0x7BF4, symBinAddr: 0x4B1A4, symSize: 0x14 }
  - { offsetInCU: 0x4A7C, offset: 0x1138DB, size: 0x8, addend: 0x0, symName: '__ZN79_$LT$core..result..Result$LT$T$C$E$GT$$u20$as$u20$core..ops..try_trait..Try$GT$6branch17hfb7c48b45412475cE', symObjAddr: 0x7D30, symBinAddr: 0x4B1B8, symSize: 0xB4 }
  - { offsetInCU: 0x4AFA, offset: 0x113959, size: 0x8, addend: 0x0, symName: '__ZN79_$LT$core..result..Result$LT$T$C$E$GT$$u20$as$u20$core..ops..try_trait..Try$GT$6branch17hff803e0af2808ec1E', symObjAddr: 0x7E8C, symBinAddr: 0x4B26C, symSize: 0xA0 }
  - { offsetInCU: 0x73C7, offset: 0x116226, size: 0x8, addend: 0x0, symName: '__ZN152_$LT$core..result..Result$LT$pyo3..instance..Bound$LT$pyo3..types..any..PyAny$GT$$C$pyo3..err..PyErr$GT$$u20$as$u20$pyo3..py_result_ext..PyResultExt$GT$23downcast_into_unchecked17h75b77c7f7dfef304E', symObjAddr: 0x7FF4, symBinAddr: 0x4B30C, symSize: 0x14 }
  - { offsetInCU: 0x73FD, offset: 0x11625C, size: 0x8, addend: 0x0, symName: '__ZN152_$LT$core..result..Result$LT$pyo3..instance..Bound$LT$pyo3..types..any..PyAny$GT$$C$pyo3..err..PyErr$GT$$u20$as$u20$pyo3..py_result_ext..PyResultExt$GT$23downcast_into_unchecked17hc23b44704f55cb77E', symObjAddr: 0x8030, symBinAddr: 0x4B320, symSize: 0x14 }
  - { offsetInCU: 0x7433, offset: 0x116292, size: 0x8, addend: 0x0, symName: '__ZN152_$LT$core..result..Result$LT$pyo3..instance..Bound$LT$pyo3..types..any..PyAny$GT$$C$pyo3..err..PyErr$GT$$u20$as$u20$pyo3..py_result_ext..PyResultExt$GT$23downcast_into_unchecked17hfeab197b65d1b105E', symObjAddr: 0x80BC, symBinAddr: 0x4B334, symSize: 0x14 }
  - { offsetInCU: 0x8592, offset: 0x1173F1, size: 0x8, addend: 0x0, symName: '__ZN4core6result19Result$LT$T$C$E$GT$11map_or_else17h5d10c20e5339f7cfE', symObjAddr: 0x22E8, symBinAddr: 0x4978C, symSize: 0xE8 }
  - { offsetInCU: 0x8671, offset: 0x1174D0, size: 0x8, addend: 0x0, symName: '__ZN4core6result19Result$LT$T$C$E$GT$14unwrap_or_else17h34cccf15c0cd60a4E', symObjAddr: 0x23D0, symBinAddr: 0x49874, symSize: 0x9C }
  - { offsetInCU: 0x8759, offset: 0x1175B8, size: 0x8, addend: 0x0, symName: '__ZN4core6result19Result$LT$T$C$E$GT$3map17h097b71306b1009bbE', symObjAddr: 0x26B8, symBinAddr: 0x49910, symSize: 0x90 }
  - { offsetInCU: 0x8806, offset: 0x117665, size: 0x8, addend: 0x0, symName: '__ZN4core6result19Result$LT$T$C$E$GT$3map17h1c5dcc232e072144E', symObjAddr: 0x27D8, symBinAddr: 0x499A0, symSize: 0x9C }
  - { offsetInCU: 0x8899, offset: 0x1176F8, size: 0x8, addend: 0x0, symName: '__ZN4core6result19Result$LT$T$C$E$GT$3map17h1d9dcf66ebe270b6E', symObjAddr: 0x2874, symBinAddr: 0x49A3C, symSize: 0xA0 }
  - { offsetInCU: 0x8944, offset: 0x1177A3, size: 0x8, addend: 0x0, symName: '__ZN4core6result19Result$LT$T$C$E$GT$3map17h3e5a7c4b048cf385E', symObjAddr: 0x2BE0, symBinAddr: 0x49ADC, symSize: 0xA8 }
  - { offsetInCU: 0x89D8, offset: 0x117837, size: 0x8, addend: 0x0, symName: '__ZN4core6result19Result$LT$T$C$E$GT$3map17h54414f47e9e612b6E', symObjAddr: 0x2D18, symBinAddr: 0x49B84, symSize: 0x90 }
  - { offsetInCU: 0x8A83, offset: 0x1178E2, size: 0x8, addend: 0x0, symName: '__ZN4core6result19Result$LT$T$C$E$GT$3map17h6c47d2e07b2ca895E', symObjAddr: 0x2DA8, symBinAddr: 0x49C14, symSize: 0xBC }
  - { offsetInCU: 0x8B16, offset: 0x117975, size: 0x8, addend: 0x0, symName: '__ZN4core6result19Result$LT$T$C$E$GT$3map17h6d06680296878effE', symObjAddr: 0x2E64, symBinAddr: 0x49CD0, symSize: 0x90 }
  - { offsetInCU: 0x8BB0, offset: 0x117A0F, size: 0x8, addend: 0x0, symName: '__ZN4core6result19Result$LT$T$C$E$GT$3map17hed15e813cf01ee4fE', symObjAddr: 0x3568, symBinAddr: 0x49D60, symSize: 0x9C }
  - { offsetInCU: 0x8C43, offset: 0x117AA2, size: 0x8, addend: 0x0, symName: '__ZN4core6result19Result$LT$T$C$E$GT$6expect17h143c12a463d119daE', symObjAddr: 0x3694, symBinAddr: 0x49DFC, symSize: 0x80 }
  - { offsetInCU: 0x8CA5, offset: 0x117B04, size: 0x8, addend: 0x0, symName: '__ZN4core6result19Result$LT$T$C$E$GT$6expect17h3427b0ac87841670E', symObjAddr: 0x37C4, symBinAddr: 0x49E7C, symSize: 0xA4 }
  - { offsetInCU: 0x8D08, offset: 0x117B67, size: 0x8, addend: 0x0, symName: '__ZN4core6result19Result$LT$T$C$E$GT$6expect17h57a26be413bbb095E', symObjAddr: 0x3868, symBinAddr: 0x49F20, symSize: 0x84 }
  - { offsetInCU: 0x8D71, offset: 0x117BD0, size: 0x8, addend: 0x0, symName: '__ZN4core6result19Result$LT$T$C$E$GT$6expect17hf92bbc8646971446E', symObjAddr: 0x3D78, symBinAddr: 0x49FA4, symSize: 0xB0 }
  - { offsetInCU: 0x8DF9, offset: 0x117C58, size: 0x8, addend: 0x0, symName: '__ZN4core6result19Result$LT$T$C$E$GT$7map_err17h1338cccab0f272d8E', symObjAddr: 0x3FF0, symBinAddr: 0x4A054, symSize: 0x30 }
  - { offsetInCU: 0x8EAC, offset: 0x117D0B, size: 0x8, addend: 0x0, symName: '__ZN4core6result19Result$LT$T$C$E$GT$7map_err17h20b68b40455eb5b7E', symObjAddr: 0x4234, symBinAddr: 0x4A084, symSize: 0xBC }
  - { offsetInCU: 0x8F4C, offset: 0x117DAB, size: 0x8, addend: 0x0, symName: '__ZN4core6result19Result$LT$T$C$E$GT$7map_err17h2573e642f8f7e578E', symObjAddr: 0x44A8, symBinAddr: 0x4A140, symSize: 0xD0 }
  - { offsetInCU: 0x8FEE, offset: 0x117E4D, size: 0x8, addend: 0x0, symName: '__ZN4core6result19Result$LT$T$C$E$GT$7map_err17h8659d99d635feeeaE', symObjAddr: 0x4BF8, symBinAddr: 0x4A210, symSize: 0x84 }
  - { offsetInCU: 0x9088, offset: 0x117EE7, size: 0x8, addend: 0x0, symName: '__ZN4core6result19Result$LT$T$C$E$GT$7map_err17hbf7e412efe42e897E', symObjAddr: 0x50E8, symBinAddr: 0x4A294, symSize: 0x30 }
  - { offsetInCU: 0x90FE, offset: 0x117F5D, size: 0x8, addend: 0x0, symName: '__ZN4core6result19Result$LT$T$C$E$GT$7map_err17hde34cebb52abe2a8E', symObjAddr: 0x52B8, symBinAddr: 0x4A2C4, symSize: 0xB0 }
  - { offsetInCU: 0x9191, offset: 0x117FF0, size: 0x8, addend: 0x0, symName: '__ZN4core6result19Result$LT$T$C$E$GT$9unwrap_or17h1cf048f63358002eE', symObjAddr: 0x58AC, symBinAddr: 0x4A374, symSize: 0x7C }
  - { offsetInCU: 0x91F3, offset: 0x118052, size: 0x8, addend: 0x0, symName: '__ZN4core6result19Result$LT$T$C$E$GT$9unwrap_or17hba87c27a0f38d554E', symObjAddr: 0x5928, symBinAddr: 0x4A3F0, symSize: 0xD4 }
  - { offsetInCU: 0x1E, offset: 0x118189, size: 0x8, addend: 0x0, symName: '__ZN118_$LT$$u5b$core..mem..maybe_uninit..MaybeUninit$LT$T$GT$$u5d$$u20$as$u20$core..array..iter..iter_inner..PartialDrop$GT$12partial_drop17h71d09dcf8ff171a3E', symObjAddr: 0x0, symBinAddr: 0x4B348, symSize: 0xC0 }
  - { offsetInCU: 0x117A, offset: 0x1192E5, size: 0x8, addend: 0x0, symName: '__ZN145_$LT$core..option..Option$LT$T$GT$$u20$as$u20$core..ops..try_trait..FromResidual$LT$core..option..Option$LT$core..convert..Infallible$GT$$GT$$GT$13from_residual17hb4d53ffe2515abacE', symObjAddr: 0x2E0, symBinAddr: 0x4B454, symSize: 0x10 }
  - { offsetInCU: 0x25F8, offset: 0x11A763, size: 0x8, addend: 0x0, symName: '__ZN66_$LT$core..option..Option$LT$T$GT$$u20$as$u20$core..fmt..Debug$GT$3fmt17h902015905b153167E', symObjAddr: 0x3E08, symBinAddr: 0x4CF80, symSize: 0xA0 }
  - { offsetInCU: 0x2662, offset: 0x11A7CD, size: 0x8, addend: 0x0, symName: '__ZN72_$LT$core..option..Option$LT$T$GT$$u20$as$u20$core..default..Default$GT$7default17h2bd9a719fe29a383E', symObjAddr: 0x3EA8, symBinAddr: 0x4D020, symSize: 0x18 }
  - { offsetInCU: 0x268A, offset: 0x11A7F5, size: 0x8, addend: 0x0, symName: '__ZN72_$LT$core..option..Option$LT$T$GT$$u20$as$u20$core..default..Default$GT$7default17h7145cbfc3f2fd7e7E', symObjAddr: 0x3ED8, symBinAddr: 0x4D038, symSize: 0x14 }
  - { offsetInCU: 0x26B2, offset: 0x11A81D, size: 0x8, addend: 0x0, symName: '__ZN72_$LT$core..option..Option$LT$T$GT$$u20$as$u20$core..default..Default$GT$7default17h9ec1a0341d155662E', symObjAddr: 0x3EEC, symBinAddr: 0x4D04C, symSize: 0x14 }
  - { offsetInCU: 0x26DA, offset: 0x11A845, size: 0x8, addend: 0x0, symName: '__ZN72_$LT$core..option..Option$LT$T$GT$$u20$as$u20$core..default..Default$GT$7default17hac8f17be035a2e48E', symObjAddr: 0x3F00, symBinAddr: 0x4D060, symSize: 0x14 }
  - { offsetInCU: 0x2708, offset: 0x11A873, size: 0x8, addend: 0x0, symName: '__ZN75_$LT$core..option..Option$LT$T$GT$$u20$as$u20$core..ops..try_trait..Try$GT$6branch17h4cdd9b0b606abf7bE', symObjAddr: 0x3F94, symBinAddr: 0x4D074, symSize: 0x40 }
  - { offsetInCU: 0x29DD, offset: 0x11AB48, size: 0x8, addend: 0x0, symName: __ZN4core4sync6atomic11atomic_load17h40ffff2e985c73e5E, symObjAddr: 0xDA4, symBinAddr: 0x4B504, symSize: 0x150 }
  - { offsetInCU: 0x2A4F, offset: 0x11ABBA, size: 0x8, addend: 0x0, symName: __ZN4core4sync6atomic11atomic_load17h701f33d8a49b15f2E, symObjAddr: 0xEF4, symBinAddr: 0x4B654, symSize: 0x150 }
  - { offsetInCU: 0x2AC1, offset: 0x11AC2C, size: 0x8, addend: 0x0, symName: __ZN4core4sync6atomic23atomic_compare_exchange17h529c2a0f0777d97dE, symObjAddr: 0x16AC, symBinAddr: 0x4B7A4, symSize: 0x514 }
  - { offsetInCU: 0x2B88, offset: 0x11ACF3, size: 0x8, addend: 0x0, symName: __ZN4core4sync6atomic23atomic_compare_exchange17h7a40741bbdf63c1fE, symObjAddr: 0x1BC0, symBinAddr: 0x4BCB8, symSize: 0x514 }
  - { offsetInCU: 0x2EFA, offset: 0x11B065, size: 0x8, addend: 0x0, symName: '__ZN4core3cmp5impls54_$LT$impl$u20$core..cmp..PartialEq$u20$for$u20$i32$GT$2ne17h8ebc3d64d5ee0425E', symObjAddr: 0x408, symBinAddr: 0x4B464, symSize: 0x2C }
  - { offsetInCU: 0x2F3D, offset: 0x11B0A8, size: 0x8, addend: 0x0, symName: '__ZN4core3cmp5impls54_$LT$impl$u20$core..cmp..PartialEq$u20$for$u20$i64$GT$2ne17hf65f73919e863c86E', symObjAddr: 0x460, symBinAddr: 0x4B490, symSize: 0x2C }
  - { offsetInCU: 0x2F80, offset: 0x11B0EB, size: 0x8, addend: 0x0, symName: '__ZN4core3cmp5impls56_$LT$impl$u20$core..cmp..PartialEq$u20$for$u20$isize$GT$2ne17h791780e49b93d731E', symObjAddr: 0x4FC, symBinAddr: 0x4B4BC, symSize: 0x2C }
  - { offsetInCU: 0x3106, offset: 0x11B271, size: 0x8, addend: 0x0, symName: '__ZN4core5slice4iter87_$LT$impl$u20$core..iter..traits..collect..IntoIterator$u20$for$u20$$RF$$u5b$T$u5d$$GT$9into_iter17h67918f6b6aa4f85cE', symObjAddr: 0x22CC, symBinAddr: 0x4C208, symSize: 0x50 }
  - { offsetInCU: 0x332A, offset: 0x11B495, size: 0x8, addend: 0x0, symName: '__ZN118_$LT$$u5b$core..mem..maybe_uninit..MaybeUninit$LT$T$GT$$u5d$$u20$as$u20$core..array..iter..iter_inner..PartialDrop$GT$12partial_drop17h71d09dcf8ff171a3E', symObjAddr: 0x0, symBinAddr: 0x4B348, symSize: 0xC0 }
  - { offsetInCU: 0x343E, offset: 0x11B5A9, size: 0x8, addend: 0x0, symName: '__ZN129_$LT$$u5b$core..mem..maybe_uninit..MaybeUninit$LT$T$GT$$u3b$$u20$N$u5d$$u20$as$u20$core..array..iter..iter_inner..PartialDrop$GT$12partial_drop17h363b68cf70df0502E', symObjAddr: 0x1CC, symBinAddr: 0x4B408, symSize: 0x4C }
  - { offsetInCU: 0x36AA, offset: 0x11B815, size: 0x8, addend: 0x0, symName: '__ZN4core3str21_$LT$impl$u20$str$GT$3len17h94a25e9088ba61c5E', symObjAddr: 0x860, symBinAddr: 0x4B4E8, symSize: 0x1C }
  - { offsetInCU: 0x3C77, offset: 0x11BDE2, size: 0x8, addend: 0x0, symName: '__ZN4core7convert3num67_$LT$impl$u20$core..convert..TryFrom$LT$u64$GT$$u20$for$u20$u32$GT$8try_from17h08b04c2215cb91f6E', symObjAddr: 0x3B78, symBinAddr: 0x4CE38, symSize: 0x5C }
  - { offsetInCU: 0x3CAB, offset: 0x11BE16, size: 0x8, addend: 0x0, symName: '__ZN4core7convert3num71_$LT$impl$u20$core..convert..TryFrom$LT$usize$GT$$u20$for$u20$isize$GT$8try_from17hbb013d73aba212abE', symObjAddr: 0x3C28, symBinAddr: 0x4CE94, symSize: 0x5C }
  - { offsetInCU: 0x3CE0, offset: 0x11BE4B, size: 0x8, addend: 0x0, symName: '__ZN50_$LT$T$u20$as$u20$core..convert..Into$LT$U$GT$$GT$4into17h17913ee494a426f8E', symObjAddr: 0x3C98, symBinAddr: 0x4CEF0, symSize: 0x28 }
